
BootLoader32.elf:     file format elf32-i386


Disassembly of section .text:

00000000 <_start>:
       0:	66 b8 10 00          	mov    $0x10,%ax
       4:	8e d8                	mov    %eax,%ds
       6:	66 b8 18 00          	mov    $0x18,%ax
       a:	8e d0                	mov    %eax,%ss
       c:	bc ff ff 05 00       	mov    $0x5ffff,%esp
      11:	66 b8 38 00          	mov    $0x38,%ax
      15:	8e e0                	mov    %eax,%fs
      17:	66 b8 20 00          	mov    $0x20,%ax
      1b:	8e e8                	mov    %eax,%gs
      1d:	bf 40 06 00 00       	mov    $0x640,%edi
      22:	b4 0c                	mov    $0xc,%ah
      24:	b0 50                	mov    $0x50,%al
      26:	65 66 89 07          	mov    %ax,%gs:(%edi)
      2a:	e8 2a 0d 00 00       	call   d59 <CStart>
      2f:	e9 fb ff ff ff       	jmp    2f <Selector_ParititionMsg+0x7>

00000034 <Test_Mem>:
      34:	32 00                	xor    (%eax),%al
      36:	00 00                	add    %al,(%eax)
      38:	00 00                	add    %al,(%eax)
	...

0000003c <Test_Mem2>:
      3c:	64 00 00             	add    %al,%fs:(%eax)
      3f:	00 00                	add    %al,(%eax)
      41:	00 00                	add    %al,(%eax)
	...

00000044 <Test>:
      44:	9b db e3             	finit  
      47:	b8 34 00 00 00       	mov    $0x34,%eax
      4c:	df 28                	fildll (%eax)
      4e:	b8 3c 00 00 00       	mov    $0x3c,%eax
      53:	df 28                	fildll (%eax)
      55:	b8 34 00 00 00       	mov    $0x34,%eax
      5a:	d8 f1                	fdiv   %st(1),%st
      5c:	df 38                	fistpll (%eax)
      5e:	e9 fb ff ff ff       	jmp    5e <Column_Num+0xe>
      63:	c3                   	ret    

00000064 <IO_In8>:
      64:	52                   	push   %edx
      65:	b8 00 00 00 00       	mov    $0x0,%eax
      6a:	66 8b 54 24 08       	mov    0x8(%esp),%dx
      6f:	ec                   	in     (%dx),%al
      70:	e8 8f 01 00 00       	call   204 <IO_Delay>
      75:	5a                   	pop    %edx
      76:	c3                   	ret    

00000077 <IO_Out8>:
      77:	50                   	push   %eax
      78:	52                   	push   %edx
      79:	66 8b 54 24 0c       	mov    0xc(%esp),%dx
      7e:	8a 44 24 10          	mov    0x10(%esp),%al
      82:	ee                   	out    %al,(%dx)
      83:	e8 7c 01 00 00       	call   204 <IO_Delay>
      88:	5a                   	pop    %edx
      89:	58                   	pop    %eax
      8a:	c3                   	ret    

0000008b <IO_In16>:
      8b:	52                   	push   %edx
      8c:	b8 00 00 00 00       	mov    $0x0,%eax
      91:	66 8b 54 24 08       	mov    0x8(%esp),%dx
      96:	66 ed                	in     (%dx),%ax
      98:	e8 67 01 00 00       	call   204 <IO_Delay>
      9d:	5a                   	pop    %edx
      9e:	c3                   	ret    

0000009f <IO_Out16>:
      9f:	50                   	push   %eax
      a0:	52                   	push   %edx
      a1:	66 8b 54 24 0c       	mov    0xc(%esp),%dx
      a6:	66 8b 44 24 10       	mov    0x10(%esp),%ax
      ab:	66 ef                	out    %ax,(%dx)
      ad:	e8 52 01 00 00       	call   204 <IO_Delay>
      b2:	5a                   	pop    %edx
      b3:	58                   	pop    %eax
      b4:	c3                   	ret    

000000b5 <IO_In32>:
      b5:	52                   	push   %edx
      b6:	b8 00 00 00 00       	mov    $0x0,%eax
      bb:	66 8b 54 24 08       	mov    0x8(%esp),%dx
      c0:	ed                   	in     (%dx),%eax
      c1:	e8 3e 01 00 00       	call   204 <IO_Delay>
      c6:	5a                   	pop    %edx
      c7:	c3                   	ret    

000000c8 <IO_Out32>:
      c8:	50                   	push   %eax
      c9:	52                   	push   %edx
      ca:	66 8b 54 24 0c       	mov    0xc(%esp),%dx
      cf:	8b 44 24 10          	mov    0x10(%esp),%eax
      d3:	ef                   	out    %eax,(%dx)
      d4:	e8 2b 01 00 00       	call   204 <IO_Delay>
      d9:	5a                   	pop    %edx
      da:	58                   	pop    %eax
      db:	c3                   	ret    

000000dc <SetI>:
      dc:	fb                   	sti    
      dd:	c3                   	ret    

000000de <ClrI>:
      de:	fa                   	cli    
      df:	c3                   	ret    

000000e0 <Int>:
      e0:	cd 50                	int    $0x50
      e2:	c3                   	ret    

000000e3 <HideCursor>:
      e3:	66 bb ff ff          	mov    $0xffff,%bx
      e7:	66 ba d4 03          	mov    $0x3d4,%dx
      eb:	ee                   	out    %al,(%dx)
      ec:	e8 13 01 00 00       	call   204 <IO_Delay>
      f1:	88 f8                	mov    %bh,%al
      f3:	66 ba d5 03          	mov    $0x3d5,%dx
      f7:	ee                   	out    %al,(%dx)
      f8:	e8 07 01 00 00       	call   204 <IO_Delay>
      fd:	b0 0f                	mov    $0xf,%al
      ff:	66 ba d4 03          	mov    $0x3d4,%dx
     103:	ee                   	out    %al,(%dx)
     104:	e8 fb 00 00 00       	call   204 <IO_Delay>
     109:	88 d8                	mov    %bl,%al
     10b:	66 ba d5 03          	mov    $0x3d5,%dx
     10f:	ee                   	out    %al,(%dx)
     110:	e8 ef 00 00 00       	call   204 <IO_Delay>
     115:	c3                   	ret    

00000116 <SetCursorLocation>:
     116:	b8 00 00 00 00       	mov    $0x0,%eax
     11b:	bb 00 00 00 00       	mov    $0x0,%ebx
     120:	8a 44 24 04          	mov    0x4(%esp),%al
     124:	8a 5c 24 08          	mov    0x8(%esp),%bl
     128:	3c 19                	cmp    $0x19,%al
     12a:	73 3c                	jae    168 <SetCursorLocation_Exit>
     12c:	80 fb 50             	cmp    $0x50,%bl
     12f:	73 37                	jae    168 <SetCursorLocation_Exit>
     131:	b1 50                	mov    $0x50,%cl
     133:	f6 e1                	mul    %cl
     135:	66 01 c3             	add    %ax,%bx
     138:	b0 0e                	mov    $0xe,%al
     13a:	66 ba d4 03          	mov    $0x3d4,%dx
     13e:	ee                   	out    %al,(%dx)
     13f:	e8 c0 00 00 00       	call   204 <IO_Delay>
     144:	88 f8                	mov    %bh,%al
     146:	66 ba d5 03          	mov    $0x3d5,%dx
     14a:	ee                   	out    %al,(%dx)
     14b:	e8 b4 00 00 00       	call   204 <IO_Delay>
     150:	b0 0f                	mov    $0xf,%al
     152:	66 ba d4 03          	mov    $0x3d4,%dx
     156:	ee                   	out    %al,(%dx)
     157:	e8 a8 00 00 00       	call   204 <IO_Delay>
     15c:	88 d8                	mov    %bl,%al
     15e:	66 ba d5 03          	mov    $0x3d5,%dx
     162:	ee                   	out    %al,(%dx)
     163:	e8 9c 00 00 00       	call   204 <IO_Delay>

00000168 <SetCursorLocation_Exit>:
     168:	c3                   	ret    

00000169 <WritePhysicsMemory8>:
     169:	50                   	push   %eax
     16a:	53                   	push   %ebx
     16b:	8b 5c 24 0c          	mov    0xc(%esp),%ebx
     16f:	8a 44 24 10          	mov    0x10(%esp),%al
     173:	64 88 03             	mov    %al,%fs:(%ebx)
     176:	5b                   	pop    %ebx
     177:	58                   	pop    %eax
     178:	c3                   	ret    

00000179 <ReadPhysicsMemory8>:
     179:	53                   	push   %ebx
     17a:	b8 00 00 00 00       	mov    $0x0,%eax
     17f:	8b 5c 24 08          	mov    0x8(%esp),%ebx
     183:	64 8a 03             	mov    %fs:(%ebx),%al
     186:	5b                   	pop    %ebx
     187:	c3                   	ret    

00000188 <WritePhysicsMemory16>:
     188:	50                   	push   %eax
     189:	53                   	push   %ebx
     18a:	8b 5c 24 0c          	mov    0xc(%esp),%ebx
     18e:	66 8b 44 24 10       	mov    0x10(%esp),%ax
     193:	64 66 89 03          	mov    %ax,%fs:(%ebx)
     197:	5b                   	pop    %ebx
     198:	58                   	pop    %eax
     199:	c3                   	ret    

0000019a <ReadPhysicsMemory16>:
     19a:	53                   	push   %ebx
     19b:	b8 00 00 00 00       	mov    $0x0,%eax
     1a0:	8b 5c 24 08          	mov    0x8(%esp),%ebx
     1a4:	64 66 8b 03          	mov    %fs:(%ebx),%ax
     1a8:	5b                   	pop    %ebx
     1a9:	c3                   	ret    

000001aa <WritePhysicsMemory32>:
     1aa:	50                   	push   %eax
     1ab:	53                   	push   %ebx
     1ac:	8b 5c 24 0c          	mov    0xc(%esp),%ebx
     1b0:	8b 44 24 10          	mov    0x10(%esp),%eax
     1b4:	64 89 03             	mov    %eax,%fs:(%ebx)
     1b7:	5b                   	pop    %ebx
     1b8:	58                   	pop    %eax
     1b9:	c3                   	ret    

000001ba <ReadPhysicsMemory32>:
     1ba:	53                   	push   %ebx
     1bb:	8b 5c 24 08          	mov    0x8(%esp),%ebx
     1bf:	64 8b 03             	mov    %fs:(%ebx),%eax
     1c2:	5b                   	pop    %ebx
     1c3:	c3                   	ret    

000001c4 <SetDSSelector>:
     1c4:	50                   	push   %eax
     1c5:	8b 44 24 08          	mov    0x8(%esp),%eax
     1c9:	8e d8                	mov    %eax,%ds
     1cb:	58                   	pop    %eax
     1cc:	c3                   	ret    

000001cd <SetESSelector>:
     1cd:	50                   	push   %eax
     1ce:	8b 44 24 08          	mov    0x8(%esp),%eax
     1d2:	8e c0                	mov    %eax,%es
     1d4:	58                   	pop    %eax
     1d5:	c3                   	ret    

000001d6 <SetFSSelector>:
     1d6:	50                   	push   %eax
     1d7:	8b 44 24 08          	mov    0x8(%esp),%eax
     1db:	8e e0                	mov    %eax,%fs
     1dd:	58                   	pop    %eax
     1de:	c3                   	ret    

000001df <SetGSSelector>:
     1df:	50                   	push   %eax
     1e0:	8b 44 24 08          	mov    0x8(%esp),%eax
     1e4:	8e e8                	mov    %eax,%gs
     1e6:	58                   	pop    %eax
     1e7:	c3                   	ret    

000001e8 <GetESP>:
     1e8:	89 e0                	mov    %esp,%eax
     1ea:	05 04 00 00 00       	add    $0x4,%eax
     1ef:	c3                   	ret    

000001f0 <GetStackValue>:
     1f0:	55                   	push   %ebp
     1f1:	8b 6c 24 08          	mov    0x8(%esp),%ebp
     1f5:	36 8b 45 00          	mov    %ss:0x0(%ebp),%eax
     1f9:	5d                   	pop    %ebp
     1fa:	c3                   	ret    

000001fb <GetRDTSC>:
     1fb:	53                   	push   %ebx
     1fc:	51                   	push   %ecx
     1fd:	0f a2                	cpuid  
     1ff:	0f 31                	rdtsc  
     201:	59                   	pop    %ecx
     202:	5b                   	pop    %ebx
     203:	c3                   	ret    

00000204 <IO_Delay>:
     204:	90                   	nop
     205:	90                   	nop
     206:	90                   	nop
     207:	90                   	nop
     208:	90                   	nop
     209:	90                   	nop
     20a:	90                   	nop
     20b:	90                   	nop
     20c:	90                   	nop
     20d:	90                   	nop
     20e:	90                   	nop
     20f:	90                   	nop
     210:	c3                   	ret    

00000211 <Get1sCycle>:
     211:	c7 05 5c 02 00 00 00 	movl   $0x0,0x25c
     218:	00 00 00 
     21b:	bb 12 00 00 00       	mov    $0x12,%ebx
     220:	0f 31                	rdtsc  
     222:	52                   	push   %edx
     223:	50                   	push   %eax

00000224 <Get1sCycle_Stage1>:
     224:	3b 1d 5c 02 00 00    	cmp    0x25c,%ebx
     22a:	75 f8                	jne    224 <Get1sCycle_Stage1>
     22c:	0f 31                	rdtsc  
     22e:	2b 04 24             	sub    (%esp),%eax
     231:	1b 54 24 04          	sbb    0x4(%esp),%edx
     235:	81 c4 08 00 00 00    	add    $0x8,%esp
     23b:	c3                   	ret    

0000023c <WriteSysConfigTable32>:
     23c:	50                   	push   %eax
     23d:	53                   	push   %ebx
     23e:	8b 5c 24 0c          	mov    0xc(%esp),%ebx
     242:	8b 44 24 10          	mov    0x10(%esp),%eax
     246:	89 83 5c 02 00 00    	mov    %eax,0x25c(%ebx)
     24c:	5b                   	pop    %ebx
     24d:	58                   	pop    %eax
     24e:	c3                   	ret    

0000024f <ReadSysConfigTable32>:
     24f:	53                   	push   %ebx
     250:	8b 5c 24 08          	mov    0x8(%esp),%ebx
     254:	8b 83 5c 02 00 00    	mov    0x25c(%ebx),%eax
     25a:	5b                   	pop    %ebx
     25b:	c3                   	ret    

0000025c <Sys_Config_Table>:
     25c:	00 00                	add    %al,(%eax)
	...

00000260 <Interrupt_0>:
     260:	e8 25 27 00 00       	call   298a <Interrupt_Handler_0>
     265:	cf                   	iret   

00000266 <Interrupt_1>:
     266:	e8 33 27 00 00       	call   299e <Interrupt_Handler_1>
     26b:	cf                   	iret   

0000026c <Interrupt_2>:
     26c:	e8 41 27 00 00       	call   29b2 <Interrupt_Handler_2>
     271:	cf                   	iret   

00000272 <Interrupt_3>:
     272:	e8 4f 27 00 00       	call   29c6 <Interrupt_Handler_3>
     277:	cf                   	iret   

00000278 <Interrupt_4>:
     278:	e8 5d 27 00 00       	call   29da <Interrupt_Handler_4>
     27d:	cf                   	iret   

0000027e <Interrupt_5>:
     27e:	e8 6b 27 00 00       	call   29ee <Interrupt_Handler_5>
     283:	cf                   	iret   

00000284 <Interrupt_6>:
     284:	e8 79 27 00 00       	call   2a02 <Interrupt_Handler_6>
     289:	cf                   	iret   

0000028a <Interrupt_7>:
     28a:	e8 87 27 00 00       	call   2a16 <Interrupt_Handler_7>
     28f:	cf                   	iret   

00000290 <Interrupt_8>:
     290:	e8 95 27 00 00       	call   2a2a <Interrupt_Handler_8>
     295:	cf                   	iret   

00000296 <Interrupt_9>:
     296:	e8 bb 27 00 00       	call   2a56 <Interrupt_Handler_9>
     29b:	cf                   	iret   

0000029c <Interrupt_10>:
     29c:	e8 c9 27 00 00       	call   2a6a <Interrupt_Handler_10>
     2a1:	cf                   	iret   

000002a2 <Interrupt_11>:
     2a2:	e8 d7 27 00 00       	call   2a7e <Interrupt_Handler_11>
     2a7:	cf                   	iret   

000002a8 <Interrupt_12>:
     2a8:	e8 e5 27 00 00       	call   2a92 <Interrupt_Handler_12>
     2ad:	cf                   	iret   

000002ae <Interrupt_13>:
     2ae:	e8 f3 27 00 00       	call   2aa6 <Interrupt_Handler_13>
     2b3:	cf                   	iret   

000002b4 <Interrupt_14>:
     2b4:	e8 01 28 00 00       	call   2aba <Interrupt_Handler_14>
     2b9:	cf                   	iret   

000002ba <Interrupt_15>:
     2ba:	e8 0f 28 00 00       	call   2ace <Interrupt_Handler_15>
     2bf:	cf                   	iret   

000002c0 <Interrupt_16>:
     2c0:	e8 1d 28 00 00       	call   2ae2 <Interrupt_Handler_16>
     2c5:	cf                   	iret   

000002c6 <Interrupt_17>:
     2c6:	e8 2b 28 00 00       	call   2af6 <Interrupt_Handler_17>
     2cb:	cf                   	iret   

000002cc <Interrupt_18>:
     2cc:	e8 39 28 00 00       	call   2b0a <Interrupt_Handler_18>
     2d1:	cf                   	iret   

000002d2 <Interrupt_19>:
     2d2:	e8 47 28 00 00       	call   2b1e <Interrupt_Handler_19>
     2d7:	cf                   	iret   

000002d8 <Interrupt_20>:
     2d8:	e8 55 28 00 00       	call   2b32 <Interrupt_Handler_20>
     2dd:	cf                   	iret   

000002de <Interrupt_21>:
     2de:	e8 63 28 00 00       	call   2b46 <Interrupt_Handler_21>
     2e3:	cf                   	iret   

000002e4 <Interrupt_22>:
     2e4:	e8 71 28 00 00       	call   2b5a <Interrupt_Handler_22>
     2e9:	cf                   	iret   

000002ea <Interrupt_23>:
     2ea:	e8 7f 28 00 00       	call   2b6e <Interrupt_Handler_23>
     2ef:	cf                   	iret   

000002f0 <Interrupt_24>:
     2f0:	e8 8d 28 00 00       	call   2b82 <Interrupt_Handler_24>
     2f5:	cf                   	iret   

000002f6 <Interrupt_25>:
     2f6:	e8 9b 28 00 00       	call   2b96 <Interrupt_Handler_25>
     2fb:	cf                   	iret   

000002fc <Interrupt_26>:
     2fc:	e8 a9 28 00 00       	call   2baa <Interrupt_Handler_26>
     301:	cf                   	iret   

00000302 <Interrupt_27>:
     302:	e8 b7 28 00 00       	call   2bbe <Interrupt_Handler_27>
     307:	cf                   	iret   

00000308 <Interrupt_28>:
     308:	e8 c5 28 00 00       	call   2bd2 <Interrupt_Handler_28>
     30d:	cf                   	iret   

0000030e <Interrupt_29>:
     30e:	e8 d3 28 00 00       	call   2be6 <Interrupt_Handler_29>
     313:	cf                   	iret   

00000314 <Interrupt_30>:
     314:	e8 e1 28 00 00       	call   2bfa <Interrupt_Handler_30>
     319:	cf                   	iret   

0000031a <Interrupt_31>:
     31a:	e8 ef 28 00 00       	call   2c0e <Interrupt_Handler_31>
     31f:	cf                   	iret   

00000320 <Interrupt_32>:
     320:	e8 fd 28 00 00       	call   2c22 <Interrupt_Handler_32>
     325:	cf                   	iret   

00000326 <Interrupt_33>:
     326:	e8 0b 29 00 00       	call   2c36 <Interrupt_Handler_33>
     32b:	cf                   	iret   

0000032c <Interrupt_34>:
     32c:	e8 19 29 00 00       	call   2c4a <Interrupt_Handler_34>
     331:	cf                   	iret   

00000332 <Interrupt_35>:
     332:	e8 27 29 00 00       	call   2c5e <Interrupt_Handler_35>
     337:	cf                   	iret   

00000338 <Interrupt_36>:
     338:	e8 35 29 00 00       	call   2c72 <Interrupt_Handler_36>
     33d:	cf                   	iret   

0000033e <Interrupt_37>:
     33e:	e8 43 29 00 00       	call   2c86 <Interrupt_Handler_37>
     343:	cf                   	iret   

00000344 <Interrupt_38>:
     344:	e8 51 29 00 00       	call   2c9a <Interrupt_Handler_38>
     349:	cf                   	iret   

0000034a <Interrupt_39>:
     34a:	e8 5f 29 00 00       	call   2cae <Interrupt_Handler_39>
     34f:	cf                   	iret   

00000350 <Interrupt_40>:
     350:	e8 6d 29 00 00       	call   2cc2 <Interrupt_Handler_40>
     355:	cf                   	iret   

00000356 <Interrupt_41>:
     356:	e8 7b 29 00 00       	call   2cd6 <Interrupt_Handler_41>
     35b:	cf                   	iret   

0000035c <Interrupt_42>:
     35c:	e8 89 29 00 00       	call   2cea <Interrupt_Handler_42>
     361:	cf                   	iret   

00000362 <Interrupt_43>:
     362:	e8 97 29 00 00       	call   2cfe <Interrupt_Handler_43>
     367:	cf                   	iret   

00000368 <Interrupt_44>:
     368:	e8 a5 29 00 00       	call   2d12 <Interrupt_Handler_44>
     36d:	cf                   	iret   

0000036e <Interrupt_45>:
     36e:	e8 b3 29 00 00       	call   2d26 <Interrupt_Handler_45>
     373:	cf                   	iret   

00000374 <Interrupt_46>:
     374:	e8 c1 29 00 00       	call   2d3a <Interrupt_Handler_46>
     379:	cf                   	iret   

0000037a <Interrupt_47>:
     37a:	e8 cf 29 00 00       	call   2d4e <Interrupt_Handler_47>
     37f:	cf                   	iret   

00000380 <Interrupt_48>:
     380:	e8 dd 29 00 00       	call   2d62 <Interrupt_Handler_48>
     385:	cf                   	iret   

00000386 <Interrupt_49>:
     386:	e8 eb 29 00 00       	call   2d76 <Interrupt_Handler_49>
     38b:	cf                   	iret   

0000038c <Interrupt_50>:
     38c:	e8 f9 29 00 00       	call   2d8a <Interrupt_Handler_50>
     391:	cf                   	iret   

00000392 <Interrupt_51>:
     392:	e8 07 2a 00 00       	call   2d9e <Interrupt_Handler_51>
     397:	cf                   	iret   

00000398 <Interrupt_52>:
     398:	e8 15 2a 00 00       	call   2db2 <Interrupt_Handler_52>
     39d:	cf                   	iret   

0000039e <Interrupt_53>:
     39e:	e8 23 2a 00 00       	call   2dc6 <Interrupt_Handler_53>
     3a3:	cf                   	iret   

000003a4 <Interrupt_54>:
     3a4:	e8 31 2a 00 00       	call   2dda <Interrupt_Handler_54>
     3a9:	cf                   	iret   

000003aa <Interrupt_55>:
     3aa:	e8 3f 2a 00 00       	call   2dee <Interrupt_Handler_55>
     3af:	cf                   	iret   

000003b0 <Interrupt_56>:
     3b0:	e8 4d 2a 00 00       	call   2e02 <Interrupt_Handler_56>
     3b5:	cf                   	iret   

000003b6 <Interrupt_57>:
     3b6:	e8 5b 2a 00 00       	call   2e16 <Interrupt_Handler_57>
     3bb:	cf                   	iret   

000003bc <Interrupt_58>:
     3bc:	e8 69 2a 00 00       	call   2e2a <Interrupt_Handler_58>
     3c1:	cf                   	iret   

000003c2 <Interrupt_59>:
     3c2:	e8 77 2a 00 00       	call   2e3e <Interrupt_Handler_59>
     3c7:	cf                   	iret   

000003c8 <Interrupt_60>:
     3c8:	e8 85 2a 00 00       	call   2e52 <Interrupt_Handler_60>
     3cd:	cf                   	iret   

000003ce <Interrupt_61>:
     3ce:	e8 93 2a 00 00       	call   2e66 <Interrupt_Handler_61>
     3d3:	cf                   	iret   

000003d4 <Interrupt_62>:
     3d4:	e8 a1 2a 00 00       	call   2e7a <Interrupt_Handler_62>
     3d9:	cf                   	iret   

000003da <Interrupt_63>:
     3da:	e8 af 2a 00 00       	call   2e8e <Interrupt_Handler_63>
     3df:	cf                   	iret   

000003e0 <Interrupt_64>:
     3e0:	e8 bd 2a 00 00       	call   2ea2 <Interrupt_Handler_64>
     3e5:	cf                   	iret   

000003e6 <Interrupt_65>:
     3e6:	e8 cb 2a 00 00       	call   2eb6 <Interrupt_Handler_65>
     3eb:	cf                   	iret   

000003ec <Interrupt_66>:
     3ec:	e8 d9 2a 00 00       	call   2eca <Interrupt_Handler_66>
     3f1:	cf                   	iret   

000003f2 <Interrupt_67>:
     3f2:	e8 e7 2a 00 00       	call   2ede <Interrupt_Handler_67>
     3f7:	cf                   	iret   

000003f8 <Interrupt_68>:
     3f8:	e8 f5 2a 00 00       	call   2ef2 <Interrupt_Handler_68>
     3fd:	cf                   	iret   

000003fe <Interrupt_69>:
     3fe:	e8 03 2b 00 00       	call   2f06 <Interrupt_Handler_69>
     403:	cf                   	iret   

00000404 <Interrupt_70>:
     404:	e8 11 2b 00 00       	call   2f1a <Interrupt_Handler_70>
     409:	cf                   	iret   

0000040a <Interrupt_71>:
     40a:	e8 1f 2b 00 00       	call   2f2e <Interrupt_Handler_71>
     40f:	cf                   	iret   

00000410 <Interrupt_72>:
     410:	e8 2d 2b 00 00       	call   2f42 <Interrupt_Handler_72>
     415:	cf                   	iret   

00000416 <Interrupt_73>:
     416:	e8 3b 2b 00 00       	call   2f56 <Interrupt_Handler_73>
     41b:	cf                   	iret   

0000041c <Interrupt_74>:
     41c:	e8 49 2b 00 00       	call   2f6a <Interrupt_Handler_74>
     421:	cf                   	iret   

00000422 <Interrupt_75>:
     422:	e8 57 2b 00 00       	call   2f7e <Interrupt_Handler_75>
     427:	cf                   	iret   

00000428 <Interrupt_76>:
     428:	e8 65 2b 00 00       	call   2f92 <Interrupt_Handler_76>
     42d:	cf                   	iret   

0000042e <Interrupt_77>:
     42e:	e8 73 2b 00 00       	call   2fa6 <Interrupt_Handler_77>
     433:	cf                   	iret   

00000434 <Interrupt_78>:
     434:	e8 81 2b 00 00       	call   2fba <Interrupt_Handler_78>
     439:	cf                   	iret   

0000043a <Interrupt_79>:
     43a:	e8 8f 2b 00 00       	call   2fce <Interrupt_Handler_79>
     43f:	cf                   	iret   

00000440 <Interrupt_80>:
     440:	e8 9d 2b 00 00       	call   2fe2 <Interrupt_Handler_80>
     445:	cf                   	iret   

00000446 <Interrupt_81>:
     446:	e8 ab 2b 00 00       	call   2ff6 <Interrupt_Handler_81>
     44b:	cf                   	iret   

0000044c <Interrupt_82>:
     44c:	e8 b9 2b 00 00       	call   300a <Interrupt_Handler_82>
     451:	cf                   	iret   

00000452 <Interrupt_83>:
     452:	e8 c7 2b 00 00       	call   301e <Interrupt_Handler_83>
     457:	cf                   	iret   

00000458 <Interrupt_84>:
     458:	e8 d5 2b 00 00       	call   3032 <Interrupt_Handler_84>
     45d:	cf                   	iret   

0000045e <Interrupt_85>:
     45e:	e8 e3 2b 00 00       	call   3046 <Interrupt_Handler_85>
     463:	cf                   	iret   

00000464 <Interrupt_86>:
     464:	e8 f1 2b 00 00       	call   305a <Interrupt_Handler_86>
     469:	cf                   	iret   

0000046a <Interrupt_87>:
     46a:	e8 ff 2b 00 00       	call   306e <Interrupt_Handler_87>
     46f:	cf                   	iret   

00000470 <Interrupt_88>:
     470:	e8 0d 2c 00 00       	call   3082 <Interrupt_Handler_88>
     475:	cf                   	iret   

00000476 <Interrupt_89>:
     476:	e8 1b 2c 00 00       	call   3096 <Interrupt_Handler_89>
     47b:	cf                   	iret   

0000047c <Interrupt_90>:
     47c:	e8 29 2c 00 00       	call   30aa <Interrupt_Handler_90>
     481:	cf                   	iret   

00000482 <Interrupt_91>:
     482:	e8 37 2c 00 00       	call   30be <Interrupt_Handler_91>
     487:	cf                   	iret   

00000488 <Interrupt_92>:
     488:	e8 45 2c 00 00       	call   30d2 <Interrupt_Handler_92>
     48d:	cf                   	iret   

0000048e <Interrupt_93>:
     48e:	e8 53 2c 00 00       	call   30e6 <Interrupt_Handler_93>
     493:	cf                   	iret   

00000494 <Interrupt_94>:
     494:	e8 61 2c 00 00       	call   30fa <Interrupt_Handler_94>
     499:	cf                   	iret   

0000049a <Interrupt_95>:
     49a:	e8 6f 2c 00 00       	call   310e <Interrupt_Handler_95>
     49f:	cf                   	iret   

000004a0 <Interrupt_96>:
     4a0:	e8 7d 2c 00 00       	call   3122 <Interrupt_Handler_96>
     4a5:	cf                   	iret   

000004a6 <Interrupt_97>:
     4a6:	e8 8b 2c 00 00       	call   3136 <Interrupt_Handler_97>
     4ab:	cf                   	iret   

000004ac <Interrupt_98>:
     4ac:	e8 99 2c 00 00       	call   314a <Interrupt_Handler_98>
     4b1:	cf                   	iret   

000004b2 <Interrupt_99>:
     4b2:	e8 a7 2c 00 00       	call   315e <Interrupt_Handler_99>
     4b7:	cf                   	iret   

000004b8 <Interrupt_100>:
     4b8:	e8 b5 2c 00 00       	call   3172 <Interrupt_Handler_100>
     4bd:	cf                   	iret   

000004be <Interrupt_101>:
     4be:	e8 c3 2c 00 00       	call   3186 <Interrupt_Handler_101>
     4c3:	cf                   	iret   

000004c4 <Interrupt_102>:
     4c4:	e8 d1 2c 00 00       	call   319a <Interrupt_Handler_102>
     4c9:	cf                   	iret   

000004ca <Interrupt_103>:
     4ca:	e8 df 2c 00 00       	call   31ae <Interrupt_Handler_103>
     4cf:	cf                   	iret   

000004d0 <Interrupt_104>:
     4d0:	e8 ed 2c 00 00       	call   31c2 <Interrupt_Handler_104>
     4d5:	cf                   	iret   

000004d6 <Interrupt_105>:
     4d6:	e8 fb 2c 00 00       	call   31d6 <Interrupt_Handler_105>
     4db:	cf                   	iret   

000004dc <Interrupt_106>:
     4dc:	e8 09 2d 00 00       	call   31ea <Interrupt_Handler_106>
     4e1:	cf                   	iret   

000004e2 <Interrupt_107>:
     4e2:	e8 17 2d 00 00       	call   31fe <Interrupt_Handler_107>
     4e7:	cf                   	iret   

000004e8 <Interrupt_108>:
     4e8:	e8 25 2d 00 00       	call   3212 <Interrupt_Handler_108>
     4ed:	cf                   	iret   

000004ee <Interrupt_109>:
     4ee:	e8 33 2d 00 00       	call   3226 <Interrupt_Handler_109>
     4f3:	cf                   	iret   

000004f4 <Interrupt_110>:
     4f4:	e8 41 2d 00 00       	call   323a <Interrupt_Handler_110>
     4f9:	cf                   	iret   

000004fa <Interrupt_111>:
     4fa:	e8 4f 2d 00 00       	call   324e <Interrupt_Handler_111>
     4ff:	cf                   	iret   

00000500 <Interrupt_112>:
     500:	e8 5d 2d 00 00       	call   3262 <Interrupt_Handler_112>
     505:	cf                   	iret   

00000506 <Interrupt_113>:
     506:	e8 6b 2d 00 00       	call   3276 <Interrupt_Handler_113>
     50b:	cf                   	iret   

0000050c <Interrupt_114>:
     50c:	e8 79 2d 00 00       	call   328a <Interrupt_Handler_114>
     511:	cf                   	iret   

00000512 <Interrupt_115>:
     512:	e8 87 2d 00 00       	call   329e <Interrupt_Handler_115>
     517:	cf                   	iret   

00000518 <Interrupt_116>:
     518:	e8 95 2d 00 00       	call   32b2 <Interrupt_Handler_116>
     51d:	cf                   	iret   

0000051e <Interrupt_117>:
     51e:	e8 a3 2d 00 00       	call   32c6 <Interrupt_Handler_117>
     523:	cf                   	iret   

00000524 <Interrupt_118>:
     524:	e8 b1 2d 00 00       	call   32da <Interrupt_Handler_118>
     529:	cf                   	iret   

0000052a <Interrupt_119>:
     52a:	e8 bf 2d 00 00       	call   32ee <Interrupt_Handler_119>
     52f:	cf                   	iret   

00000530 <Interrupt_120>:
     530:	e8 cd 2d 00 00       	call   3302 <Interrupt_Handler_120>
     535:	cf                   	iret   

00000536 <Interrupt_121>:
     536:	e8 db 2d 00 00       	call   3316 <Interrupt_Handler_121>
     53b:	cf                   	iret   

0000053c <Interrupt_122>:
     53c:	e8 e9 2d 00 00       	call   332a <Interrupt_Handler_122>
     541:	cf                   	iret   

00000542 <Interrupt_123>:
     542:	e8 f7 2d 00 00       	call   333e <Interrupt_Handler_123>
     547:	cf                   	iret   

00000548 <Interrupt_124>:
     548:	e8 05 2e 00 00       	call   3352 <Interrupt_Handler_124>
     54d:	cf                   	iret   

0000054e <Interrupt_125>:
     54e:	e8 13 2e 00 00       	call   3366 <Interrupt_Handler_125>
     553:	cf                   	iret   

00000554 <Interrupt_126>:
     554:	e8 21 2e 00 00       	call   337a <Interrupt_Handler_126>
     559:	cf                   	iret   

0000055a <Interrupt_127>:
     55a:	e8 2f 2e 00 00       	call   338e <Interrupt_Handler_127>
     55f:	cf                   	iret   

00000560 <Interrupt_128>:
     560:	e8 3d 2e 00 00       	call   33a2 <Interrupt_Handler_128>
     565:	cf                   	iret   

00000566 <Interrupt_129>:
     566:	e8 4b 2e 00 00       	call   33b6 <Interrupt_Handler_129>
     56b:	cf                   	iret   

0000056c <Interrupt_130>:
     56c:	e8 59 2e 00 00       	call   33ca <Interrupt_Handler_130>
     571:	cf                   	iret   

00000572 <Interrupt_131>:
     572:	e8 67 2e 00 00       	call   33de <Interrupt_Handler_131>
     577:	cf                   	iret   

00000578 <Interrupt_132>:
     578:	e8 75 2e 00 00       	call   33f2 <Interrupt_Handler_132>
     57d:	cf                   	iret   

0000057e <Interrupt_133>:
     57e:	e8 83 2e 00 00       	call   3406 <Interrupt_Handler_133>
     583:	cf                   	iret   

00000584 <Interrupt_134>:
     584:	e8 91 2e 00 00       	call   341a <Interrupt_Handler_134>
     589:	cf                   	iret   

0000058a <Interrupt_135>:
     58a:	e8 9f 2e 00 00       	call   342e <Interrupt_Handler_135>
     58f:	cf                   	iret   

00000590 <Interrupt_136>:
     590:	e8 ad 2e 00 00       	call   3442 <Interrupt_Handler_136>
     595:	cf                   	iret   

00000596 <Interrupt_137>:
     596:	e8 bb 2e 00 00       	call   3456 <Interrupt_Handler_137>
     59b:	cf                   	iret   

0000059c <Interrupt_138>:
     59c:	e8 c9 2e 00 00       	call   346a <Interrupt_Handler_138>
     5a1:	cf                   	iret   

000005a2 <Interrupt_139>:
     5a2:	e8 d7 2e 00 00       	call   347e <Interrupt_Handler_139>
     5a7:	cf                   	iret   

000005a8 <Interrupt_140>:
     5a8:	e8 e5 2e 00 00       	call   3492 <Interrupt_Handler_140>
     5ad:	cf                   	iret   

000005ae <Interrupt_141>:
     5ae:	e8 f3 2e 00 00       	call   34a6 <Interrupt_Handler_141>
     5b3:	cf                   	iret   

000005b4 <Interrupt_142>:
     5b4:	e8 01 2f 00 00       	call   34ba <Interrupt_Handler_142>
     5b9:	cf                   	iret   

000005ba <Interrupt_143>:
     5ba:	e8 0f 2f 00 00       	call   34ce <Interrupt_Handler_143>
     5bf:	cf                   	iret   

000005c0 <Interrupt_144>:
     5c0:	e8 1d 2f 00 00       	call   34e2 <Interrupt_Handler_144>
     5c5:	cf                   	iret   

000005c6 <Interrupt_145>:
     5c6:	e8 2b 2f 00 00       	call   34f6 <Interrupt_Handler_145>
     5cb:	cf                   	iret   

000005cc <Interrupt_146>:
     5cc:	e8 39 2f 00 00       	call   350a <Interrupt_Handler_146>
     5d1:	cf                   	iret   

000005d2 <Interrupt_147>:
     5d2:	e8 47 2f 00 00       	call   351e <Interrupt_Handler_147>
     5d7:	cf                   	iret   

000005d8 <Interrupt_148>:
     5d8:	e8 55 2f 00 00       	call   3532 <Interrupt_Handler_148>
     5dd:	cf                   	iret   

000005de <Interrupt_149>:
     5de:	e8 63 2f 00 00       	call   3546 <Interrupt_Handler_149>
     5e3:	cf                   	iret   

000005e4 <Interrupt_150>:
     5e4:	e8 71 2f 00 00       	call   355a <Interrupt_Handler_150>
     5e9:	cf                   	iret   

000005ea <Interrupt_151>:
     5ea:	e8 7f 2f 00 00       	call   356e <Interrupt_Handler_151>
     5ef:	cf                   	iret   

000005f0 <Interrupt_152>:
     5f0:	e8 8d 2f 00 00       	call   3582 <Interrupt_Handler_152>
     5f5:	cf                   	iret   

000005f6 <Interrupt_153>:
     5f6:	e8 9b 2f 00 00       	call   3596 <Interrupt_Handler_153>
     5fb:	cf                   	iret   

000005fc <Interrupt_154>:
     5fc:	e8 a9 2f 00 00       	call   35aa <Interrupt_Handler_154>
     601:	cf                   	iret   

00000602 <Interrupt_155>:
     602:	e8 b7 2f 00 00       	call   35be <Interrupt_Handler_155>
     607:	cf                   	iret   

00000608 <Interrupt_156>:
     608:	e8 c5 2f 00 00       	call   35d2 <Interrupt_Handler_156>
     60d:	cf                   	iret   

0000060e <Interrupt_157>:
     60e:	e8 d3 2f 00 00       	call   35e6 <Interrupt_Handler_157>
     613:	cf                   	iret   

00000614 <Interrupt_158>:
     614:	e8 e1 2f 00 00       	call   35fa <Interrupt_Handler_158>
     619:	cf                   	iret   

0000061a <Interrupt_159>:
     61a:	e8 ef 2f 00 00       	call   360e <Interrupt_Handler_159>
     61f:	cf                   	iret   

00000620 <Interrupt_160>:
     620:	e8 fd 2f 00 00       	call   3622 <Interrupt_Handler_160>
     625:	cf                   	iret   

00000626 <Interrupt_161>:
     626:	e8 0b 30 00 00       	call   3636 <Interrupt_Handler_161>
     62b:	cf                   	iret   

0000062c <Interrupt_162>:
     62c:	e8 19 30 00 00       	call   364a <Interrupt_Handler_162>
     631:	cf                   	iret   

00000632 <Interrupt_163>:
     632:	e8 27 30 00 00       	call   365e <Interrupt_Handler_163>
     637:	cf                   	iret   

00000638 <Interrupt_164>:
     638:	e8 35 30 00 00       	call   3672 <Interrupt_Handler_164>
     63d:	cf                   	iret   

0000063e <Interrupt_165>:
     63e:	e8 43 30 00 00       	call   3686 <Interrupt_Handler_165>
     643:	cf                   	iret   

00000644 <Interrupt_166>:
     644:	e8 51 30 00 00       	call   369a <Interrupt_Handler_166>
     649:	cf                   	iret   

0000064a <Interrupt_167>:
     64a:	e8 5f 30 00 00       	call   36ae <Interrupt_Handler_167>
     64f:	cf                   	iret   

00000650 <Interrupt_168>:
     650:	e8 6d 30 00 00       	call   36c2 <Interrupt_Handler_168>
     655:	cf                   	iret   

00000656 <Interrupt_169>:
     656:	e8 7b 30 00 00       	call   36d6 <Interrupt_Handler_169>
     65b:	cf                   	iret   

0000065c <Interrupt_170>:
     65c:	e8 89 30 00 00       	call   36ea <Interrupt_Handler_170>
     661:	cf                   	iret   

00000662 <Interrupt_171>:
     662:	e8 97 30 00 00       	call   36fe <Interrupt_Handler_171>
     667:	cf                   	iret   

00000668 <Interrupt_172>:
     668:	e8 a5 30 00 00       	call   3712 <Interrupt_Handler_172>
     66d:	cf                   	iret   

0000066e <Interrupt_173>:
     66e:	e8 b3 30 00 00       	call   3726 <Interrupt_Handler_173>
     673:	cf                   	iret   

00000674 <Interrupt_174>:
     674:	e8 c1 30 00 00       	call   373a <Interrupt_Handler_174>
     679:	cf                   	iret   

0000067a <Interrupt_175>:
     67a:	e8 cf 30 00 00       	call   374e <Interrupt_Handler_175>
     67f:	cf                   	iret   

00000680 <Interrupt_176>:
     680:	e8 dd 30 00 00       	call   3762 <Interrupt_Handler_176>
     685:	cf                   	iret   

00000686 <Interrupt_177>:
     686:	e8 eb 30 00 00       	call   3776 <Interrupt_Handler_177>
     68b:	cf                   	iret   

0000068c <Interrupt_178>:
     68c:	e8 f9 30 00 00       	call   378a <Interrupt_Handler_178>
     691:	cf                   	iret   

00000692 <Interrupt_179>:
     692:	e8 07 31 00 00       	call   379e <Interrupt_Handler_179>
     697:	cf                   	iret   

00000698 <Interrupt_180>:
     698:	e8 15 31 00 00       	call   37b2 <Interrupt_Handler_180>
     69d:	cf                   	iret   

0000069e <Interrupt_181>:
     69e:	e8 23 31 00 00       	call   37c6 <Interrupt_Handler_181>
     6a3:	cf                   	iret   

000006a4 <Interrupt_182>:
     6a4:	e8 31 31 00 00       	call   37da <Interrupt_Handler_182>
     6a9:	cf                   	iret   

000006aa <Interrupt_183>:
     6aa:	e8 3f 31 00 00       	call   37ee <Interrupt_Handler_183>
     6af:	cf                   	iret   

000006b0 <Interrupt_184>:
     6b0:	e8 4d 31 00 00       	call   3802 <Interrupt_Handler_184>
     6b5:	cf                   	iret   

000006b6 <Interrupt_185>:
     6b6:	e8 5b 31 00 00       	call   3816 <Interrupt_Handler_185>
     6bb:	cf                   	iret   

000006bc <Interrupt_186>:
     6bc:	e8 69 31 00 00       	call   382a <Interrupt_Handler_186>
     6c1:	cf                   	iret   

000006c2 <Interrupt_187>:
     6c2:	e8 77 31 00 00       	call   383e <Interrupt_Handler_187>
     6c7:	cf                   	iret   

000006c8 <Interrupt_188>:
     6c8:	e8 85 31 00 00       	call   3852 <Interrupt_Handler_188>
     6cd:	cf                   	iret   

000006ce <Interrupt_189>:
     6ce:	e8 93 31 00 00       	call   3866 <Interrupt_Handler_189>
     6d3:	cf                   	iret   

000006d4 <Interrupt_190>:
     6d4:	e8 a1 31 00 00       	call   387a <Interrupt_Handler_190>
     6d9:	cf                   	iret   

000006da <Interrupt_191>:
     6da:	e8 af 31 00 00       	call   388e <Interrupt_Handler_191>
     6df:	cf                   	iret   

000006e0 <Interrupt_192>:
     6e0:	e8 bd 31 00 00       	call   38a2 <Interrupt_Handler_192>
     6e5:	cf                   	iret   

000006e6 <Interrupt_193>:
     6e6:	e8 cb 31 00 00       	call   38b6 <Interrupt_Handler_193>
     6eb:	cf                   	iret   

000006ec <Interrupt_194>:
     6ec:	e8 d9 31 00 00       	call   38ca <Interrupt_Handler_194>
     6f1:	cf                   	iret   

000006f2 <Interrupt_195>:
     6f2:	e8 e7 31 00 00       	call   38de <Interrupt_Handler_195>
     6f7:	cf                   	iret   

000006f8 <Interrupt_196>:
     6f8:	e8 f5 31 00 00       	call   38f2 <Interrupt_Handler_196>
     6fd:	cf                   	iret   

000006fe <Interrupt_197>:
     6fe:	e8 03 32 00 00       	call   3906 <Interrupt_Handler_197>
     703:	cf                   	iret   

00000704 <Interrupt_198>:
     704:	e8 11 32 00 00       	call   391a <Interrupt_Handler_198>
     709:	cf                   	iret   

0000070a <Interrupt_199>:
     70a:	e8 1f 32 00 00       	call   392e <Interrupt_Handler_199>
     70f:	cf                   	iret   

00000710 <Interrupt_200>:
     710:	e8 2d 32 00 00       	call   3942 <Interrupt_Handler_200>
     715:	cf                   	iret   

00000716 <Interrupt_201>:
     716:	e8 3b 32 00 00       	call   3956 <Interrupt_Handler_201>
     71b:	cf                   	iret   

0000071c <Interrupt_202>:
     71c:	e8 49 32 00 00       	call   396a <Interrupt_Handler_202>
     721:	cf                   	iret   

00000722 <Interrupt_203>:
     722:	e8 57 32 00 00       	call   397e <Interrupt_Handler_203>
     727:	cf                   	iret   

00000728 <Interrupt_204>:
     728:	e8 65 32 00 00       	call   3992 <Interrupt_Handler_204>
     72d:	cf                   	iret   

0000072e <Interrupt_205>:
     72e:	e8 73 32 00 00       	call   39a6 <Interrupt_Handler_205>
     733:	cf                   	iret   

00000734 <Interrupt_206>:
     734:	e8 81 32 00 00       	call   39ba <Interrupt_Handler_206>
     739:	cf                   	iret   

0000073a <Interrupt_207>:
     73a:	e8 8f 32 00 00       	call   39ce <Interrupt_Handler_207>
     73f:	cf                   	iret   

00000740 <Interrupt_208>:
     740:	e8 9d 32 00 00       	call   39e2 <Interrupt_Handler_208>
     745:	cf                   	iret   

00000746 <Interrupt_209>:
     746:	e8 ab 32 00 00       	call   39f6 <Interrupt_Handler_209>
     74b:	cf                   	iret   

0000074c <Interrupt_210>:
     74c:	e8 b9 32 00 00       	call   3a0a <Interrupt_Handler_210>
     751:	cf                   	iret   

00000752 <Interrupt_211>:
     752:	e8 c7 32 00 00       	call   3a1e <Interrupt_Handler_211>
     757:	cf                   	iret   

00000758 <Interrupt_212>:
     758:	e8 d5 32 00 00       	call   3a32 <Interrupt_Handler_212>
     75d:	cf                   	iret   

0000075e <Interrupt_213>:
     75e:	e8 e3 32 00 00       	call   3a46 <Interrupt_Handler_213>
     763:	cf                   	iret   

00000764 <Interrupt_214>:
     764:	e8 f1 32 00 00       	call   3a5a <Interrupt_Handler_214>
     769:	cf                   	iret   

0000076a <Interrupt_215>:
     76a:	e8 ff 32 00 00       	call   3a6e <Interrupt_Handler_215>
     76f:	cf                   	iret   

00000770 <Interrupt_216>:
     770:	e8 0d 33 00 00       	call   3a82 <Interrupt_Handler_216>
     775:	cf                   	iret   

00000776 <Interrupt_217>:
     776:	e8 1b 33 00 00       	call   3a96 <Interrupt_Handler_217>
     77b:	cf                   	iret   

0000077c <Interrupt_218>:
     77c:	e8 29 33 00 00       	call   3aaa <Interrupt_Handler_218>
     781:	cf                   	iret   

00000782 <Interrupt_219>:
     782:	e8 37 33 00 00       	call   3abe <Interrupt_Handler_219>
     787:	cf                   	iret   

00000788 <Interrupt_220>:
     788:	e8 45 33 00 00       	call   3ad2 <Interrupt_Handler_220>
     78d:	cf                   	iret   

0000078e <Interrupt_221>:
     78e:	e8 53 33 00 00       	call   3ae6 <Interrupt_Handler_221>
     793:	cf                   	iret   

00000794 <Interrupt_222>:
     794:	e8 61 33 00 00       	call   3afa <Interrupt_Handler_222>
     799:	cf                   	iret   

0000079a <Interrupt_223>:
     79a:	e8 6f 33 00 00       	call   3b0e <Interrupt_Handler_223>
     79f:	cf                   	iret   

000007a0 <Interrupt_224>:
     7a0:	e8 7d 33 00 00       	call   3b22 <Interrupt_Handler_224>
     7a5:	cf                   	iret   

000007a6 <Interrupt_225>:
     7a6:	e8 8b 33 00 00       	call   3b36 <Interrupt_Handler_225>
     7ab:	cf                   	iret   

000007ac <Interrupt_226>:
     7ac:	e8 99 33 00 00       	call   3b4a <Interrupt_Handler_226>
     7b1:	cf                   	iret   

000007b2 <Interrupt_227>:
     7b2:	e8 a7 33 00 00       	call   3b5e <Interrupt_Handler_227>
     7b7:	cf                   	iret   

000007b8 <Interrupt_228>:
     7b8:	e8 b5 33 00 00       	call   3b72 <Interrupt_Handler_228>
     7bd:	cf                   	iret   

000007be <Interrupt_229>:
     7be:	e8 c3 33 00 00       	call   3b86 <Interrupt_Handler_229>
     7c3:	cf                   	iret   

000007c4 <Interrupt_230>:
     7c4:	e8 d1 33 00 00       	call   3b9a <Interrupt_Handler_230>
     7c9:	cf                   	iret   

000007ca <Interrupt_231>:
     7ca:	e8 df 33 00 00       	call   3bae <Interrupt_Handler_231>
     7cf:	cf                   	iret   

000007d0 <Interrupt_232>:
     7d0:	e8 ed 33 00 00       	call   3bc2 <Interrupt_Handler_232>
     7d5:	cf                   	iret   

000007d6 <Interrupt_233>:
     7d6:	e8 fb 33 00 00       	call   3bd6 <Interrupt_Handler_233>
     7db:	cf                   	iret   

000007dc <Interrupt_234>:
     7dc:	e8 09 34 00 00       	call   3bea <Interrupt_Handler_234>
     7e1:	cf                   	iret   

000007e2 <Interrupt_235>:
     7e2:	e8 17 34 00 00       	call   3bfe <Interrupt_Handler_235>
     7e7:	cf                   	iret   

000007e8 <Interrupt_236>:
     7e8:	e8 25 34 00 00       	call   3c12 <Interrupt_Handler_236>
     7ed:	cf                   	iret   

000007ee <Interrupt_237>:
     7ee:	e8 33 34 00 00       	call   3c26 <Interrupt_Handler_237>
     7f3:	cf                   	iret   

000007f4 <Interrupt_238>:
     7f4:	e8 41 34 00 00       	call   3c3a <Interrupt_Handler_238>
     7f9:	cf                   	iret   

000007fa <Interrupt_239>:
     7fa:	e8 4f 34 00 00       	call   3c4e <Interrupt_Handler_239>
     7ff:	cf                   	iret   

00000800 <Interrupt_240>:
     800:	e8 5d 34 00 00       	call   3c62 <Interrupt_Handler_240>
     805:	cf                   	iret   

00000806 <Interrupt_241>:
     806:	e8 6b 34 00 00       	call   3c76 <Interrupt_Handler_241>
     80b:	cf                   	iret   

0000080c <Interrupt_242>:
     80c:	e8 79 34 00 00       	call   3c8a <Interrupt_Handler_242>
     811:	cf                   	iret   

00000812 <Interrupt_243>:
     812:	e8 87 34 00 00       	call   3c9e <Interrupt_Handler_243>
     817:	cf                   	iret   

00000818 <Interrupt_244>:
     818:	e8 95 34 00 00       	call   3cb2 <Interrupt_Handler_244>
     81d:	cf                   	iret   

0000081e <Interrupt_245>:
     81e:	e8 a3 34 00 00       	call   3cc6 <Interrupt_Handler_245>
     823:	cf                   	iret   

00000824 <Interrupt_246>:
     824:	e8 b1 34 00 00       	call   3cda <Interrupt_Handler_246>
     829:	cf                   	iret   

0000082a <Interrupt_247>:
     82a:	e8 bf 34 00 00       	call   3cee <Interrupt_Handler_247>
     82f:	cf                   	iret   

00000830 <Interrupt_248>:
     830:	e8 cd 34 00 00       	call   3d02 <Interrupt_Handler_248>
     835:	cf                   	iret   

00000836 <Interrupt_249>:
     836:	e8 db 34 00 00       	call   3d16 <Interrupt_Handler_249>
     83b:	cf                   	iret   

0000083c <Interrupt_250>:
     83c:	e8 e9 34 00 00       	call   3d2a <Interrupt_Handler_250>
     841:	cf                   	iret   

00000842 <Interrupt_251>:
     842:	e8 f7 34 00 00       	call   3d3e <Interrupt_Handler_251>
     847:	cf                   	iret   

00000848 <Interrupt_252>:
     848:	e8 05 35 00 00       	call   3d52 <Interrupt_Handler_252>
     84d:	cf                   	iret   

0000084e <Interrupt_253>:
     84e:	e8 13 35 00 00       	call   3d66 <Interrupt_Handler_253>
     853:	cf                   	iret   

00000854 <Interrupt_254>:
     854:	e8 21 35 00 00       	call   3d7a <Interrupt_Handler_254>
     859:	cf                   	iret   

0000085a <Interrupt_255>:
     85a:	e8 2f 35 00 00       	call   3d8e <Interrupt_Handler_255>
     85f:	cf                   	iret   

00000860 <SetSegmentSelector>:
     860:	55                   	push   %ebp
     861:	89 e5                	mov    %esp,%ebp
     863:	8b 45 08             	mov    0x8(%ebp),%eax
     866:	8d 14 c5 00 00 00 00 	lea    0x0(,%eax,8),%edx
     86d:	8b 45 0c             	mov    0xc(%ebp),%eax
     870:	83 e0 07             	and    $0x7,%eax
     873:	09 d0                	or     %edx,%eax
     875:	5d                   	pop    %ebp
     876:	c3                   	ret    

00000877 <GetSegmentSelector>:
     877:	55                   	push   %ebp
     878:	89 e5                	mov    %esp,%ebp
     87a:	83 ec 10             	sub    $0x10,%esp
     87d:	8b 45 0c             	mov    0xc(%ebp),%eax
     880:	c1 e8 03             	shr    $0x3,%eax
     883:	89 45 f8             	mov    %eax,-0x8(%ebp)
     886:	8b 45 0c             	mov    0xc(%ebp),%eax
     889:	83 e0 07             	and    $0x7,%eax
     88c:	89 45 fc             	mov    %eax,-0x4(%ebp)
     88f:	8b 4d 08             	mov    0x8(%ebp),%ecx
     892:	8b 45 f8             	mov    -0x8(%ebp),%eax
     895:	8b 55 fc             	mov    -0x4(%ebp),%edx
     898:	89 01                	mov    %eax,(%ecx)
     89a:	89 51 04             	mov    %edx,0x4(%ecx)
     89d:	8b 45 08             	mov    0x8(%ebp),%eax
     8a0:	c9                   	leave  
     8a1:	c2 04 00             	ret    $0x4

000008a4 <GetBootID>:
     8a4:	55                   	push   %ebp
     8a5:	89 e5                	mov    %esp,%ebp
     8a7:	53                   	push   %ebx
     8a8:	83 ec 24             	sub    $0x24,%esp
     8ab:	c7 45 f4 00 00 00 00 	movl   $0x0,-0xc(%ebp)
     8b2:	eb 1f                	jmp    8d3 <GetBootID+0x2f>
     8b4:	8b 45 f4             	mov    -0xc(%ebp),%eax
     8b7:	8b 55 08             	mov    0x8(%ebp),%edx
     8ba:	8d 1c 02             	lea    (%edx,%eax,1),%ebx
     8bd:	8b 45 f4             	mov    -0xc(%ebp),%eax
     8c0:	05 03 7c 00 00       	add    $0x7c03,%eax
     8c5:	89 04 24             	mov    %eax,(%esp)
     8c8:	e8 ac f8 ff ff       	call   179 <ReadPhysicsMemory8>
     8cd:	88 03                	mov    %al,(%ebx)
     8cf:	83 45 f4 01          	addl   $0x1,-0xc(%ebp)
     8d3:	83 7d f4 0f          	cmpl   $0xf,-0xc(%ebp)
     8d7:	76 db                	jbe    8b4 <GetBootID+0x10>
     8d9:	83 c4 24             	add    $0x24,%esp
     8dc:	5b                   	pop    %ebx
     8dd:	5d                   	pop    %ebp
     8de:	c3                   	ret    

000008df <__udivdi3>:
     8df:	55                   	push   %ebp
     8e0:	89 e5                	mov    %esp,%ebp
     8e2:	83 ec 48             	sub    $0x48,%esp
     8e5:	8b 45 08             	mov    0x8(%ebp),%eax
     8e8:	89 45 c0             	mov    %eax,-0x40(%ebp)
     8eb:	8b 45 0c             	mov    0xc(%ebp),%eax
     8ee:	89 45 c4             	mov    %eax,-0x3c(%ebp)
     8f1:	8b 45 10             	mov    0x10(%ebp),%eax
     8f4:	89 45 b8             	mov    %eax,-0x48(%ebp)
     8f7:	8b 45 14             	mov    0x14(%ebp),%eax
     8fa:	89 45 bc             	mov    %eax,-0x44(%ebp)
     8fd:	e8 dc f7 ff ff       	call   de <ClrI>
     902:	8b 45 c0             	mov    -0x40(%ebp),%eax
     905:	8b 55 c4             	mov    -0x3c(%ebp),%edx
     908:	09 d0                	or     %edx,%eax
     90a:	85 c0                	test   %eax,%eax
     90c:	75 0f                	jne    91d <__udivdi3+0x3e>
     90e:	b8 00 00 00 00       	mov    $0x0,%eax
     913:	ba 00 00 00 00       	mov    $0x0,%edx
     918:	e9 9e 01 00 00       	jmp    abb <__udivdi3+0x1dc>
     91d:	8b 45 b8             	mov    -0x48(%ebp),%eax
     920:	8b 55 bc             	mov    -0x44(%ebp),%edx
     923:	09 d0                	or     %edx,%eax
     925:	85 c0                	test   %eax,%eax
     927:	75 0f                	jne    938 <__udivdi3+0x59>
     929:	b8 00 00 00 00       	mov    $0x0,%eax
     92e:	ba 00 00 00 00       	mov    $0x0,%edx
     933:	e9 83 01 00 00       	jmp    abb <__udivdi3+0x1dc>
     938:	8b 45 c0             	mov    -0x40(%ebp),%eax
     93b:	8b 55 c4             	mov    -0x3c(%ebp),%edx
     93e:	3b 55 bc             	cmp    -0x44(%ebp),%edx
     941:	77 19                	ja     95c <__udivdi3+0x7d>
     943:	3b 55 bc             	cmp    -0x44(%ebp),%edx
     946:	72 05                	jb     94d <__udivdi3+0x6e>
     948:	3b 45 b8             	cmp    -0x48(%ebp),%eax
     94b:	73 0f                	jae    95c <__udivdi3+0x7d>
     94d:	b8 00 00 00 00       	mov    $0x0,%eax
     952:	ba 00 00 00 00       	mov    $0x0,%edx
     957:	e9 5f 01 00 00       	jmp    abb <__udivdi3+0x1dc>
     95c:	8b 45 c0             	mov    -0x40(%ebp),%eax
     95f:	8b 55 c4             	mov    -0x3c(%ebp),%edx
     962:	89 45 e8             	mov    %eax,-0x18(%ebp)
     965:	89 55 ec             	mov    %edx,-0x14(%ebp)
     968:	c7 45 e4 00 00 00 00 	movl   $0x0,-0x1c(%ebp)
     96f:	c7 45 f4 00 00 00 00 	movl   $0x0,-0xc(%ebp)
     976:	eb 29                	jmp    9a1 <__udivdi3+0xc2>
     978:	8b 45 e8             	mov    -0x18(%ebp),%eax
     97b:	83 e0 01             	and    $0x1,%eax
     97e:	84 c0                	test   %al,%al
     980:	74 09                	je     98b <__udivdi3+0xac>
     982:	8b 45 f4             	mov    -0xc(%ebp),%eax
     985:	83 c0 01             	add    $0x1,%eax
     988:	89 45 e4             	mov    %eax,-0x1c(%ebp)
     98b:	8b 45 e8             	mov    -0x18(%ebp),%eax
     98e:	8b 55 ec             	mov    -0x14(%ebp),%edx
     991:	0f ac d0 01          	shrd   $0x1,%edx,%eax
     995:	d1 ea                	shr    %edx
     997:	89 45 e8             	mov    %eax,-0x18(%ebp)
     99a:	89 55 ec             	mov    %edx,-0x14(%ebp)
     99d:	83 45 f4 01          	addl   $0x1,-0xc(%ebp)
     9a1:	83 7d f4 3e          	cmpl   $0x3e,-0xc(%ebp)
     9a5:	76 d1                	jbe    978 <__udivdi3+0x99>
     9a7:	8b 45 b8             	mov    -0x48(%ebp),%eax
     9aa:	8b 55 bc             	mov    -0x44(%ebp),%edx
     9ad:	89 45 e8             	mov    %eax,-0x18(%ebp)
     9b0:	89 55 ec             	mov    %edx,-0x14(%ebp)
     9b3:	c7 45 e0 00 00 00 00 	movl   $0x0,-0x20(%ebp)
     9ba:	c7 45 f4 00 00 00 00 	movl   $0x0,-0xc(%ebp)
     9c1:	eb 29                	jmp    9ec <__udivdi3+0x10d>
     9c3:	8b 45 e8             	mov    -0x18(%ebp),%eax
     9c6:	83 e0 01             	and    $0x1,%eax
     9c9:	84 c0                	test   %al,%al
     9cb:	74 09                	je     9d6 <__udivdi3+0xf7>
     9cd:	8b 45 f4             	mov    -0xc(%ebp),%eax
     9d0:	83 c0 01             	add    $0x1,%eax
     9d3:	89 45 e0             	mov    %eax,-0x20(%ebp)
     9d6:	8b 45 e8             	mov    -0x18(%ebp),%eax
     9d9:	8b 55 ec             	mov    -0x14(%ebp),%edx
     9dc:	0f ac d0 01          	shrd   $0x1,%edx,%eax
     9e0:	d1 ea                	shr    %edx
     9e2:	89 45 e8             	mov    %eax,-0x18(%ebp)
     9e5:	89 55 ec             	mov    %edx,-0x14(%ebp)
     9e8:	83 45 f4 01          	addl   $0x1,-0xc(%ebp)
     9ec:	83 7d f4 3e          	cmpl   $0x3e,-0xc(%ebp)
     9f0:	76 d1                	jbe    9c3 <__udivdi3+0xe4>
     9f2:	8b 45 e0             	mov    -0x20(%ebp),%eax
     9f5:	8b 55 e4             	mov    -0x1c(%ebp),%edx
     9f8:	89 d1                	mov    %edx,%ecx
     9fa:	29 c1                	sub    %eax,%ecx
     9fc:	89 c8                	mov    %ecx,%eax
     9fe:	89 c1                	mov    %eax,%ecx
     a00:	8b 45 b8             	mov    -0x48(%ebp),%eax
     a03:	8b 55 bc             	mov    -0x44(%ebp),%edx
     a06:	0f a5 c2             	shld   %cl,%eax,%edx
     a09:	d3 e0                	shl    %cl,%eax
     a0b:	f6 c1 20             	test   $0x20,%cl
     a0e:	74 04                	je     a14 <__udivdi3+0x135>
     a10:	89 c2                	mov    %eax,%edx
     a12:	31 c0                	xor    %eax,%eax
     a14:	89 45 b8             	mov    %eax,-0x48(%ebp)
     a17:	89 55 bc             	mov    %edx,-0x44(%ebp)
     a1a:	c7 45 d8 00 00 00 00 	movl   $0x0,-0x28(%ebp)
     a21:	c7 45 dc 00 00 00 00 	movl   $0x0,-0x24(%ebp)
     a28:	8b 45 e0             	mov    -0x20(%ebp),%eax
     a2b:	8b 55 e4             	mov    -0x1c(%ebp),%edx
     a2e:	89 d1                	mov    %edx,%ecx
     a30:	29 c1                	sub    %eax,%ecx
     a32:	89 c8                	mov    %ecx,%eax
     a34:	89 45 d4             	mov    %eax,-0x2c(%ebp)
     a37:	c7 45 f4 00 00 00 00 	movl   $0x0,-0xc(%ebp)
     a3e:	eb 5c                	jmp    a9c <__udivdi3+0x1bd>
     a40:	8b 45 c0             	mov    -0x40(%ebp),%eax
     a43:	8b 55 c4             	mov    -0x3c(%ebp),%edx
     a46:	3b 55 bc             	cmp    -0x44(%ebp),%edx
     a49:	72 37                	jb     a82 <__udivdi3+0x1a3>
     a4b:	3b 55 bc             	cmp    -0x44(%ebp),%edx
     a4e:	77 05                	ja     a55 <__udivdi3+0x176>
     a50:	3b 45 b8             	cmp    -0x48(%ebp),%eax
     a53:	72 2d                	jb     a82 <__udivdi3+0x1a3>
     a55:	8b 4d d4             	mov    -0x2c(%ebp),%ecx
     a58:	b8 01 00 00 00       	mov    $0x1,%eax
     a5d:	ba 00 00 00 00       	mov    $0x0,%edx
     a62:	0f a5 c2             	shld   %cl,%eax,%edx
     a65:	d3 e0                	shl    %cl,%eax
     a67:	f6 c1 20             	test   $0x20,%cl
     a6a:	74 04                	je     a70 <__udivdi3+0x191>
     a6c:	89 c2                	mov    %eax,%edx
     a6e:	31 c0                	xor    %eax,%eax
     a70:	09 45 d8             	or     %eax,-0x28(%ebp)
     a73:	09 55 dc             	or     %edx,-0x24(%ebp)
     a76:	8b 45 b8             	mov    -0x48(%ebp),%eax
     a79:	8b 55 bc             	mov    -0x44(%ebp),%edx
     a7c:	29 45 c0             	sub    %eax,-0x40(%ebp)
     a7f:	19 55 c4             	sbb    %edx,-0x3c(%ebp)
     a82:	8b 45 b8             	mov    -0x48(%ebp),%eax
     a85:	8b 55 bc             	mov    -0x44(%ebp),%edx
     a88:	0f ac d0 01          	shrd   $0x1,%edx,%eax
     a8c:	d1 ea                	shr    %edx
     a8e:	89 45 b8             	mov    %eax,-0x48(%ebp)
     a91:	89 55 bc             	mov    %edx,-0x44(%ebp)
     a94:	83 6d d4 01          	subl   $0x1,-0x2c(%ebp)
     a98:	83 45 f4 01          	addl   $0x1,-0xc(%ebp)
     a9c:	8b 45 e0             	mov    -0x20(%ebp),%eax
     a9f:	8b 55 e4             	mov    -0x1c(%ebp),%edx
     aa2:	89 d1                	mov    %edx,%ecx
     aa4:	29 c1                	sub    %eax,%ecx
     aa6:	89 c8                	mov    %ecx,%eax
     aa8:	83 c0 01             	add    $0x1,%eax
     aab:	3b 45 f4             	cmp    -0xc(%ebp),%eax
     aae:	77 90                	ja     a40 <__udivdi3+0x161>
     ab0:	e8 27 f6 ff ff       	call   dc <SetI>
     ab5:	8b 45 d8             	mov    -0x28(%ebp),%eax
     ab8:	8b 55 dc             	mov    -0x24(%ebp),%edx
     abb:	c9                   	leave  
     abc:	c3                   	ret    

00000abd <__divdi3>:
     abd:	55                   	push   %ebp
     abe:	89 e5                	mov    %esp,%ebp
     ac0:	53                   	push   %ebx
     ac1:	83 ec 34             	sub    $0x34,%esp
     ac4:	8b 45 08             	mov    0x8(%ebp),%eax
     ac7:	89 45 e0             	mov    %eax,-0x20(%ebp)
     aca:	8b 45 0c             	mov    0xc(%ebp),%eax
     acd:	89 45 e4             	mov    %eax,-0x1c(%ebp)
     ad0:	8b 45 10             	mov    0x10(%ebp),%eax
     ad3:	89 45 d8             	mov    %eax,-0x28(%ebp)
     ad6:	8b 45 14             	mov    0x14(%ebp),%eax
     ad9:	89 45 dc             	mov    %eax,-0x24(%ebp)
     adc:	8b 45 e0             	mov    -0x20(%ebp),%eax
     adf:	8b 55 e4             	mov    -0x1c(%ebp),%edx
     ae2:	09 d0                	or     %edx,%eax
     ae4:	85 c0                	test   %eax,%eax
     ae6:	75 0f                	jne    af7 <__divdi3+0x3a>
     ae8:	b8 00 00 00 00       	mov    $0x0,%eax
     aed:	ba 00 00 00 00       	mov    $0x0,%edx
     af2:	e9 8c 00 00 00       	jmp    b83 <__divdi3+0xc6>
     af7:	8b 45 d8             	mov    -0x28(%ebp),%eax
     afa:	8b 55 dc             	mov    -0x24(%ebp),%edx
     afd:	09 d0                	or     %edx,%eax
     aff:	85 c0                	test   %eax,%eax
     b01:	75 0c                	jne    b0f <__divdi3+0x52>
     b03:	b8 00 00 00 00       	mov    $0x0,%eax
     b08:	ba 00 00 00 00       	mov    $0x0,%edx
     b0d:	eb 74                	jmp    b83 <__divdi3+0xc6>
     b0f:	c7 45 f4 00 00 00 00 	movl   $0x0,-0xc(%ebp)
     b16:	83 7d e4 00          	cmpl   $0x0,-0x1c(%ebp)
     b1a:	79 0e                	jns    b2a <__divdi3+0x6d>
     b1c:	f7 5d e0             	negl   -0x20(%ebp)
     b1f:	83 55 e4 00          	adcl   $0x0,-0x1c(%ebp)
     b23:	f7 5d e4             	negl   -0x1c(%ebp)
     b26:	83 45 f4 01          	addl   $0x1,-0xc(%ebp)
     b2a:	83 7d dc 00          	cmpl   $0x0,-0x24(%ebp)
     b2e:	79 0e                	jns    b3e <__divdi3+0x81>
     b30:	f7 5d d8             	negl   -0x28(%ebp)
     b33:	83 55 dc 00          	adcl   $0x0,-0x24(%ebp)
     b37:	f7 5d dc             	negl   -0x24(%ebp)
     b3a:	83 45 f4 01          	addl   $0x1,-0xc(%ebp)
     b3e:	8b 45 e0             	mov    -0x20(%ebp),%eax
     b41:	8b 55 e4             	mov    -0x1c(%ebp),%edx
     b44:	8b 4d d8             	mov    -0x28(%ebp),%ecx
     b47:	8b 5d dc             	mov    -0x24(%ebp),%ebx
     b4a:	89 4c 24 08          	mov    %ecx,0x8(%esp)
     b4e:	89 5c 24 0c          	mov    %ebx,0xc(%esp)
     b52:	89 04 24             	mov    %eax,(%esp)
     b55:	89 54 24 04          	mov    %edx,0x4(%esp)
     b59:	e8 81 fd ff ff       	call   8df <__udivdi3>
     b5e:	89 45 e8             	mov    %eax,-0x18(%ebp)
     b61:	89 55 ec             	mov    %edx,-0x14(%ebp)
     b64:	8b 45 f4             	mov    -0xc(%ebp),%eax
     b67:	83 e0 01             	and    $0x1,%eax
     b6a:	84 c0                	test   %al,%al
     b6c:	74 0f                	je     b7d <__divdi3+0xc0>
     b6e:	8b 45 e8             	mov    -0x18(%ebp),%eax
     b71:	8b 55 ec             	mov    -0x14(%ebp),%edx
     b74:	f7 d8                	neg    %eax
     b76:	83 d2 00             	adc    $0x0,%edx
     b79:	f7 da                	neg    %edx
     b7b:	eb 06                	jmp    b83 <__divdi3+0xc6>
     b7d:	8b 45 e8             	mov    -0x18(%ebp),%eax
     b80:	8b 55 ec             	mov    -0x14(%ebp),%edx
     b83:	83 c4 34             	add    $0x34,%esp
     b86:	5b                   	pop    %ebx
     b87:	5d                   	pop    %ebp
     b88:	c3                   	ret    

00000b89 <__umoddi3>:
     b89:	55                   	push   %ebp
     b8a:	89 e5                	mov    %esp,%ebp
     b8c:	83 ec 40             	sub    $0x40,%esp
     b8f:	8b 45 08             	mov    0x8(%ebp),%eax
     b92:	89 45 c8             	mov    %eax,-0x38(%ebp)
     b95:	8b 45 0c             	mov    0xc(%ebp),%eax
     b98:	89 45 cc             	mov    %eax,-0x34(%ebp)
     b9b:	8b 45 10             	mov    0x10(%ebp),%eax
     b9e:	89 45 c0             	mov    %eax,-0x40(%ebp)
     ba1:	8b 45 14             	mov    0x14(%ebp),%eax
     ba4:	89 45 c4             	mov    %eax,-0x3c(%ebp)
     ba7:	8b 45 c8             	mov    -0x38(%ebp),%eax
     baa:	8b 55 cc             	mov    -0x34(%ebp),%edx
     bad:	09 d0                	or     %edx,%eax
     baf:	85 c0                	test   %eax,%eax
     bb1:	75 0f                	jne    bc2 <__umoddi3+0x39>
     bb3:	b8 00 00 00 00       	mov    $0x0,%eax
     bb8:	ba 00 00 00 00       	mov    $0x0,%edx
     bbd:	e9 95 01 00 00       	jmp    d57 <__umoddi3+0x1ce>
     bc2:	8b 45 c0             	mov    -0x40(%ebp),%eax
     bc5:	8b 55 c4             	mov    -0x3c(%ebp),%edx
     bc8:	09 d0                	or     %edx,%eax
     bca:	85 c0                	test   %eax,%eax
     bcc:	75 0f                	jne    bdd <__umoddi3+0x54>
     bce:	b8 00 00 00 00       	mov    $0x0,%eax
     bd3:	ba 00 00 00 00       	mov    $0x0,%edx
     bd8:	e9 7a 01 00 00       	jmp    d57 <__umoddi3+0x1ce>
     bdd:	8b 45 c8             	mov    -0x38(%ebp),%eax
     be0:	8b 55 cc             	mov    -0x34(%ebp),%edx
     be3:	3b 55 c4             	cmp    -0x3c(%ebp),%edx
     be6:	77 15                	ja     bfd <__umoddi3+0x74>
     be8:	3b 55 c4             	cmp    -0x3c(%ebp),%edx
     beb:	72 05                	jb     bf2 <__umoddi3+0x69>
     bed:	3b 45 c0             	cmp    -0x40(%ebp),%eax
     bf0:	73 0b                	jae    bfd <__umoddi3+0x74>
     bf2:	8b 45 c8             	mov    -0x38(%ebp),%eax
     bf5:	8b 55 cc             	mov    -0x34(%ebp),%edx
     bf8:	e9 5a 01 00 00       	jmp    d57 <__umoddi3+0x1ce>
     bfd:	8b 45 c8             	mov    -0x38(%ebp),%eax
     c00:	8b 55 cc             	mov    -0x34(%ebp),%edx
     c03:	89 45 f0             	mov    %eax,-0x10(%ebp)
     c06:	89 55 f4             	mov    %edx,-0xc(%ebp)
     c09:	c7 45 ec 00 00 00 00 	movl   $0x0,-0x14(%ebp)
     c10:	c7 45 fc 00 00 00 00 	movl   $0x0,-0x4(%ebp)
     c17:	eb 29                	jmp    c42 <__umoddi3+0xb9>
     c19:	8b 45 f0             	mov    -0x10(%ebp),%eax
     c1c:	83 e0 01             	and    $0x1,%eax
     c1f:	84 c0                	test   %al,%al
     c21:	74 09                	je     c2c <__umoddi3+0xa3>
     c23:	8b 45 fc             	mov    -0x4(%ebp),%eax
     c26:	83 c0 01             	add    $0x1,%eax
     c29:	89 45 ec             	mov    %eax,-0x14(%ebp)
     c2c:	8b 45 f0             	mov    -0x10(%ebp),%eax
     c2f:	8b 55 f4             	mov    -0xc(%ebp),%edx
     c32:	0f ac d0 01          	shrd   $0x1,%edx,%eax
     c36:	d1 ea                	shr    %edx
     c38:	89 45 f0             	mov    %eax,-0x10(%ebp)
     c3b:	89 55 f4             	mov    %edx,-0xc(%ebp)
     c3e:	83 45 fc 01          	addl   $0x1,-0x4(%ebp)
     c42:	83 7d fc 3e          	cmpl   $0x3e,-0x4(%ebp)
     c46:	76 d1                	jbe    c19 <__umoddi3+0x90>
     c48:	8b 45 c0             	mov    -0x40(%ebp),%eax
     c4b:	8b 55 c4             	mov    -0x3c(%ebp),%edx
     c4e:	89 45 f0             	mov    %eax,-0x10(%ebp)
     c51:	89 55 f4             	mov    %edx,-0xc(%ebp)
     c54:	c7 45 e8 00 00 00 00 	movl   $0x0,-0x18(%ebp)
     c5b:	c7 45 fc 00 00 00 00 	movl   $0x0,-0x4(%ebp)
     c62:	eb 29                	jmp    c8d <__umoddi3+0x104>
     c64:	8b 45 f0             	mov    -0x10(%ebp),%eax
     c67:	83 e0 01             	and    $0x1,%eax
     c6a:	84 c0                	test   %al,%al
     c6c:	74 09                	je     c77 <__umoddi3+0xee>
     c6e:	8b 45 fc             	mov    -0x4(%ebp),%eax
     c71:	83 c0 01             	add    $0x1,%eax
     c74:	89 45 e8             	mov    %eax,-0x18(%ebp)
     c77:	8b 45 f0             	mov    -0x10(%ebp),%eax
     c7a:	8b 55 f4             	mov    -0xc(%ebp),%edx
     c7d:	0f ac d0 01          	shrd   $0x1,%edx,%eax
     c81:	d1 ea                	shr    %edx
     c83:	89 45 f0             	mov    %eax,-0x10(%ebp)
     c86:	89 55 f4             	mov    %edx,-0xc(%ebp)
     c89:	83 45 fc 01          	addl   $0x1,-0x4(%ebp)
     c8d:	83 7d fc 3e          	cmpl   $0x3e,-0x4(%ebp)
     c91:	76 d1                	jbe    c64 <__umoddi3+0xdb>
     c93:	8b 45 e8             	mov    -0x18(%ebp),%eax
     c96:	8b 55 ec             	mov    -0x14(%ebp),%edx
     c99:	89 d1                	mov    %edx,%ecx
     c9b:	29 c1                	sub    %eax,%ecx
     c9d:	89 c8                	mov    %ecx,%eax
     c9f:	89 c1                	mov    %eax,%ecx
     ca1:	8b 45 c0             	mov    -0x40(%ebp),%eax
     ca4:	8b 55 c4             	mov    -0x3c(%ebp),%edx
     ca7:	0f a5 c2             	shld   %cl,%eax,%edx
     caa:	d3 e0                	shl    %cl,%eax
     cac:	f6 c1 20             	test   $0x20,%cl
     caf:	74 04                	je     cb5 <__umoddi3+0x12c>
     cb1:	89 c2                	mov    %eax,%edx
     cb3:	31 c0                	xor    %eax,%eax
     cb5:	89 45 c0             	mov    %eax,-0x40(%ebp)
     cb8:	89 55 c4             	mov    %edx,-0x3c(%ebp)
     cbb:	c7 45 e0 00 00 00 00 	movl   $0x0,-0x20(%ebp)
     cc2:	c7 45 e4 00 00 00 00 	movl   $0x0,-0x1c(%ebp)
     cc9:	8b 45 e8             	mov    -0x18(%ebp),%eax
     ccc:	8b 55 ec             	mov    -0x14(%ebp),%edx
     ccf:	89 d1                	mov    %edx,%ecx
     cd1:	29 c1                	sub    %eax,%ecx
     cd3:	89 c8                	mov    %ecx,%eax
     cd5:	89 45 dc             	mov    %eax,-0x24(%ebp)
     cd8:	c7 45 fc 00 00 00 00 	movl   $0x0,-0x4(%ebp)
     cdf:	eb 5c                	jmp    d3d <__umoddi3+0x1b4>
     ce1:	8b 45 c8             	mov    -0x38(%ebp),%eax
     ce4:	8b 55 cc             	mov    -0x34(%ebp),%edx
     ce7:	3b 55 c4             	cmp    -0x3c(%ebp),%edx
     cea:	72 37                	jb     d23 <__umoddi3+0x19a>
     cec:	3b 55 c4             	cmp    -0x3c(%ebp),%edx
     cef:	77 05                	ja     cf6 <__umoddi3+0x16d>
     cf1:	3b 45 c0             	cmp    -0x40(%ebp),%eax
     cf4:	72 2d                	jb     d23 <__umoddi3+0x19a>
     cf6:	8b 4d dc             	mov    -0x24(%ebp),%ecx
     cf9:	b8 01 00 00 00       	mov    $0x1,%eax
     cfe:	ba 00 00 00 00       	mov    $0x0,%edx
     d03:	0f a5 c2             	shld   %cl,%eax,%edx
     d06:	d3 e0                	shl    %cl,%eax
     d08:	f6 c1 20             	test   $0x20,%cl
     d0b:	74 04                	je     d11 <__umoddi3+0x188>
     d0d:	89 c2                	mov    %eax,%edx
     d0f:	31 c0                	xor    %eax,%eax
     d11:	09 45 e0             	or     %eax,-0x20(%ebp)
     d14:	09 55 e4             	or     %edx,-0x1c(%ebp)
     d17:	8b 45 c0             	mov    -0x40(%ebp),%eax
     d1a:	8b 55 c4             	mov    -0x3c(%ebp),%edx
     d1d:	29 45 c8             	sub    %eax,-0x38(%ebp)
     d20:	19 55 cc             	sbb    %edx,-0x34(%ebp)
     d23:	8b 45 c0             	mov    -0x40(%ebp),%eax
     d26:	8b 55 c4             	mov    -0x3c(%ebp),%edx
     d29:	0f ac d0 01          	shrd   $0x1,%edx,%eax
     d2d:	d1 ea                	shr    %edx
     d2f:	89 45 c0             	mov    %eax,-0x40(%ebp)
     d32:	89 55 c4             	mov    %edx,-0x3c(%ebp)
     d35:	83 6d dc 01          	subl   $0x1,-0x24(%ebp)
     d39:	83 45 fc 01          	addl   $0x1,-0x4(%ebp)
     d3d:	8b 45 e8             	mov    -0x18(%ebp),%eax
     d40:	8b 55 ec             	mov    -0x14(%ebp),%edx
     d43:	89 d1                	mov    %edx,%ecx
     d45:	29 c1                	sub    %eax,%ecx
     d47:	89 c8                	mov    %ecx,%eax
     d49:	83 c0 01             	add    $0x1,%eax
     d4c:	3b 45 fc             	cmp    -0x4(%ebp),%eax
     d4f:	77 90                	ja     ce1 <__umoddi3+0x158>
     d51:	8b 45 c8             	mov    -0x38(%ebp),%eax
     d54:	8b 55 cc             	mov    -0x34(%ebp),%edx
     d57:	c9                   	leave  
     d58:	c3                   	ret    

00000d59 <CStart>:
     d59:	55                   	push   %ebp
     d5a:	89 e5                	mov    %esp,%ebp
     d5c:	57                   	push   %edi
     d5d:	56                   	push   %esi
     d5e:	53                   	push   %ebx
     d5f:	81 ec 8c 00 00 00    	sub    $0x8c,%esp
     d65:	c7 04 24 c6 b9 00 00 	movl   $0xb9c6,(%esp)
     d6c:	e8 33 fb ff ff       	call   8a4 <GetBootID>
     d71:	e8 20 01 00 00       	call   e96 <Video_Init>
     d76:	c7 04 24 0f 00 00 00 	movl   $0xf,(%esp)
     d7d:	e8 51 08 00 00       	call   15d3 <Video_SetCurFontStyle>
     d82:	c7 04 24 18 6f 00 00 	movl   $0x6f18,(%esp)
     d89:	e8 a9 04 00 00       	call   1237 <Video_printf>
     d8e:	c7 04 24 43 6f 00 00 	movl   $0x6f43,(%esp)
     d95:	e8 9d 04 00 00       	call   1237 <Video_printf>
     d9a:	e8 31 60 00 00       	call   6dd0 <ICH7_8259_Init>
     d9f:	c7 04 24 51 6f 00 00 	movl   $0x6f51,(%esp)
     da6:	e8 8c 04 00 00       	call   1237 <Video_printf>
     dab:	e8 f2 2f 00 00       	call   3da2 <Interrupt_Init>
     db0:	e8 27 f3 ff ff       	call   dc <SetI>
     db5:	c7 04 24 64 6f 00 00 	movl   $0x6f64,(%esp)
     dbc:	e8 76 04 00 00       	call   1237 <Video_printf>
     dc1:	e8 c3 15 00 00       	call   2389 <CPU_Init>
     dc6:	ba 75 24 00 00       	mov    $0x2475,%edx
     dcb:	8d 45 c4             	lea    -0x3c(%ebp),%eax
     dce:	89 04 24             	mov    %eax,(%esp)
     dd1:	ff d2                	call   *%edx
     dd3:	83 ec 04             	sub    $0x4,%esp
     dd6:	8b 45 dc             	mov    -0x24(%ebp),%eax
     dd9:	8b 55 e0             	mov    -0x20(%ebp),%edx
     ddc:	89 45 a0             	mov    %eax,-0x60(%ebp)
     ddf:	89 55 a4             	mov    %edx,-0x5c(%ebp)
     de2:	8b 75 d4             	mov    -0x2c(%ebp),%esi
     de5:	8b 7d d8             	mov    -0x28(%ebp),%edi
     de8:	8b 4d cc             	mov    -0x34(%ebp),%ecx
     deb:	8b 5d d0             	mov    -0x30(%ebp),%ebx
     dee:	8b 45 c4             	mov    -0x3c(%ebp),%eax
     df1:	8b 55 c8             	mov    -0x38(%ebp),%edx
     df4:	89 45 98             	mov    %eax,-0x68(%ebp)
     df7:	89 55 9c             	mov    %edx,-0x64(%ebp)
     dfa:	8b 45 a0             	mov    -0x60(%ebp),%eax
     dfd:	8b 55 a4             	mov    -0x5c(%ebp),%edx
     e00:	89 44 24 1c          	mov    %eax,0x1c(%esp)
     e04:	89 54 24 20          	mov    %edx,0x20(%esp)
     e08:	89 74 24 14          	mov    %esi,0x14(%esp)
     e0c:	89 7c 24 18          	mov    %edi,0x18(%esp)
     e10:	89 4c 24 0c          	mov    %ecx,0xc(%esp)
     e14:	89 5c 24 10          	mov    %ebx,0x10(%esp)
     e18:	8b 45 98             	mov    -0x68(%ebp),%eax
     e1b:	8b 55 9c             	mov    -0x64(%ebp),%edx
     e1e:	89 44 24 04          	mov    %eax,0x4(%esp)
     e22:	89 54 24 08          	mov    %edx,0x8(%esp)
     e26:	c7 04 24 74 6f 00 00 	movl   $0x6f74,(%esp)
     e2d:	e8 05 04 00 00       	call   1237 <Video_printf>
     e32:	c7 44 24 04 bb bb aa 	movl   $0xaaaabbbb,0x4(%esp)
     e39:	aa 
     e3a:	c7 04 24 30 00 e0 fe 	movl   $0xfee00030,(%esp)
     e41:	e8 64 f3 ff ff       	call   1aa <WritePhysicsMemory32>
     e46:	c7 04 24 30 00 e0 fe 	movl   $0xfee00030,(%esp)
     e4d:	e8 68 f3 ff ff       	call   1ba <ReadPhysicsMemory32>
     e52:	89 44 24 04          	mov    %eax,0x4(%esp)
     e56:	c7 04 24 9d 6f 00 00 	movl   $0x6f9d,(%esp)
     e5d:	e8 d5 03 00 00       	call   1237 <Video_printf>
     e62:	c7 45 e4 00 00 00 00 	movl   $0x0,-0x1c(%ebp)
     e69:	eb 23                	jmp    e8e <CStart+0x135>
     e6b:	8b 45 e4             	mov    -0x1c(%ebp),%eax
     e6e:	89 44 24 04          	mov    %eax,0x4(%esp)
     e72:	c7 04 24 ae 6f 00 00 	movl   $0x6fae,(%esp)
     e79:	e8 b9 03 00 00       	call   1237 <Video_printf>
     e7e:	c7 04 24 01 00 00 00 	movl   $0x1,(%esp)
     e85:	e8 95 17 00 00       	call   261f <Delays>
     e8a:	83 45 e4 01          	addl   $0x1,-0x1c(%ebp)
     e8e:	83 7d e4 01          	cmpl   $0x1,-0x1c(%ebp)
     e92:	76 d7                	jbe    e6b <CStart+0x112>
     e94:	eb fe                	jmp    e94 <CStart+0x13b>

00000e96 <Video_Init>:
     e96:	55                   	push   %ebp
     e97:	89 e5                	mov    %esp,%ebp
     e99:	83 ec 08             	sub    $0x8,%esp
     e9c:	e8 02 00 00 00       	call   ea3 <Video_Cls>
     ea1:	c9                   	leave  
     ea2:	c3                   	ret    

00000ea3 <Video_Cls>:
     ea3:	55                   	push   %ebp
     ea4:	89 e5                	mov    %esp,%ebp
     ea6:	83 ec 28             	sub    $0x28,%esp
     ea9:	e8 35 f2 ff ff       	call   e3 <HideCursor>
     eae:	c7 44 24 04 00 00 00 	movl   $0x0,0x4(%esp)
     eb5:	00 
     eb6:	c7 04 24 00 00 00 00 	movl   $0x0,(%esp)
     ebd:	e8 c9 06 00 00       	call   158b <Video_SetCurPosition>
     ec2:	c7 04 24 0f 00 00 00 	movl   $0xf,(%esp)
     ec9:	e8 05 07 00 00       	call   15d3 <Video_SetCurFontStyle>
     ece:	c7 45 f4 00 00 00 00 	movl   $0x0,-0xc(%ebp)
     ed5:	eb 34                	jmp    f0b <Video_Cls+0x68>
     ed7:	8b 45 f4             	mov    -0xc(%ebp),%eax
     eda:	05 00 80 0b 00       	add    $0xb8000,%eax
     edf:	c7 44 24 04 20 00 00 	movl   $0x20,0x4(%esp)
     ee6:	00 
     ee7:	89 04 24             	mov    %eax,(%esp)
     eea:	e8 7a f2 ff ff       	call   169 <WritePhysicsMemory8>
     eef:	8b 45 f4             	mov    -0xc(%ebp),%eax
     ef2:	05 01 80 0b 00       	add    $0xb8001,%eax
     ef7:	c7 44 24 04 0f 00 00 	movl   $0xf,0x4(%esp)
     efe:	00 
     eff:	89 04 24             	mov    %eax,(%esp)
     f02:	e8 62 f2 ff ff       	call   169 <WritePhysicsMemory8>
     f07:	83 45 f4 02          	addl   $0x2,-0xc(%ebp)
     f0b:	81 7d f4 fe 7f 00 00 	cmpl   $0x7ffe,-0xc(%ebp)
     f12:	76 c3                	jbe    ed7 <Video_Cls+0x34>
     f14:	c9                   	leave  
     f15:	c3                   	ret    

00000f16 <Video_WriteChar>:
     f16:	55                   	push   %ebp
     f17:	89 e5                	mov    %esp,%ebp
     f19:	53                   	push   %ebx
     f1a:	83 ec 24             	sub    $0x24,%esp
     f1d:	8b 5d 08             	mov    0x8(%ebp),%ebx
     f20:	8b 4d 0c             	mov    0xc(%ebp),%ecx
     f23:	8b 55 10             	mov    0x10(%ebp),%edx
     f26:	8b 45 14             	mov    0x14(%ebp),%eax
     f29:	88 5d f4             	mov    %bl,-0xc(%ebp)
     f2c:	88 4d f0             	mov    %cl,-0x10(%ebp)
     f2f:	88 55 ec             	mov    %dl,-0x14(%ebp)
     f32:	88 45 e8             	mov    %al,-0x18(%ebp)
     f35:	80 7d f4 18          	cmpb   $0x18,-0xc(%ebp)
     f39:	77 06                	ja     f41 <Video_WriteChar+0x2b>
     f3b:	80 7d f0 4f          	cmpb   $0x4f,-0x10(%ebp)
     f3f:	76 16                	jbe    f57 <Video_WriteChar+0x41>
     f41:	c7 44 24 04 b2 6f 00 	movl   $0x6fb2,0x4(%esp)
     f48:	00 
     f49:	c7 04 24 c9 6f 00 00 	movl   $0x6fc9,(%esp)
     f50:	e8 80 0e 00 00       	call   1dd5 <Log_Error>
     f55:	eb 5d                	jmp    fb4 <Video_WriteChar+0x9e>
     f57:	0f b6 4d ec          	movzbl -0x14(%ebp),%ecx
     f5b:	0f b6 55 f4          	movzbl -0xc(%ebp),%edx
     f5f:	89 d0                	mov    %edx,%eax
     f61:	c1 e0 02             	shl    $0x2,%eax
     f64:	01 d0                	add    %edx,%eax
     f66:	c1 e0 04             	shl    $0x4,%eax
     f69:	89 c2                	mov    %eax,%edx
     f6b:	0f b6 45 f0          	movzbl -0x10(%ebp),%eax
     f6f:	01 d0                	add    %edx,%eax
     f71:	05 00 c0 05 00       	add    $0x5c000,%eax
     f76:	01 c0                	add    %eax,%eax
     f78:	89 4c 24 04          	mov    %ecx,0x4(%esp)
     f7c:	89 04 24             	mov    %eax,(%esp)
     f7f:	e8 e5 f1 ff ff       	call   169 <WritePhysicsMemory8>
     f84:	0f b6 4d e8          	movzbl -0x18(%ebp),%ecx
     f88:	0f b6 55 f4          	movzbl -0xc(%ebp),%edx
     f8c:	89 d0                	mov    %edx,%eax
     f8e:	c1 e0 02             	shl    $0x2,%eax
     f91:	01 d0                	add    %edx,%eax
     f93:	c1 e0 04             	shl    $0x4,%eax
     f96:	89 c2                	mov    %eax,%edx
     f98:	0f b6 45 f0          	movzbl -0x10(%ebp),%eax
     f9c:	01 d0                	add    %edx,%eax
     f9e:	05 00 c0 05 00       	add    $0x5c000,%eax
     fa3:	01 c0                	add    %eax,%eax
     fa5:	83 c0 01             	add    $0x1,%eax
     fa8:	89 4c 24 04          	mov    %ecx,0x4(%esp)
     fac:	89 04 24             	mov    %eax,(%esp)
     faf:	e8 b5 f1 ff ff       	call   169 <WritePhysicsMemory8>
     fb4:	83 c4 24             	add    $0x24,%esp
     fb7:	5b                   	pop    %ebx
     fb8:	5d                   	pop    %ebp
     fb9:	c3                   	ret    

00000fba <Video_DispStr>:
     fba:	55                   	push   %ebp
     fbb:	89 e5                	mov    %esp,%ebp
     fbd:	53                   	push   %ebx
     fbe:	83 ec 34             	sub    $0x34,%esp
     fc1:	8b 4d 08             	mov    0x8(%ebp),%ecx
     fc4:	8b 55 0c             	mov    0xc(%ebp),%edx
     fc7:	8b 45 14             	mov    0x14(%ebp),%eax
     fca:	88 4d e4             	mov    %cl,-0x1c(%ebp)
     fcd:	88 55 e0             	mov    %dl,-0x20(%ebp)
     fd0:	88 45 dc             	mov    %al,-0x24(%ebp)
     fd3:	80 7d e4 18          	cmpb   $0x18,-0x1c(%ebp)
     fd7:	77 06                	ja     fdf <Video_DispStr+0x25>
     fd9:	80 7d e0 4f          	cmpb   $0x4f,-0x20(%ebp)
     fdd:	76 16                	jbe    ff5 <Video_DispStr+0x3b>
     fdf:	c7 44 24 04 b2 6f 00 	movl   $0x6fb2,0x4(%esp)
     fe6:	00 
     fe7:	c7 04 24 d8 6f 00 00 	movl   $0x6fd8,(%esp)
     fee:	e8 e2 0d 00 00       	call   1dd5 <Log_Error>
     ff3:	eb 66                	jmp    105b <Video_DispStr+0xa1>
     ff5:	c7 45 f4 00 00 00 00 	movl   $0x0,-0xc(%ebp)
     ffc:	eb 4a                	jmp    1048 <Video_DispStr+0x8e>
     ffe:	80 7d e0 4f          	cmpb   $0x4f,-0x20(%ebp)
    1002:	76 08                	jbe    100c <Video_DispStr+0x52>
    1004:	c6 45 e0 00          	movb   $0x0,-0x20(%ebp)
    1008:	80 45 e4 01          	addb   $0x1,-0x1c(%ebp)
    100c:	80 7d e4 18          	cmpb   $0x18,-0x1c(%ebp)
    1010:	77 48                	ja     105a <Video_DispStr+0xa0>
    1012:	0f b6 5d dc          	movzbl -0x24(%ebp),%ebx
    1016:	8b 45 f4             	mov    -0xc(%ebp),%eax
    1019:	8b 55 10             	mov    0x10(%ebp),%edx
    101c:	01 d0                	add    %edx,%eax
    101e:	0f b6 00             	movzbl (%eax),%eax
    1021:	0f b6 c8             	movzbl %al,%ecx
    1024:	0f b6 55 e0          	movzbl -0x20(%ebp),%edx
    1028:	0f b6 45 e4          	movzbl -0x1c(%ebp),%eax
    102c:	89 5c 24 0c          	mov    %ebx,0xc(%esp)
    1030:	89 4c 24 08          	mov    %ecx,0x8(%esp)
    1034:	89 54 24 04          	mov    %edx,0x4(%esp)
    1038:	89 04 24             	mov    %eax,(%esp)
    103b:	e8 d6 fe ff ff       	call   f16 <Video_WriteChar>
    1040:	80 45 e0 01          	addb   $0x1,-0x20(%ebp)
    1044:	83 45 f4 01          	addl   $0x1,-0xc(%ebp)
    1048:	8b 45 10             	mov    0x10(%ebp),%eax
    104b:	89 04 24             	mov    %eax,(%esp)
    104e:	e8 97 05 00 00       	call   15ea <String_GetLen>
    1053:	3b 45 f4             	cmp    -0xc(%ebp),%eax
    1056:	77 a6                	ja     ffe <Video_DispStr+0x44>
    1058:	eb 01                	jmp    105b <Video_DispStr+0xa1>
    105a:	90                   	nop
    105b:	83 c4 34             	add    $0x34,%esp
    105e:	5b                   	pop    %ebx
    105f:	5d                   	pop    %ebp
    1060:	c3                   	ret    

00001061 <Video_NextLine>:
    1061:	55                   	push   %ebp
    1062:	89 e5                	mov    %esp,%ebp
    1064:	83 ec 28             	sub    $0x28,%esp
    1067:	0f b6 05 c3 b9 00 00 	movzbl 0xb9c3,%eax
    106e:	3c 18                	cmp    $0x18,%al
    1070:	0f 85 94 00 00 00    	jne    110a <Video_NextLine+0xa9>
    1076:	c7 45 f4 a0 00 00 00 	movl   $0xa0,-0xc(%ebp)
    107d:	eb 2c                	jmp    10ab <Video_NextLine+0x4a>
    107f:	8b 45 f4             	mov    -0xc(%ebp),%eax
    1082:	05 00 80 0b 00       	add    $0xb8000,%eax
    1087:	89 04 24             	mov    %eax,(%esp)
    108a:	e8 ea f0 ff ff       	call   179 <ReadPhysicsMemory8>
    108f:	0f b6 c0             	movzbl %al,%eax
    1092:	8b 55 f4             	mov    -0xc(%ebp),%edx
    1095:	81 c2 60 7f 0b 00    	add    $0xb7f60,%edx
    109b:	89 44 24 04          	mov    %eax,0x4(%esp)
    109f:	89 14 24             	mov    %edx,(%esp)
    10a2:	e8 c2 f0 ff ff       	call   169 <WritePhysicsMemory8>
    10a7:	83 45 f4 01          	addl   $0x1,-0xc(%ebp)
    10ab:	81 7d f4 9f 0f 00 00 	cmpl   $0xf9f,-0xc(%ebp)
    10b2:	76 cb                	jbe    107f <Video_NextLine+0x1e>
    10b4:	c6 05 c4 b9 00 00 00 	movb   $0x0,0xb9c4
    10bb:	c7 45 f4 00 00 00 00 	movl   $0x0,-0xc(%ebp)
    10c2:	eb 3b                	jmp    10ff <Video_NextLine+0x9e>
    10c4:	8b 45 f4             	mov    -0xc(%ebp),%eax
    10c7:	05 00 8f 0b 00       	add    $0xb8f00,%eax
    10cc:	c7 44 24 04 20 00 00 	movl   $0x20,0x4(%esp)
    10d3:	00 
    10d4:	89 04 24             	mov    %eax,(%esp)
    10d7:	e8 8d f0 ff ff       	call   169 <WritePhysicsMemory8>
    10dc:	0f b6 05 c5 b9 00 00 	movzbl 0xb9c5,%eax
    10e3:	0f b6 c0             	movzbl %al,%eax
    10e6:	8b 55 f4             	mov    -0xc(%ebp),%edx
    10e9:	81 c2 01 8f 0b 00    	add    $0xb8f01,%edx
    10ef:	89 44 24 04          	mov    %eax,0x4(%esp)
    10f3:	89 14 24             	mov    %edx,(%esp)
    10f6:	e8 6e f0 ff ff       	call   169 <WritePhysicsMemory8>
    10fb:	83 45 f4 02          	addl   $0x2,-0xc(%ebp)
    10ff:	81 7d f4 9f 00 00 00 	cmpl   $0x9f,-0xc(%ebp)
    1106:	76 bc                	jbe    10c4 <Video_NextLine+0x63>
    1108:	eb 16                	jmp    1120 <Video_NextLine+0xbf>
    110a:	0f b6 05 c3 b9 00 00 	movzbl 0xb9c3,%eax
    1111:	83 c0 01             	add    $0x1,%eax
    1114:	a2 c3 b9 00 00       	mov    %al,0xb9c3
    1119:	c6 05 c4 b9 00 00 00 	movb   $0x0,0xb9c4
    1120:	c9                   	leave  
    1121:	c3                   	ret    

00001122 <Video_WriteStr>:
    1122:	55                   	push   %ebp
    1123:	89 e5                	mov    %esp,%ebp
    1125:	83 ec 28             	sub    $0x28,%esp
    1128:	8b 45 08             	mov    0x8(%ebp),%eax
    112b:	0f b6 00             	movzbl (%eax),%eax
    112e:	84 c0                	test   %al,%al
    1130:	0f 84 ff 00 00 00    	je     1235 <Video_WriteStr+0x113>
    1136:	0f b6 05 c4 b9 00 00 	movzbl 0xb9c4,%eax
    113d:	3c 50                	cmp    $0x50,%al
    113f:	75 0f                	jne    1150 <Video_WriteStr+0x2e>
    1141:	8b 45 08             	mov    0x8(%ebp),%eax
    1144:	0f b6 00             	movzbl (%eax),%eax
    1147:	3c 0a                	cmp    $0xa,%al
    1149:	74 05                	je     1150 <Video_WriteStr+0x2e>
    114b:	e8 11 ff ff ff       	call   1061 <Video_NextLine>
    1150:	c7 45 f4 00 00 00 00 	movl   $0x0,-0xc(%ebp)
    1157:	e9 c2 00 00 00       	jmp    121e <Video_WriteStr+0xfc>
    115c:	8b 45 f4             	mov    -0xc(%ebp),%eax
    115f:	8b 55 08             	mov    0x8(%ebp),%edx
    1162:	01 d0                	add    %edx,%eax
    1164:	0f b6 00             	movzbl (%eax),%eax
    1167:	3c 0a                	cmp    $0xa,%al
    1169:	74 7a                	je     11e5 <Video_WriteStr+0xc3>
    116b:	0f b6 05 c3 b9 00 00 	movzbl 0xb9c3,%eax
    1172:	0f b6 d0             	movzbl %al,%edx
    1175:	89 d0                	mov    %edx,%eax
    1177:	c1 e0 02             	shl    $0x2,%eax
    117a:	01 d0                	add    %edx,%eax
    117c:	c1 e0 04             	shl    $0x4,%eax
    117f:	89 c2                	mov    %eax,%edx
    1181:	0f b6 05 c4 b9 00 00 	movzbl 0xb9c4,%eax
    1188:	0f b6 c0             	movzbl %al,%eax
    118b:	01 d0                	add    %edx,%eax
    118d:	01 c0                	add    %eax,%eax
    118f:	89 45 f0             	mov    %eax,-0x10(%ebp)
    1192:	8b 45 f4             	mov    -0xc(%ebp),%eax
    1195:	8b 55 08             	mov    0x8(%ebp),%edx
    1198:	01 d0                	add    %edx,%eax
    119a:	0f b6 00             	movzbl (%eax),%eax
    119d:	0f b6 c0             	movzbl %al,%eax
    11a0:	8b 55 f0             	mov    -0x10(%ebp),%edx
    11a3:	81 c2 00 80 0b 00    	add    $0xb8000,%edx
    11a9:	89 44 24 04          	mov    %eax,0x4(%esp)
    11ad:	89 14 24             	mov    %edx,(%esp)
    11b0:	e8 b4 ef ff ff       	call   169 <WritePhysicsMemory8>
    11b5:	0f b6 05 c5 b9 00 00 	movzbl 0xb9c5,%eax
    11bc:	0f b6 c0             	movzbl %al,%eax
    11bf:	8b 55 f0             	mov    -0x10(%ebp),%edx
    11c2:	81 c2 01 80 0b 00    	add    $0xb8001,%edx
    11c8:	89 44 24 04          	mov    %eax,0x4(%esp)
    11cc:	89 14 24             	mov    %edx,(%esp)
    11cf:	e8 95 ef ff ff       	call   169 <WritePhysicsMemory8>
    11d4:	0f b6 05 c4 b9 00 00 	movzbl 0xb9c4,%eax
    11db:	83 c0 01             	add    $0x1,%eax
    11de:	a2 c4 b9 00 00       	mov    %al,0xb9c4
    11e3:	eb 05                	jmp    11ea <Video_WriteStr+0xc8>
    11e5:	e8 77 fe ff ff       	call   1061 <Video_NextLine>
    11ea:	8b 45 f4             	mov    -0xc(%ebp),%eax
    11ed:	83 c0 01             	add    $0x1,%eax
    11f0:	03 45 08             	add    0x8(%ebp),%eax
    11f3:	0f b6 00             	movzbl (%eax),%eax
    11f6:	84 c0                	test   %al,%al
    11f8:	74 3a                	je     1234 <Video_WriteStr+0x112>
    11fa:	0f b6 05 c4 b9 00 00 	movzbl 0xb9c4,%eax
    1201:	3c 50                	cmp    $0x50,%al
    1203:	75 15                	jne    121a <Video_WriteStr+0xf8>
    1205:	8b 45 f4             	mov    -0xc(%ebp),%eax
    1208:	83 c0 01             	add    $0x1,%eax
    120b:	03 45 08             	add    0x8(%ebp),%eax
    120e:	0f b6 00             	movzbl (%eax),%eax
    1211:	3c 0a                	cmp    $0xa,%al
    1213:	74 05                	je     121a <Video_WriteStr+0xf8>
    1215:	e8 47 fe ff ff       	call   1061 <Video_NextLine>
    121a:	83 45 f4 01          	addl   $0x1,-0xc(%ebp)
    121e:	8b 45 08             	mov    0x8(%ebp),%eax
    1221:	89 04 24             	mov    %eax,(%esp)
    1224:	e8 c1 03 00 00       	call   15ea <String_GetLen>
    1229:	3b 45 f4             	cmp    -0xc(%ebp),%eax
    122c:	0f 87 2a ff ff ff    	ja     115c <Video_WriteStr+0x3a>
    1232:	eb 01                	jmp    1235 <Video_WriteStr+0x113>
    1234:	90                   	nop
    1235:	c9                   	leave  
    1236:	c3                   	ret    

00001237 <Video_printf>:
    1237:	55                   	push   %ebp
    1238:	89 e5                	mov    %esp,%ebp
    123a:	53                   	push   %ebx
    123b:	83 ec 44             	sub    $0x44,%esp
    123e:	8d 45 08             	lea    0x8(%ebp),%eax
    1241:	89 04 24             	mov    %eax,(%esp)
    1244:	e8 e1 10 00 00       	call   232a <ArgCtrl_GetVarArgTableStackAddress>
    1249:	89 45 ec             	mov    %eax,-0x14(%ebp)
    124c:	c6 45 df 00          	movb   $0x0,-0x21(%ebp)
    1250:	c7 45 f0 00 00 00 00 	movl   $0x0,-0x10(%ebp)
    1257:	c7 45 f4 00 00 00 00 	movl   $0x0,-0xc(%ebp)
    125e:	e9 0c 03 00 00       	jmp    156f <Video_printf+0x338>
    1263:	8b 55 08             	mov    0x8(%ebp),%edx
    1266:	8b 45 f4             	mov    -0xc(%ebp),%eax
    1269:	01 d0                	add    %edx,%eax
    126b:	0f b6 00             	movzbl (%eax),%eax
    126e:	3c 25                	cmp    $0x25,%al
    1270:	74 1e                	je     1290 <Video_printf+0x59>
    1272:	8b 55 08             	mov    0x8(%ebp),%edx
    1275:	8b 45 f4             	mov    -0xc(%ebp),%eax
    1278:	01 d0                	add    %edx,%eax
    127a:	0f b6 00             	movzbl (%eax),%eax
    127d:	88 45 de             	mov    %al,-0x22(%ebp)
    1280:	8d 45 de             	lea    -0x22(%ebp),%eax
    1283:	89 04 24             	mov    %eax,(%esp)
    1286:	e8 97 fe ff ff       	call   1122 <Video_WriteStr>
    128b:	e9 db 02 00 00       	jmp    156b <Video_printf+0x334>
    1290:	8b 45 08             	mov    0x8(%ebp),%eax
    1293:	8b 55 f4             	mov    -0xc(%ebp),%edx
    1296:	83 c2 01             	add    $0x1,%edx
    1299:	01 d0                	add    %edx,%eax
    129b:	0f b6 00             	movzbl (%eax),%eax
    129e:	0f b6 c0             	movzbl %al,%eax
    12a1:	83 e8 25             	sub    $0x25,%eax
    12a4:	83 f8 53             	cmp    $0x53,%eax
    12a7:	0f 87 be 02 00 00    	ja     156b <Video_printf+0x334>
    12ad:	8b 04 85 e8 6f 00 00 	mov    0x6fe8(,%eax,4),%eax
    12b4:	ff e0                	jmp    *%eax
    12b6:	83 45 f4 01          	addl   $0x1,-0xc(%ebp)
    12ba:	e9 ac 02 00 00       	jmp    156b <Video_printf+0x334>
    12bf:	c6 45 de 25          	movb   $0x25,-0x22(%ebp)
    12c3:	8d 45 de             	lea    -0x22(%ebp),%eax
    12c6:	89 04 24             	mov    %eax,(%esp)
    12c9:	e8 54 fe ff ff       	call   1122 <Video_WriteStr>
    12ce:	83 45 f4 01          	addl   $0x1,-0xc(%ebp)
    12d2:	e9 94 02 00 00       	jmp    156b <Video_printf+0x334>
    12d7:	8b 55 f0             	mov    -0x10(%ebp),%edx
    12da:	83 45 f0 01          	addl   $0x1,-0x10(%ebp)
    12de:	8b 45 ec             	mov    -0x14(%ebp),%eax
    12e1:	89 54 24 04          	mov    %edx,0x4(%esp)
    12e5:	89 04 24             	mov    %eax,(%esp)
    12e8:	e8 48 10 00 00       	call   2335 <ArgCtrl_GetVarArg_uint>
    12ed:	8d 55 ca             	lea    -0x36(%ebp),%edx
    12f0:	89 54 24 04          	mov    %edx,0x4(%esp)
    12f4:	89 04 24             	mov    %eax,(%esp)
    12f7:	e8 25 09 00 00       	call   1c21 <Convert_IntToStr>
    12fc:	8d 45 ca             	lea    -0x36(%ebp),%eax
    12ff:	89 04 24             	mov    %eax,(%esp)
    1302:	e8 1b fe ff ff       	call   1122 <Video_WriteStr>
    1307:	83 45 f4 01          	addl   $0x1,-0xc(%ebp)
    130b:	e9 5b 02 00 00       	jmp    156b <Video_printf+0x334>
    1310:	8b 45 08             	mov    0x8(%ebp),%eax
    1313:	8b 55 f4             	mov    -0xc(%ebp),%edx
    1316:	83 c2 02             	add    $0x2,%edx
    1319:	01 d0                	add    %edx,%eax
    131b:	0f b6 00             	movzbl (%eax),%eax
    131e:	0f b6 c0             	movzbl %al,%eax
    1321:	83 f8 6c             	cmp    $0x6c,%eax
    1324:	0f 85 83 00 00 00    	jne    13ad <Video_printf+0x176>
    132a:	83 45 f0 01          	addl   $0x1,-0x10(%ebp)
    132e:	8b 55 f0             	mov    -0x10(%ebp),%edx
    1331:	8b 45 ec             	mov    -0x14(%ebp),%eax
    1334:	89 54 24 04          	mov    %edx,0x4(%esp)
    1338:	89 04 24             	mov    %eax,(%esp)
    133b:	e8 f5 0f 00 00       	call   2335 <ArgCtrl_GetVarArg_uint>
    1340:	89 45 e0             	mov    %eax,-0x20(%ebp)
    1343:	c7 45 e4 00 00 00 00 	movl   $0x0,-0x1c(%ebp)
    134a:	8b 45 e0             	mov    -0x20(%ebp),%eax
    134d:	8b 55 e4             	mov    -0x1c(%ebp),%edx
    1350:	89 c2                	mov    %eax,%edx
    1352:	b8 00 00 00 00       	mov    $0x0,%eax
    1357:	89 45 e0             	mov    %eax,-0x20(%ebp)
    135a:	89 55 e4             	mov    %edx,-0x1c(%ebp)
    135d:	8b 45 f0             	mov    -0x10(%ebp),%eax
    1360:	83 e8 01             	sub    $0x1,%eax
    1363:	89 c2                	mov    %eax,%edx
    1365:	8b 45 ec             	mov    -0x14(%ebp),%eax
    1368:	89 54 24 04          	mov    %edx,0x4(%esp)
    136c:	89 04 24             	mov    %eax,(%esp)
    136f:	e8 c1 0f 00 00       	call   2335 <ArgCtrl_GetVarArg_uint>
    1374:	ba 00 00 00 00       	mov    $0x0,%edx
    1379:	09 45 e0             	or     %eax,-0x20(%ebp)
    137c:	09 55 e4             	or     %edx,-0x1c(%ebp)
    137f:	83 45 f0 01          	addl   $0x1,-0x10(%ebp)
    1383:	8d 45 ca             	lea    -0x36(%ebp),%eax
    1386:	89 44 24 08          	mov    %eax,0x8(%esp)
    138a:	8b 45 e0             	mov    -0x20(%ebp),%eax
    138d:	8b 55 e4             	mov    -0x1c(%ebp),%edx
    1390:	89 04 24             	mov    %eax,(%esp)
    1393:	89 54 24 04          	mov    %edx,0x4(%esp)
    1397:	e8 c4 08 00 00       	call   1c60 <Convert_Uint64ToStr>
    139c:	8d 45 ca             	lea    -0x36(%ebp),%eax
    139f:	89 04 24             	mov    %eax,(%esp)
    13a2:	e8 7b fd ff ff       	call   1122 <Video_WriteStr>
    13a7:	83 45 f4 01          	addl   $0x1,-0xc(%ebp)
    13ab:	eb 31                	jmp    13de <Video_printf+0x1a7>
    13ad:	8b 55 f0             	mov    -0x10(%ebp),%edx
    13b0:	83 45 f0 01          	addl   $0x1,-0x10(%ebp)
    13b4:	8b 45 ec             	mov    -0x14(%ebp),%eax
    13b7:	89 54 24 04          	mov    %edx,0x4(%esp)
    13bb:	89 04 24             	mov    %eax,(%esp)
    13be:	e8 72 0f 00 00       	call   2335 <ArgCtrl_GetVarArg_uint>
    13c3:	8d 55 ca             	lea    -0x36(%ebp),%edx
    13c6:	89 54 24 04          	mov    %edx,0x4(%esp)
    13ca:	89 04 24             	mov    %eax,(%esp)
    13cd:	e8 93 07 00 00       	call   1b65 <Convert_UintToStr>
    13d2:	8d 45 ca             	lea    -0x36(%ebp),%eax
    13d5:	89 04 24             	mov    %eax,(%esp)
    13d8:	e8 45 fd ff ff       	call   1122 <Video_WriteStr>
    13dd:	90                   	nop
    13de:	83 45 f4 01          	addl   $0x1,-0xc(%ebp)
    13e2:	e9 84 01 00 00       	jmp    156b <Video_printf+0x334>
    13e7:	8b 55 f0             	mov    -0x10(%ebp),%edx
    13ea:	83 45 f0 01          	addl   $0x1,-0x10(%ebp)
    13ee:	8b 45 ec             	mov    -0x14(%ebp),%eax
    13f1:	89 54 24 04          	mov    %edx,0x4(%esp)
    13f5:	89 04 24             	mov    %eax,(%esp)
    13f8:	e8 54 0f 00 00       	call   2351 <ArgCtrl_GetVarArg_uchar>
    13fd:	88 45 de             	mov    %al,-0x22(%ebp)
    1400:	8d 45 de             	lea    -0x22(%ebp),%eax
    1403:	89 04 24             	mov    %eax,(%esp)
    1406:	e8 17 fd ff ff       	call   1122 <Video_WriteStr>
    140b:	83 45 f4 01          	addl   $0x1,-0xc(%ebp)
    140f:	e9 57 01 00 00       	jmp    156b <Video_printf+0x334>
    1414:	8b 55 f0             	mov    -0x10(%ebp),%edx
    1417:	83 45 f0 01          	addl   $0x1,-0x10(%ebp)
    141b:	8b 45 ec             	mov    -0x14(%ebp),%eax
    141e:	89 54 24 04          	mov    %edx,0x4(%esp)
    1422:	89 04 24             	mov    %eax,(%esp)
    1425:	e8 43 0f 00 00       	call   236d <ArgCtrl_GetVarArg_ucharptr>
    142a:	89 04 24             	mov    %eax,(%esp)
    142d:	e8 f0 fc ff ff       	call   1122 <Video_WriteStr>
    1432:	83 45 f4 01          	addl   $0x1,-0xc(%ebp)
    1436:	e9 30 01 00 00       	jmp    156b <Video_printf+0x334>
    143b:	8b 55 f0             	mov    -0x10(%ebp),%edx
    143e:	83 45 f0 01          	addl   $0x1,-0x10(%ebp)
    1442:	8b 45 ec             	mov    -0x14(%ebp),%eax
    1445:	89 54 24 04          	mov    %edx,0x4(%esp)
    1449:	89 04 24             	mov    %eax,(%esp)
    144c:	e8 e4 0e 00 00       	call   2335 <ArgCtrl_GetVarArg_uint>
    1451:	0f b6 c0             	movzbl %al,%eax
    1454:	8d 55 ca             	lea    -0x36(%ebp),%edx
    1457:	89 54 24 04          	mov    %edx,0x4(%esp)
    145b:	89 04 24             	mov    %eax,(%esp)
    145e:	e8 2d 06 00 00       	call   1a90 <Convert_ByteToStr>
    1463:	8d 45 ca             	lea    -0x36(%ebp),%eax
    1466:	89 04 24             	mov    %eax,(%esp)
    1469:	e8 b4 fc ff ff       	call   1122 <Video_WriteStr>
    146e:	83 45 f4 01          	addl   $0x1,-0xc(%ebp)
    1472:	e9 f4 00 00 00       	jmp    156b <Video_printf+0x334>
    1477:	8b 55 f0             	mov    -0x10(%ebp),%edx
    147a:	83 45 f0 01          	addl   $0x1,-0x10(%ebp)
    147e:	8b 45 ec             	mov    -0x14(%ebp),%eax
    1481:	89 54 24 04          	mov    %edx,0x4(%esp)
    1485:	89 04 24             	mov    %eax,(%esp)
    1488:	e8 a8 0e 00 00       	call   2335 <ArgCtrl_GetVarArg_uint>
    148d:	8d 55 ca             	lea    -0x36(%ebp),%edx
    1490:	89 54 24 04          	mov    %edx,0x4(%esp)
    1494:	89 04 24             	mov    %eax,(%esp)
    1497:	e8 44 06 00 00       	call   1ae0 <Convert_WordToStr>
    149c:	8d 45 ca             	lea    -0x36(%ebp),%eax
    149f:	89 04 24             	mov    %eax,(%esp)
    14a2:	e8 7b fc ff ff       	call   1122 <Video_WriteStr>
    14a7:	83 45 f4 01          	addl   $0x1,-0xc(%ebp)
    14ab:	e9 bb 00 00 00       	jmp    156b <Video_printf+0x334>
    14b0:	8b 55 f0             	mov    -0x10(%ebp),%edx
    14b3:	83 45 f0 01          	addl   $0x1,-0x10(%ebp)
    14b7:	8b 45 ec             	mov    -0x14(%ebp),%eax
    14ba:	89 54 24 04          	mov    %edx,0x4(%esp)
    14be:	89 04 24             	mov    %eax,(%esp)
    14c1:	e8 6f 0e 00 00       	call   2335 <ArgCtrl_GetVarArg_uint>
    14c6:	8d 55 ca             	lea    -0x36(%ebp),%edx
    14c9:	89 54 24 04          	mov    %edx,0x4(%esp)
    14cd:	89 04 24             	mov    %eax,(%esp)
    14d0:	e8 53 06 00 00       	call   1b28 <Convert_DWordToStr>
    14d5:	8d 45 ca             	lea    -0x36(%ebp),%eax
    14d8:	89 04 24             	mov    %eax,(%esp)
    14db:	e8 42 fc ff ff       	call   1122 <Video_WriteStr>
    14e0:	83 45 f4 01          	addl   $0x1,-0xc(%ebp)
    14e4:	e9 82 00 00 00       	jmp    156b <Video_printf+0x334>
    14e9:	83 45 f0 01          	addl   $0x1,-0x10(%ebp)
    14ed:	8b 55 f0             	mov    -0x10(%ebp),%edx
    14f0:	8b 45 ec             	mov    -0x14(%ebp),%eax
    14f3:	89 54 24 04          	mov    %edx,0x4(%esp)
    14f7:	89 04 24             	mov    %eax,(%esp)
    14fa:	e8 36 0e 00 00       	call   2335 <ArgCtrl_GetVarArg_uint>
    14ff:	89 45 e0             	mov    %eax,-0x20(%ebp)
    1502:	c7 45 e4 00 00 00 00 	movl   $0x0,-0x1c(%ebp)
    1509:	8b 45 e0             	mov    -0x20(%ebp),%eax
    150c:	8b 55 e4             	mov    -0x1c(%ebp),%edx
    150f:	89 c2                	mov    %eax,%edx
    1511:	b8 00 00 00 00       	mov    $0x0,%eax
    1516:	89 45 e0             	mov    %eax,-0x20(%ebp)
    1519:	89 55 e4             	mov    %edx,-0x1c(%ebp)
    151c:	8b 45 f0             	mov    -0x10(%ebp),%eax
    151f:	83 e8 01             	sub    $0x1,%eax
    1522:	89 c2                	mov    %eax,%edx
    1524:	8b 45 ec             	mov    -0x14(%ebp),%eax
    1527:	89 54 24 04          	mov    %edx,0x4(%esp)
    152b:	89 04 24             	mov    %eax,(%esp)
    152e:	e8 02 0e 00 00       	call   2335 <ArgCtrl_GetVarArg_uint>
    1533:	ba 00 00 00 00       	mov    $0x0,%edx
    1538:	09 45 e0             	or     %eax,-0x20(%ebp)
    153b:	09 55 e4             	or     %edx,-0x1c(%ebp)
    153e:	83 45 f0 01          	addl   $0x1,-0x10(%ebp)
    1542:	8b 45 e0             	mov    -0x20(%ebp),%eax
    1545:	8b 55 e4             	mov    -0x1c(%ebp),%edx
    1548:	8d 4d ca             	lea    -0x36(%ebp),%ecx
    154b:	89 4c 24 08          	mov    %ecx,0x8(%esp)
    154f:	89 04 24             	mov    %eax,(%esp)
    1552:	89 54 24 04          	mov    %edx,0x4(%esp)
    1556:	e8 09 08 00 00       	call   1d64 <Convert_Int64ToStr>
    155b:	8d 45 ca             	lea    -0x36(%ebp),%eax
    155e:	89 04 24             	mov    %eax,(%esp)
    1561:	e8 bc fb ff ff       	call   1122 <Video_WriteStr>
    1566:	83 45 f4 01          	addl   $0x1,-0xc(%ebp)
    156a:	90                   	nop
    156b:	83 45 f4 01          	addl   $0x1,-0xc(%ebp)
    156f:	8b 5d f4             	mov    -0xc(%ebp),%ebx
    1572:	8b 45 08             	mov    0x8(%ebp),%eax
    1575:	89 04 24             	mov    %eax,(%esp)
    1578:	e8 6d 00 00 00       	call   15ea <String_GetLen>
    157d:	39 c3                	cmp    %eax,%ebx
    157f:	0f 82 de fc ff ff    	jb     1263 <Video_printf+0x2c>
    1585:	83 c4 44             	add    $0x44,%esp
    1588:	5b                   	pop    %ebx
    1589:	5d                   	pop    %ebp
    158a:	c3                   	ret    

0000158b <Video_SetCurPosition>:
    158b:	55                   	push   %ebp
    158c:	89 e5                	mov    %esp,%ebp
    158e:	83 ec 28             	sub    $0x28,%esp
    1591:	8b 55 08             	mov    0x8(%ebp),%edx
    1594:	8b 45 0c             	mov    0xc(%ebp),%eax
    1597:	88 55 f4             	mov    %dl,-0xc(%ebp)
    159a:	88 45 f0             	mov    %al,-0x10(%ebp)
    159d:	80 7d f4 18          	cmpb   $0x18,-0xc(%ebp)
    15a1:	77 06                	ja     15a9 <Video_SetCurPosition+0x1e>
    15a3:	80 7d f0 4f          	cmpb   $0x4f,-0x10(%ebp)
    15a7:	76 16                	jbe    15bf <Video_SetCurPosition+0x34>
    15a9:	c7 44 24 04 b2 6f 00 	movl   $0x6fb2,0x4(%esp)
    15b0:	00 
    15b1:	c7 04 24 38 71 00 00 	movl   $0x7138,(%esp)
    15b8:	e8 18 08 00 00       	call   1dd5 <Log_Error>
    15bd:	eb 12                	jmp    15d1 <Video_SetCurPosition+0x46>
    15bf:	0f b6 45 f4          	movzbl -0xc(%ebp),%eax
    15c3:	a2 c3 b9 00 00       	mov    %al,0xb9c3
    15c8:	0f b6 45 f0          	movzbl -0x10(%ebp),%eax
    15cc:	a2 c4 b9 00 00       	mov    %al,0xb9c4
    15d1:	c9                   	leave  
    15d2:	c3                   	ret    

000015d3 <Video_SetCurFontStyle>:
    15d3:	55                   	push   %ebp
    15d4:	89 e5                	mov    %esp,%ebp
    15d6:	83 ec 04             	sub    $0x4,%esp
    15d9:	8b 45 08             	mov    0x8(%ebp),%eax
    15dc:	88 45 fc             	mov    %al,-0x4(%ebp)
    15df:	0f b6 45 fc          	movzbl -0x4(%ebp),%eax
    15e3:	a2 c5 b9 00 00       	mov    %al,0xb9c5
    15e8:	c9                   	leave  
    15e9:	c3                   	ret    

000015ea <String_GetLen>:
    15ea:	55                   	push   %ebp
    15eb:	89 e5                	mov    %esp,%ebp
    15ed:	83 ec 10             	sub    $0x10,%esp
    15f0:	c7 45 fc 00 00 00 00 	movl   $0x0,-0x4(%ebp)
    15f7:	eb 08                	jmp    1601 <String_GetLen+0x17>
    15f9:	83 45 08 01          	addl   $0x1,0x8(%ebp)
    15fd:	83 45 fc 01          	addl   $0x1,-0x4(%ebp)
    1601:	8b 45 08             	mov    0x8(%ebp),%eax
    1604:	0f b6 00             	movzbl (%eax),%eax
    1607:	84 c0                	test   %al,%al
    1609:	75 ee                	jne    15f9 <String_GetLen+0xf>
    160b:	8b 45 fc             	mov    -0x4(%ebp),%eax
    160e:	c9                   	leave  
    160f:	c3                   	ret    

00001610 <GDT_ReadGDT>:
    1610:	55                   	push   %ebp
    1611:	89 e5                	mov    %esp,%ebp
    1613:	83 ec 38             	sub    $0x38,%esp
    1616:	83 7d 0c 00          	cmpl   $0x0,0xc(%ebp)
    161a:	74 09                	je     1625 <GDT_ReadGDT+0x15>
    161c:	81 7d 0c ff 1f 00 00 	cmpl   $0x1fff,0xc(%ebp)
    1623:	76 19                	jbe    163e <GDT_ReadGDT+0x2e>
    1625:	8b 45 08             	mov    0x8(%ebp),%eax
    1628:	8b 55 e4             	mov    -0x1c(%ebp),%edx
    162b:	89 10                	mov    %edx,(%eax)
    162d:	8b 55 e8             	mov    -0x18(%ebp),%edx
    1630:	89 50 04             	mov    %edx,0x4(%eax)
    1633:	8b 55 ec             	mov    -0x14(%ebp),%edx
    1636:	89 50 08             	mov    %edx,0x8(%eax)
    1639:	e9 9b 00 00 00       	jmp    16d9 <GDT_ReadGDT+0xc9>
    163e:	8b 45 0c             	mov    0xc(%ebp),%eax
    1641:	05 00 40 00 00       	add    $0x4000,%eax
    1646:	c1 e0 03             	shl    $0x3,%eax
    1649:	89 45 f0             	mov    %eax,-0x10(%ebp)
    164c:	c7 45 f4 00 00 00 00 	movl   $0x0,-0xc(%ebp)
    1653:	eb 1c                	jmp    1671 <GDT_ReadGDT+0x61>
    1655:	8b 45 f4             	mov    -0xc(%ebp),%eax
    1658:	8b 55 f0             	mov    -0x10(%ebp),%edx
    165b:	01 d0                	add    %edx,%eax
    165d:	89 04 24             	mov    %eax,(%esp)
    1660:	e8 14 eb ff ff       	call   179 <ReadPhysicsMemory8>
    1665:	8d 55 dc             	lea    -0x24(%ebp),%edx
    1668:	03 55 f4             	add    -0xc(%ebp),%edx
    166b:	88 02                	mov    %al,(%edx)
    166d:	83 45 f4 01          	addl   $0x1,-0xc(%ebp)
    1671:	83 7d f4 07          	cmpl   $0x7,-0xc(%ebp)
    1675:	76 de                	jbe    1655 <GDT_ReadGDT+0x45>
    1677:	0f b6 45 de          	movzbl -0x22(%ebp),%eax
    167b:	0f b6 c0             	movzbl %al,%eax
    167e:	0f b6 55 df          	movzbl -0x21(%ebp),%edx
    1682:	0f b6 d2             	movzbl %dl,%edx
    1685:	c1 e2 08             	shl    $0x8,%edx
    1688:	09 c2                	or     %eax,%edx
    168a:	0f b6 45 e0          	movzbl -0x20(%ebp),%eax
    168e:	0f b6 c0             	movzbl %al,%eax
    1691:	c1 e0 10             	shl    $0x10,%eax
    1694:	09 c2                	or     %eax,%edx
    1696:	0f b6 45 e3          	movzbl -0x1d(%ebp),%eax
    169a:	0f b6 c0             	movzbl %al,%eax
    169d:	c1 e0 18             	shl    $0x18,%eax
    16a0:	09 d0                	or     %edx,%eax
    16a2:	89 45 e4             	mov    %eax,-0x1c(%ebp)
    16a5:	0f b6 45 dc          	movzbl -0x24(%ebp),%eax
    16a9:	0f b6 c0             	movzbl %al,%eax
    16ac:	0f b6 55 dd          	movzbl -0x23(%ebp),%edx
    16b0:	0f b6 d2             	movzbl %dl,%edx
    16b3:	c1 e2 08             	shl    $0x8,%edx
    16b6:	09 d0                	or     %edx,%eax
    16b8:	89 45 e8             	mov    %eax,-0x18(%ebp)
    16bb:	0f b6 45 e1          	movzbl -0x1f(%ebp),%eax
    16bf:	0f b6 c0             	movzbl %al,%eax
    16c2:	89 45 ec             	mov    %eax,-0x14(%ebp)
    16c5:	8b 45 08             	mov    0x8(%ebp),%eax
    16c8:	8b 55 e4             	mov    -0x1c(%ebp),%edx
    16cb:	89 10                	mov    %edx,(%eax)
    16cd:	8b 55 e8             	mov    -0x18(%ebp),%edx
    16d0:	89 50 04             	mov    %edx,0x4(%eax)
    16d3:	8b 55 ec             	mov    -0x14(%ebp),%edx
    16d6:	89 50 08             	mov    %edx,0x8(%eax)
    16d9:	8b 45 08             	mov    0x8(%ebp),%eax
    16dc:	c9                   	leave  
    16dd:	c2 04 00             	ret    $0x4

000016e0 <GDT_WriteGDT>:
    16e0:	55                   	push   %ebp
    16e1:	89 e5                	mov    %esp,%ebp
    16e3:	83 ec 28             	sub    $0x28,%esp
    16e6:	83 7d 08 00          	cmpl   $0x0,0x8(%ebp)
    16ea:	0f 84 f9 00 00 00    	je     17e9 <GDT_WriteGDT+0x109>
    16f0:	81 7d 08 ff 1f 00 00 	cmpl   $0x1fff,0x8(%ebp)
    16f7:	0f 87 ec 00 00 00    	ja     17e9 <GDT_WriteGDT+0x109>
    16fd:	8b 45 08             	mov    0x8(%ebp),%eax
    1700:	05 00 40 00 00       	add    $0x4000,%eax
    1705:	c1 e0 03             	shl    $0x3,%eax
    1708:	89 45 f4             	mov    %eax,-0xc(%ebp)
    170b:	8b 45 10             	mov    0x10(%ebp),%eax
    170e:	0f b6 c0             	movzbl %al,%eax
    1711:	89 44 24 04          	mov    %eax,0x4(%esp)
    1715:	8b 45 f4             	mov    -0xc(%ebp),%eax
    1718:	89 04 24             	mov    %eax,(%esp)
    171b:	e8 49 ea ff ff       	call   169 <WritePhysicsMemory8>
    1720:	8b 45 10             	mov    0x10(%ebp),%eax
    1723:	c1 e8 08             	shr    $0x8,%eax
    1726:	0f b6 c0             	movzbl %al,%eax
    1729:	8b 55 f4             	mov    -0xc(%ebp),%edx
    172c:	83 c2 01             	add    $0x1,%edx
    172f:	89 44 24 04          	mov    %eax,0x4(%esp)
    1733:	89 14 24             	mov    %edx,(%esp)
    1736:	e8 2e ea ff ff       	call   169 <WritePhysicsMemory8>
    173b:	8b 45 0c             	mov    0xc(%ebp),%eax
    173e:	0f b6 c0             	movzbl %al,%eax
    1741:	8b 55 f4             	mov    -0xc(%ebp),%edx
    1744:	83 c2 02             	add    $0x2,%edx
    1747:	89 44 24 04          	mov    %eax,0x4(%esp)
    174b:	89 14 24             	mov    %edx,(%esp)
    174e:	e8 16 ea ff ff       	call   169 <WritePhysicsMemory8>
    1753:	8b 45 0c             	mov    0xc(%ebp),%eax
    1756:	c1 e8 08             	shr    $0x8,%eax
    1759:	0f b6 c0             	movzbl %al,%eax
    175c:	8b 55 f4             	mov    -0xc(%ebp),%edx
    175f:	83 c2 03             	add    $0x3,%edx
    1762:	89 44 24 04          	mov    %eax,0x4(%esp)
    1766:	89 14 24             	mov    %edx,(%esp)
    1769:	e8 fb e9 ff ff       	call   169 <WritePhysicsMemory8>
    176e:	8b 45 0c             	mov    0xc(%ebp),%eax
    1771:	c1 e8 10             	shr    $0x10,%eax
    1774:	0f b6 c0             	movzbl %al,%eax
    1777:	8b 55 f4             	mov    -0xc(%ebp),%edx
    177a:	83 c2 04             	add    $0x4,%edx
    177d:	89 44 24 04          	mov    %eax,0x4(%esp)
    1781:	89 14 24             	mov    %edx,(%esp)
    1784:	e8 e0 e9 ff ff       	call   169 <WritePhysicsMemory8>
    1789:	8b 45 14             	mov    0x14(%ebp),%eax
    178c:	0f b6 c0             	movzbl %al,%eax
    178f:	8b 55 f4             	mov    -0xc(%ebp),%edx
    1792:	83 c2 05             	add    $0x5,%edx
    1795:	89 44 24 04          	mov    %eax,0x4(%esp)
    1799:	89 14 24             	mov    %edx,(%esp)
    179c:	e8 c8 e9 ff ff       	call   169 <WritePhysicsMemory8>
    17a1:	8b 45 14             	mov    0x14(%ebp),%eax
    17a4:	c1 e8 08             	shr    $0x8,%eax
    17a7:	89 c2                	mov    %eax,%edx
    17a9:	83 e2 f0             	and    $0xfffffff0,%edx
    17ac:	8b 45 10             	mov    0x10(%ebp),%eax
    17af:	c1 e8 10             	shr    $0x10,%eax
    17b2:	83 e0 0f             	and    $0xf,%eax
    17b5:	09 d0                	or     %edx,%eax
    17b7:	0f b6 c0             	movzbl %al,%eax
    17ba:	8b 55 f4             	mov    -0xc(%ebp),%edx
    17bd:	83 c2 06             	add    $0x6,%edx
    17c0:	89 44 24 04          	mov    %eax,0x4(%esp)
    17c4:	89 14 24             	mov    %edx,(%esp)
    17c7:	e8 9d e9 ff ff       	call   169 <WritePhysicsMemory8>
    17cc:	8b 45 0c             	mov    0xc(%ebp),%eax
    17cf:	c1 e8 18             	shr    $0x18,%eax
    17d2:	0f b6 c0             	movzbl %al,%eax
    17d5:	8b 55 f4             	mov    -0xc(%ebp),%edx
    17d8:	83 c2 07             	add    $0x7,%edx
    17db:	89 44 24 04          	mov    %eax,0x4(%esp)
    17df:	89 14 24             	mov    %edx,(%esp)
    17e2:	e8 82 e9 ff ff       	call   169 <WritePhysicsMemory8>
    17e7:	eb 01                	jmp    17ea <GDT_WriteGDT+0x10a>
    17e9:	90                   	nop
    17ea:	c9                   	leave  
    17eb:	c3                   	ret    

000017ec <GDT_AddAttr>:
    17ec:	55                   	push   %ebp
    17ed:	89 e5                	mov    %esp,%ebp
    17ef:	8b 45 08             	mov    0x8(%ebp),%eax
    17f2:	8b 40 08             	mov    0x8(%eax),%eax
    17f5:	89 c2                	mov    %eax,%edx
    17f7:	0b 55 0c             	or     0xc(%ebp),%edx
    17fa:	8b 45 08             	mov    0x8(%ebp),%eax
    17fd:	89 50 08             	mov    %edx,0x8(%eax)
    1800:	5d                   	pop    %ebp
    1801:	c3                   	ret    

00001802 <GDT_DelAttr>:
    1802:	55                   	push   %ebp
    1803:	89 e5                	mov    %esp,%ebp
    1805:	8b 45 08             	mov    0x8(%ebp),%eax
    1808:	8b 40 08             	mov    0x8(%eax),%eax
    180b:	8b 55 0c             	mov    0xc(%ebp),%edx
    180e:	f7 d2                	not    %edx
    1810:	21 c2                	and    %eax,%edx
    1812:	8b 45 08             	mov    0x8(%ebp),%eax
    1815:	89 50 08             	mov    %edx,0x8(%eax)
    1818:	5d                   	pop    %ebp
    1819:	c3                   	ret    

0000181a <IDT_ReadGDT>:
    181a:	55                   	push   %ebp
    181b:	89 e5                	mov    %esp,%ebp
    181d:	83 ec 48             	sub    $0x48,%esp
    1820:	81 7d 0c ff 00 00 00 	cmpl   $0xff,0xc(%ebp)
    1827:	76 1f                	jbe    1848 <IDT_ReadGDT+0x2e>
    1829:	8b 45 08             	mov    0x8(%ebp),%eax
    182c:	8b 55 e0             	mov    -0x20(%ebp),%edx
    182f:	89 10                	mov    %edx,(%eax)
    1831:	8b 55 e4             	mov    -0x1c(%ebp),%edx
    1834:	89 50 04             	mov    %edx,0x4(%eax)
    1837:	8b 55 e8             	mov    -0x18(%ebp),%edx
    183a:	89 50 08             	mov    %edx,0x8(%eax)
    183d:	8b 55 ec             	mov    -0x14(%ebp),%edx
    1840:	89 50 0c             	mov    %edx,0xc(%eax)
    1843:	e9 d7 00 00 00       	jmp    191f <IDT_ReadGDT+0x105>
    1848:	8b 45 0c             	mov    0xc(%ebp),%eax
    184b:	05 00 20 00 00       	add    $0x2000,%eax
    1850:	c1 e0 03             	shl    $0x3,%eax
    1853:	89 45 f0             	mov    %eax,-0x10(%ebp)
    1856:	c7 45 f4 00 00 00 00 	movl   $0x0,-0xc(%ebp)
    185d:	eb 1c                	jmp    187b <IDT_ReadGDT+0x61>
    185f:	8b 45 f4             	mov    -0xc(%ebp),%eax
    1862:	8b 55 f0             	mov    -0x10(%ebp),%edx
    1865:	01 d0                	add    %edx,%eax
    1867:	89 04 24             	mov    %eax,(%esp)
    186a:	e8 0a e9 ff ff       	call   179 <ReadPhysicsMemory8>
    186f:	8d 55 d8             	lea    -0x28(%ebp),%edx
    1872:	03 55 f4             	add    -0xc(%ebp),%edx
    1875:	88 02                	mov    %al,(%edx)
    1877:	83 45 f4 01          	addl   $0x1,-0xc(%ebp)
    187b:	83 7d f4 07          	cmpl   $0x7,-0xc(%ebp)
    187f:	76 de                	jbe    185f <IDT_ReadGDT+0x45>
    1881:	ba 77 08 00 00       	mov    $0x877,%edx
    1886:	0f b6 45 db          	movzbl -0x25(%ebp),%eax
    188a:	0f b6 c0             	movzbl %al,%eax
    188d:	89 c1                	mov    %eax,%ecx
    188f:	c1 e1 08             	shl    $0x8,%ecx
    1892:	0f b6 45 da          	movzbl -0x26(%ebp),%eax
    1896:	0f b6 c0             	movzbl %al,%eax
    1899:	09 c1                	or     %eax,%ecx
    189b:	8d 45 d0             	lea    -0x30(%ebp),%eax
    189e:	89 4c 24 04          	mov    %ecx,0x4(%esp)
    18a2:	89 04 24             	mov    %eax,(%esp)
    18a5:	ff d2                	call   *%edx
    18a7:	83 ec 04             	sub    $0x4,%esp
    18aa:	8b 45 d0             	mov    -0x30(%ebp),%eax
    18ad:	8b 55 d4             	mov    -0x2c(%ebp),%edx
    18b0:	89 45 e0             	mov    %eax,-0x20(%ebp)
    18b3:	89 55 e4             	mov    %edx,-0x1c(%ebp)
    18b6:	0f b6 45 df          	movzbl -0x21(%ebp),%eax
    18ba:	0f b6 c0             	movzbl %al,%eax
    18bd:	89 c2                	mov    %eax,%edx
    18bf:	c1 e2 18             	shl    $0x18,%edx
    18c2:	0f b6 45 de          	movzbl -0x22(%ebp),%eax
    18c6:	0f b6 c0             	movzbl %al,%eax
    18c9:	c1 e0 10             	shl    $0x10,%eax
    18cc:	09 c2                	or     %eax,%edx
    18ce:	0f b6 45 d9          	movzbl -0x27(%ebp),%eax
    18d2:	0f b6 c0             	movzbl %al,%eax
    18d5:	c1 e0 08             	shl    $0x8,%eax
    18d8:	09 c2                	or     %eax,%edx
    18da:	0f b6 45 d8          	movzbl -0x28(%ebp),%eax
    18de:	0f b6 c0             	movzbl %al,%eax
    18e1:	09 d0                	or     %edx,%eax
    18e3:	89 45 e8             	mov    %eax,-0x18(%ebp)
    18e6:	0f b6 45 dd          	movzbl -0x23(%ebp),%eax
    18ea:	c0 e8 05             	shr    $0x5,%al
    18ed:	0f b6 d0             	movzbl %al,%edx
    18f0:	0f b6 45 dd          	movzbl -0x23(%ebp),%eax
    18f4:	c0 e8 03             	shr    $0x3,%al
    18f7:	0f b6 c0             	movzbl %al,%eax
    18fa:	83 e0 01             	and    $0x1,%eax
    18fd:	c1 e0 03             	shl    $0x3,%eax
    1900:	09 d0                	or     %edx,%eax
    1902:	89 45 ec             	mov    %eax,-0x14(%ebp)
    1905:	8b 45 08             	mov    0x8(%ebp),%eax
    1908:	8b 55 e0             	mov    -0x20(%ebp),%edx
    190b:	89 10                	mov    %edx,(%eax)
    190d:	8b 55 e4             	mov    -0x1c(%ebp),%edx
    1910:	89 50 04             	mov    %edx,0x4(%eax)
    1913:	8b 55 e8             	mov    -0x18(%ebp),%edx
    1916:	89 50 08             	mov    %edx,0x8(%eax)
    1919:	8b 55 ec             	mov    -0x14(%ebp),%edx
    191c:	89 50 0c             	mov    %edx,0xc(%eax)
    191f:	8b 45 08             	mov    0x8(%ebp),%eax
    1922:	c9                   	leave  
    1923:	c2 04 00             	ret    $0x4

00001926 <IDT_WriteIDT>:
    1926:	55                   	push   %ebp
    1927:	89 e5                	mov    %esp,%ebp
    1929:	83 ec 28             	sub    $0x28,%esp
    192c:	81 7d 08 ff 00 00 00 	cmpl   $0xff,0x8(%ebp)
    1933:	0f 87 fe 00 00 00    	ja     1a37 <IDT_WriteIDT+0x111>
    1939:	8b 45 08             	mov    0x8(%ebp),%eax
    193c:	05 00 20 00 00       	add    $0x2000,%eax
    1941:	c1 e0 03             	shl    $0x3,%eax
    1944:	89 45 f4             	mov    %eax,-0xc(%ebp)
    1947:	b9 60 08 00 00       	mov    $0x860,%ecx
    194c:	8b 45 0c             	mov    0xc(%ebp),%eax
    194f:	8b 55 10             	mov    0x10(%ebp),%edx
    1952:	89 04 24             	mov    %eax,(%esp)
    1955:	89 54 24 04          	mov    %edx,0x4(%esp)
    1959:	ff d1                	call   *%ecx
    195b:	89 45 f0             	mov    %eax,-0x10(%ebp)
    195e:	8b 45 14             	mov    0x14(%ebp),%eax
    1961:	0f b6 c0             	movzbl %al,%eax
    1964:	89 44 24 04          	mov    %eax,0x4(%esp)
    1968:	8b 45 f4             	mov    -0xc(%ebp),%eax
    196b:	89 04 24             	mov    %eax,(%esp)
    196e:	e8 f6 e7 ff ff       	call   169 <WritePhysicsMemory8>
    1973:	8b 45 14             	mov    0x14(%ebp),%eax
    1976:	c1 e8 08             	shr    $0x8,%eax
    1979:	0f b6 c0             	movzbl %al,%eax
    197c:	8b 55 f4             	mov    -0xc(%ebp),%edx
    197f:	83 c2 01             	add    $0x1,%edx
    1982:	89 44 24 04          	mov    %eax,0x4(%esp)
    1986:	89 14 24             	mov    %edx,(%esp)
    1989:	e8 db e7 ff ff       	call   169 <WritePhysicsMemory8>
    198e:	8b 45 f0             	mov    -0x10(%ebp),%eax
    1991:	0f b6 c0             	movzbl %al,%eax
    1994:	8b 55 f4             	mov    -0xc(%ebp),%edx
    1997:	83 c2 02             	add    $0x2,%edx
    199a:	89 44 24 04          	mov    %eax,0x4(%esp)
    199e:	89 14 24             	mov    %edx,(%esp)
    19a1:	e8 c3 e7 ff ff       	call   169 <WritePhysicsMemory8>
    19a6:	8b 45 f0             	mov    -0x10(%ebp),%eax
    19a9:	c1 e8 08             	shr    $0x8,%eax
    19ac:	0f b6 c0             	movzbl %al,%eax
    19af:	8b 55 f4             	mov    -0xc(%ebp),%edx
    19b2:	83 c2 03             	add    $0x3,%edx
    19b5:	89 44 24 04          	mov    %eax,0x4(%esp)
    19b9:	89 14 24             	mov    %edx,(%esp)
    19bc:	e8 a8 e7 ff ff       	call   169 <WritePhysicsMemory8>
    19c1:	8b 45 f4             	mov    -0xc(%ebp),%eax
    19c4:	83 c0 04             	add    $0x4,%eax
    19c7:	c7 44 24 04 00 00 00 	movl   $0x0,0x4(%esp)
    19ce:	00 
    19cf:	89 04 24             	mov    %eax,(%esp)
    19d2:	e8 92 e7 ff ff       	call   169 <WritePhysicsMemory8>
    19d7:	8b 45 18             	mov    0x18(%ebp),%eax
    19da:	89 c2                	mov    %eax,%edx
    19dc:	c1 e2 05             	shl    $0x5,%edx
    19df:	8b 45 18             	mov    0x18(%ebp),%eax
    19e2:	83 e0 08             	and    $0x8,%eax
    19e5:	09 d0                	or     %edx,%eax
    19e7:	83 c8 06             	or     $0x6,%eax
    19ea:	0f b6 c0             	movzbl %al,%eax
    19ed:	8b 55 f4             	mov    -0xc(%ebp),%edx
    19f0:	83 c2 05             	add    $0x5,%edx
    19f3:	89 44 24 04          	mov    %eax,0x4(%esp)
    19f7:	89 14 24             	mov    %edx,(%esp)
    19fa:	e8 6a e7 ff ff       	call   169 <WritePhysicsMemory8>
    19ff:	8b 45 14             	mov    0x14(%ebp),%eax
    1a02:	c1 e8 10             	shr    $0x10,%eax
    1a05:	0f b6 c0             	movzbl %al,%eax
    1a08:	8b 55 f4             	mov    -0xc(%ebp),%edx
    1a0b:	83 c2 06             	add    $0x6,%edx
    1a0e:	89 44 24 04          	mov    %eax,0x4(%esp)
    1a12:	89 14 24             	mov    %edx,(%esp)
    1a15:	e8 4f e7 ff ff       	call   169 <WritePhysicsMemory8>
    1a1a:	8b 45 14             	mov    0x14(%ebp),%eax
    1a1d:	c1 e8 18             	shr    $0x18,%eax
    1a20:	0f b6 c0             	movzbl %al,%eax
    1a23:	8b 55 f4             	mov    -0xc(%ebp),%edx
    1a26:	83 c2 07             	add    $0x7,%edx
    1a29:	89 44 24 04          	mov    %eax,0x4(%esp)
    1a2d:	89 14 24             	mov    %edx,(%esp)
    1a30:	e8 34 e7 ff ff       	call   169 <WritePhysicsMemory8>
    1a35:	eb 01                	jmp    1a38 <IDT_WriteIDT+0x112>
    1a37:	90                   	nop
    1a38:	c9                   	leave  
    1a39:	c3                   	ret    

00001a3a <IDT_AddAttr>:
    1a3a:	55                   	push   %ebp
    1a3b:	89 e5                	mov    %esp,%ebp
    1a3d:	8b 45 08             	mov    0x8(%ebp),%eax
    1a40:	8b 40 0c             	mov    0xc(%eax),%eax
    1a43:	89 c2                	mov    %eax,%edx
    1a45:	0b 55 0c             	or     0xc(%ebp),%edx
    1a48:	8b 45 08             	mov    0x8(%ebp),%eax
    1a4b:	89 50 0c             	mov    %edx,0xc(%eax)
    1a4e:	5d                   	pop    %ebp
    1a4f:	c3                   	ret    

00001a50 <IDT_DelAttr>:
    1a50:	55                   	push   %ebp
    1a51:	89 e5                	mov    %esp,%ebp
    1a53:	8b 45 08             	mov    0x8(%ebp),%eax
    1a56:	8b 40 0c             	mov    0xc(%eax),%eax
    1a59:	8b 55 0c             	mov    0xc(%ebp),%edx
    1a5c:	f7 d2                	not    %edx
    1a5e:	21 c2                	and    %eax,%edx
    1a60:	8b 45 08             	mov    0x8(%ebp),%eax
    1a63:	89 50 0c             	mov    %edx,0xc(%eax)
    1a66:	5d                   	pop    %ebp
    1a67:	c3                   	ret    

00001a68 <Convert_4BitToChar>:
    1a68:	55                   	push   %ebp
    1a69:	89 e5                	mov    %esp,%ebp
    1a6b:	83 ec 04             	sub    $0x4,%esp
    1a6e:	8b 45 08             	mov    0x8(%ebp),%eax
    1a71:	88 45 fc             	mov    %al,-0x4(%ebp)
    1a74:	80 65 fc 0f          	andb   $0xf,-0x4(%ebp)
    1a78:	80 7d fc 09          	cmpb   $0x9,-0x4(%ebp)
    1a7c:	76 09                	jbe    1a87 <Convert_4BitToChar+0x1f>
    1a7e:	0f b6 45 fc          	movzbl -0x4(%ebp),%eax
    1a82:	83 c0 37             	add    $0x37,%eax
    1a85:	eb 07                	jmp    1a8e <Convert_4BitToChar+0x26>
    1a87:	0f b6 45 fc          	movzbl -0x4(%ebp),%eax
    1a8b:	83 c0 30             	add    $0x30,%eax
    1a8e:	c9                   	leave  
    1a8f:	c3                   	ret    

00001a90 <Convert_ByteToStr>:
    1a90:	55                   	push   %ebp
    1a91:	89 e5                	mov    %esp,%ebp
    1a93:	83 ec 18             	sub    $0x18,%esp
    1a96:	8b 45 08             	mov    0x8(%ebp),%eax
    1a99:	88 45 ec             	mov    %al,-0x14(%ebp)
    1a9c:	0f b6 45 ec          	movzbl -0x14(%ebp),%eax
    1aa0:	c0 e8 04             	shr    $0x4,%al
    1aa3:	0f b6 c0             	movzbl %al,%eax
    1aa6:	89 04 24             	mov    %eax,(%esp)
    1aa9:	e8 ba ff ff ff       	call   1a68 <Convert_4BitToChar>
    1aae:	88 45 ff             	mov    %al,-0x1(%ebp)
    1ab1:	8b 45 0c             	mov    0xc(%ebp),%eax
    1ab4:	0f b6 55 ff          	movzbl -0x1(%ebp),%edx
    1ab8:	88 10                	mov    %dl,(%eax)
    1aba:	0f b6 45 ec          	movzbl -0x14(%ebp),%eax
    1abe:	89 04 24             	mov    %eax,(%esp)
    1ac1:	e8 a2 ff ff ff       	call   1a68 <Convert_4BitToChar>
    1ac6:	88 45 ff             	mov    %al,-0x1(%ebp)
    1ac9:	8b 45 0c             	mov    0xc(%ebp),%eax
    1acc:	8d 50 01             	lea    0x1(%eax),%edx
    1acf:	0f b6 45 ff          	movzbl -0x1(%ebp),%eax
    1ad3:	88 02                	mov    %al,(%edx)
    1ad5:	8b 45 0c             	mov    0xc(%ebp),%eax
    1ad8:	83 c0 02             	add    $0x2,%eax
    1adb:	c6 00 00             	movb   $0x0,(%eax)
    1ade:	c9                   	leave  
    1adf:	c3                   	ret    

00001ae0 <Convert_WordToStr>:
    1ae0:	55                   	push   %ebp
    1ae1:	89 e5                	mov    %esp,%ebp
    1ae3:	83 ec 08             	sub    $0x8,%esp
    1ae6:	81 65 08 ff ff 00 00 	andl   $0xffff,0x8(%ebp)
    1aed:	8b 45 08             	mov    0x8(%ebp),%eax
    1af0:	c1 e8 08             	shr    $0x8,%eax
    1af3:	0f b6 c0             	movzbl %al,%eax
    1af6:	8b 55 0c             	mov    0xc(%ebp),%edx
    1af9:	89 54 24 04          	mov    %edx,0x4(%esp)
    1afd:	89 04 24             	mov    %eax,(%esp)
    1b00:	e8 8b ff ff ff       	call   1a90 <Convert_ByteToStr>
    1b05:	8b 45 0c             	mov    0xc(%ebp),%eax
    1b08:	8d 50 02             	lea    0x2(%eax),%edx
    1b0b:	8b 45 08             	mov    0x8(%ebp),%eax
    1b0e:	0f b6 c0             	movzbl %al,%eax
    1b11:	89 54 24 04          	mov    %edx,0x4(%esp)
    1b15:	89 04 24             	mov    %eax,(%esp)
    1b18:	e8 73 ff ff ff       	call   1a90 <Convert_ByteToStr>
    1b1d:	8b 45 0c             	mov    0xc(%ebp),%eax
    1b20:	83 c0 04             	add    $0x4,%eax
    1b23:	c6 00 00             	movb   $0x0,(%eax)
    1b26:	c9                   	leave  
    1b27:	c3                   	ret    

00001b28 <Convert_DWordToStr>:
    1b28:	55                   	push   %ebp
    1b29:	89 e5                	mov    %esp,%ebp
    1b2b:	83 ec 08             	sub    $0x8,%esp
    1b2e:	8b 45 08             	mov    0x8(%ebp),%eax
    1b31:	89 c2                	mov    %eax,%edx
    1b33:	c1 ea 10             	shr    $0x10,%edx
    1b36:	8b 45 0c             	mov    0xc(%ebp),%eax
    1b39:	89 44 24 04          	mov    %eax,0x4(%esp)
    1b3d:	89 14 24             	mov    %edx,(%esp)
    1b40:	e8 9b ff ff ff       	call   1ae0 <Convert_WordToStr>
    1b45:	8b 45 0c             	mov    0xc(%ebp),%eax
    1b48:	83 c0 04             	add    $0x4,%eax
    1b4b:	89 44 24 04          	mov    %eax,0x4(%esp)
    1b4f:	8b 45 08             	mov    0x8(%ebp),%eax
    1b52:	89 04 24             	mov    %eax,(%esp)
    1b55:	e8 86 ff ff ff       	call   1ae0 <Convert_WordToStr>
    1b5a:	8b 45 0c             	mov    0xc(%ebp),%eax
    1b5d:	83 c0 08             	add    $0x8,%eax
    1b60:	c6 00 00             	movb   $0x0,(%eax)
    1b63:	c9                   	leave  
    1b64:	c3                   	ret    

00001b65 <Convert_UintToStr>:
    1b65:	55                   	push   %ebp
    1b66:	89 e5                	mov    %esp,%ebp
    1b68:	53                   	push   %ebx
    1b69:	83 ec 14             	sub    $0x14,%esp
    1b6c:	83 7d 08 00          	cmpl   $0x0,0x8(%ebp)
    1b70:	75 14                	jne    1b86 <Convert_UintToStr+0x21>
    1b72:	8b 45 0c             	mov    0xc(%ebp),%eax
    1b75:	c6 00 30             	movb   $0x30,(%eax)
    1b78:	8b 45 0c             	mov    0xc(%ebp),%eax
    1b7b:	83 c0 01             	add    $0x1,%eax
    1b7e:	c6 00 00             	movb   $0x0,(%eax)
    1b81:	e9 95 00 00 00       	jmp    1c1b <Convert_UintToStr+0xb6>
    1b86:	c7 45 f4 00 00 00 00 	movl   $0x0,-0xc(%ebp)
    1b8d:	8b 45 08             	mov    0x8(%ebp),%eax
    1b90:	89 45 f0             	mov    %eax,-0x10(%ebp)
    1b93:	eb 1c                	jmp    1bb1 <Convert_UintToStr+0x4c>
    1b95:	8b 45 f0             	mov    -0x10(%ebp),%eax
    1b98:	89 45 e8             	mov    %eax,-0x18(%ebp)
    1b9b:	ba cd cc cc cc       	mov    $0xcccccccd,%edx
    1ba0:	8b 45 e8             	mov    -0x18(%ebp),%eax
    1ba3:	f7 e2                	mul    %edx
    1ba5:	89 d0                	mov    %edx,%eax
    1ba7:	c1 e8 03             	shr    $0x3,%eax
    1baa:	89 45 f0             	mov    %eax,-0x10(%ebp)
    1bad:	83 45 f4 01          	addl   $0x1,-0xc(%ebp)
    1bb1:	83 7d f0 00          	cmpl   $0x0,-0x10(%ebp)
    1bb5:	75 de                	jne    1b95 <Convert_UintToStr+0x30>
    1bb7:	8b 45 f4             	mov    -0xc(%ebp),%eax
    1bba:	83 e8 01             	sub    $0x1,%eax
    1bbd:	89 45 f8             	mov    %eax,-0x8(%ebp)
    1bc0:	eb 48                	jmp    1c0a <Convert_UintToStr+0xa5>
    1bc2:	8b 45 f8             	mov    -0x8(%ebp),%eax
    1bc5:	8b 55 0c             	mov    0xc(%ebp),%edx
    1bc8:	8d 1c 02             	lea    (%edx,%eax,1),%ebx
    1bcb:	8b 4d 08             	mov    0x8(%ebp),%ecx
    1bce:	ba cd cc cc cc       	mov    $0xcccccccd,%edx
    1bd3:	89 c8                	mov    %ecx,%eax
    1bd5:	f7 e2                	mul    %edx
    1bd7:	c1 ea 03             	shr    $0x3,%edx
    1bda:	89 d0                	mov    %edx,%eax
    1bdc:	c1 e0 02             	shl    $0x2,%eax
    1bdf:	01 d0                	add    %edx,%eax
    1be1:	01 c0                	add    %eax,%eax
    1be3:	89 ca                	mov    %ecx,%edx
    1be5:	29 c2                	sub    %eax,%edx
    1be7:	89 d0                	mov    %edx,%eax
    1be9:	83 c0 30             	add    $0x30,%eax
    1bec:	88 03                	mov    %al,(%ebx)
    1bee:	83 6d f8 01          	subl   $0x1,-0x8(%ebp)
    1bf2:	8b 45 08             	mov    0x8(%ebp),%eax
    1bf5:	89 45 e8             	mov    %eax,-0x18(%ebp)
    1bf8:	ba cd cc cc cc       	mov    $0xcccccccd,%edx
    1bfd:	8b 45 e8             	mov    -0x18(%ebp),%eax
    1c00:	f7 e2                	mul    %edx
    1c02:	89 d0                	mov    %edx,%eax
    1c04:	c1 e8 03             	shr    $0x3,%eax
    1c07:	89 45 08             	mov    %eax,0x8(%ebp)
    1c0a:	83 7d 08 00          	cmpl   $0x0,0x8(%ebp)
    1c0e:	75 b2                	jne    1bc2 <Convert_UintToStr+0x5d>
    1c10:	8b 45 f4             	mov    -0xc(%ebp),%eax
    1c13:	8b 55 0c             	mov    0xc(%ebp),%edx
    1c16:	01 d0                	add    %edx,%eax
    1c18:	c6 00 00             	movb   $0x0,(%eax)
    1c1b:	83 c4 14             	add    $0x14,%esp
    1c1e:	5b                   	pop    %ebx
    1c1f:	5d                   	pop    %ebp
    1c20:	c3                   	ret    

00001c21 <Convert_IntToStr>:
    1c21:	55                   	push   %ebp
    1c22:	89 e5                	mov    %esp,%ebp
    1c24:	83 ec 08             	sub    $0x8,%esp
    1c27:	83 7d 08 00          	cmpl   $0x0,0x8(%ebp)
    1c2b:	79 1f                	jns    1c4c <Convert_IntToStr+0x2b>
    1c2d:	8b 45 0c             	mov    0xc(%ebp),%eax
    1c30:	c6 00 2d             	movb   $0x2d,(%eax)
    1c33:	8b 45 0c             	mov    0xc(%ebp),%eax
    1c36:	8d 50 01             	lea    0x1(%eax),%edx
    1c39:	8b 45 08             	mov    0x8(%ebp),%eax
    1c3c:	f7 d8                	neg    %eax
    1c3e:	89 54 24 04          	mov    %edx,0x4(%esp)
    1c42:	89 04 24             	mov    %eax,(%esp)
    1c45:	e8 1b ff ff ff       	call   1b65 <Convert_UintToStr>
    1c4a:	eb 12                	jmp    1c5e <Convert_IntToStr+0x3d>
    1c4c:	8b 45 08             	mov    0x8(%ebp),%eax
    1c4f:	8b 55 0c             	mov    0xc(%ebp),%edx
    1c52:	89 54 24 04          	mov    %edx,0x4(%esp)
    1c56:	89 04 24             	mov    %eax,(%esp)
    1c59:	e8 07 ff ff ff       	call   1b65 <Convert_UintToStr>
    1c5e:	c9                   	leave  
    1c5f:	c3                   	ret    

00001c60 <Convert_Uint64ToStr>:
    1c60:	55                   	push   %ebp
    1c61:	89 e5                	mov    %esp,%ebp
    1c63:	53                   	push   %ebx
    1c64:	83 ec 34             	sub    $0x34,%esp
    1c67:	8b 45 08             	mov    0x8(%ebp),%eax
    1c6a:	89 45 e0             	mov    %eax,-0x20(%ebp)
    1c6d:	8b 45 0c             	mov    0xc(%ebp),%eax
    1c70:	89 45 e4             	mov    %eax,-0x1c(%ebp)
    1c73:	8b 45 e0             	mov    -0x20(%ebp),%eax
    1c76:	8b 55 e4             	mov    -0x1c(%ebp),%edx
    1c79:	09 d0                	or     %edx,%eax
    1c7b:	85 c0                	test   %eax,%eax
    1c7d:	75 14                	jne    1c93 <Convert_Uint64ToStr+0x33>
    1c7f:	8b 45 10             	mov    0x10(%ebp),%eax
    1c82:	c6 00 30             	movb   $0x30,(%eax)
    1c85:	8b 45 10             	mov    0x10(%ebp),%eax
    1c88:	83 c0 01             	add    $0x1,%eax
    1c8b:	c6 00 00             	movb   $0x0,(%eax)
    1c8e:	e9 cb 00 00 00       	jmp    1d5e <Convert_Uint64ToStr+0xfe>
    1c93:	c7 45 f0 00 00 00 00 	movl   $0x0,-0x10(%ebp)
    1c9a:	8b 45 e0             	mov    -0x20(%ebp),%eax
    1c9d:	8b 55 e4             	mov    -0x1c(%ebp),%edx
    1ca0:	89 45 e8             	mov    %eax,-0x18(%ebp)
    1ca3:	89 55 ec             	mov    %edx,-0x14(%ebp)
    1ca6:	eb 2c                	jmp    1cd4 <Convert_Uint64ToStr+0x74>
    1ca8:	8b 45 e8             	mov    -0x18(%ebp),%eax
    1cab:	8b 55 ec             	mov    -0x14(%ebp),%edx
    1cae:	c7 44 24 08 0a 00 00 	movl   $0xa,0x8(%esp)
    1cb5:	00 
    1cb6:	c7 44 24 0c 00 00 00 	movl   $0x0,0xc(%esp)
    1cbd:	00 
    1cbe:	89 04 24             	mov    %eax,(%esp)
    1cc1:	89 54 24 04          	mov    %edx,0x4(%esp)
    1cc5:	e8 15 ec ff ff       	call   8df <__udivdi3>
    1cca:	89 45 e8             	mov    %eax,-0x18(%ebp)
    1ccd:	89 55 ec             	mov    %edx,-0x14(%ebp)
    1cd0:	83 45 f0 01          	addl   $0x1,-0x10(%ebp)
    1cd4:	8b 45 e8             	mov    -0x18(%ebp),%eax
    1cd7:	8b 55 ec             	mov    -0x14(%ebp),%edx
    1cda:	09 d0                	or     %edx,%eax
    1cdc:	85 c0                	test   %eax,%eax
    1cde:	75 c8                	jne    1ca8 <Convert_Uint64ToStr+0x48>
    1ce0:	8b 45 f0             	mov    -0x10(%ebp),%eax
    1ce3:	83 e8 01             	sub    $0x1,%eax
    1ce6:	89 45 f4             	mov    %eax,-0xc(%ebp)
    1ce9:	eb 5c                	jmp    1d47 <Convert_Uint64ToStr+0xe7>
    1ceb:	8b 45 f4             	mov    -0xc(%ebp),%eax
    1cee:	8b 55 10             	mov    0x10(%ebp),%edx
    1cf1:	8d 1c 02             	lea    (%edx,%eax,1),%ebx
    1cf4:	8b 45 e0             	mov    -0x20(%ebp),%eax
    1cf7:	8b 55 e4             	mov    -0x1c(%ebp),%edx
    1cfa:	c7 44 24 08 0a 00 00 	movl   $0xa,0x8(%esp)
    1d01:	00 
    1d02:	c7 44 24 0c 00 00 00 	movl   $0x0,0xc(%esp)
    1d09:	00 
    1d0a:	89 04 24             	mov    %eax,(%esp)
    1d0d:	89 54 24 04          	mov    %edx,0x4(%esp)
    1d11:	e8 73 ee ff ff       	call   b89 <__umoddi3>
    1d16:	83 c0 30             	add    $0x30,%eax
    1d19:	88 03                	mov    %al,(%ebx)
    1d1b:	83 6d f4 01          	subl   $0x1,-0xc(%ebp)
    1d1f:	8b 45 e0             	mov    -0x20(%ebp),%eax
    1d22:	8b 55 e4             	mov    -0x1c(%ebp),%edx
    1d25:	c7 44 24 08 0a 00 00 	movl   $0xa,0x8(%esp)
    1d2c:	00 
    1d2d:	c7 44 24 0c 00 00 00 	movl   $0x0,0xc(%esp)
    1d34:	00 
    1d35:	89 04 24             	mov    %eax,(%esp)
    1d38:	89 54 24 04          	mov    %edx,0x4(%esp)
    1d3c:	e8 9e eb ff ff       	call   8df <__udivdi3>
    1d41:	89 45 e0             	mov    %eax,-0x20(%ebp)
    1d44:	89 55 e4             	mov    %edx,-0x1c(%ebp)
    1d47:	8b 45 e0             	mov    -0x20(%ebp),%eax
    1d4a:	8b 55 e4             	mov    -0x1c(%ebp),%edx
    1d4d:	09 d0                	or     %edx,%eax
    1d4f:	85 c0                	test   %eax,%eax
    1d51:	75 98                	jne    1ceb <Convert_Uint64ToStr+0x8b>
    1d53:	8b 45 f0             	mov    -0x10(%ebp),%eax
    1d56:	8b 55 10             	mov    0x10(%ebp),%edx
    1d59:	01 d0                	add    %edx,%eax
    1d5b:	c6 00 00             	movb   $0x0,(%eax)
    1d5e:	83 c4 34             	add    $0x34,%esp
    1d61:	5b                   	pop    %ebx
    1d62:	5d                   	pop    %ebp
    1d63:	c3                   	ret    

00001d64 <Convert_Int64ToStr>:
    1d64:	55                   	push   %ebp
    1d65:	89 e5                	mov    %esp,%ebp
    1d67:	83 ec 28             	sub    $0x28,%esp
    1d6a:	8b 45 08             	mov    0x8(%ebp),%eax
    1d6d:	89 45 f0             	mov    %eax,-0x10(%ebp)
    1d70:	8b 45 0c             	mov    0xc(%ebp),%eax
    1d73:	89 45 f4             	mov    %eax,-0xc(%ebp)
    1d76:	83 7d f4 00          	cmpl   $0x0,-0xc(%ebp)
    1d7a:	79 2b                	jns    1da7 <Convert_Int64ToStr+0x43>
    1d7c:	8b 45 10             	mov    0x10(%ebp),%eax
    1d7f:	c6 00 2d             	movb   $0x2d,(%eax)
    1d82:	8b 45 10             	mov    0x10(%ebp),%eax
    1d85:	8d 48 01             	lea    0x1(%eax),%ecx
    1d88:	8b 45 f0             	mov    -0x10(%ebp),%eax
    1d8b:	8b 55 f4             	mov    -0xc(%ebp),%edx
    1d8e:	f7 d8                	neg    %eax
    1d90:	83 d2 00             	adc    $0x0,%edx
    1d93:	f7 da                	neg    %edx
    1d95:	89 4c 24 08          	mov    %ecx,0x8(%esp)
    1d99:	89 04 24             	mov    %eax,(%esp)
    1d9c:	89 54 24 04          	mov    %edx,0x4(%esp)
    1da0:	e8 bb fe ff ff       	call   1c60 <Convert_Uint64ToStr>
    1da5:	eb 19                	jmp    1dc0 <Convert_Int64ToStr+0x5c>
    1da7:	8b 45 f0             	mov    -0x10(%ebp),%eax
    1daa:	8b 55 f4             	mov    -0xc(%ebp),%edx
    1dad:	8b 4d 10             	mov    0x10(%ebp),%ecx
    1db0:	89 4c 24 08          	mov    %ecx,0x8(%esp)
    1db4:	89 04 24             	mov    %eax,(%esp)
    1db7:	89 54 24 04          	mov    %edx,0x4(%esp)
    1dbb:	e8 a0 fe ff ff       	call   1c60 <Convert_Uint64ToStr>
    1dc0:	c9                   	leave  
    1dc1:	c3                   	ret    

00001dc2 <Log_Output>:
    1dc2:	55                   	push   %ebp
    1dc3:	89 e5                	mov    %esp,%ebp
    1dc5:	83 ec 18             	sub    $0x18,%esp
    1dc8:	8b 45 08             	mov    0x8(%ebp),%eax
    1dcb:	89 04 24             	mov    %eax,(%esp)
    1dce:	e8 64 f4 ff ff       	call   1237 <Video_printf>
    1dd3:	c9                   	leave  
    1dd4:	c3                   	ret    

00001dd5 <Log_Error>:
    1dd5:	55                   	push   %ebp
    1dd6:	89 e5                	mov    %esp,%ebp
    1dd8:	83 ec 18             	sub    $0x18,%esp
    1ddb:	c7 04 24 4d 71 00 00 	movl   $0x714d,(%esp)
    1de2:	e8 db ff ff ff       	call   1dc2 <Log_Output>
    1de7:	8b 45 08             	mov    0x8(%ebp),%eax
    1dea:	89 04 24             	mov    %eax,(%esp)
    1ded:	e8 d0 ff ff ff       	call   1dc2 <Log_Output>
    1df2:	c7 04 24 54 71 00 00 	movl   $0x7154,(%esp)
    1df9:	e8 c4 ff ff ff       	call   1dc2 <Log_Output>
    1dfe:	8b 45 0c             	mov    0xc(%ebp),%eax
    1e01:	89 04 24             	mov    %eax,(%esp)
    1e04:	e8 b9 ff ff ff       	call   1dc2 <Log_Output>
    1e09:	c7 04 24 57 71 00 00 	movl   $0x7157,(%esp)
    1e10:	e8 ad ff ff ff       	call   1dc2 <Log_Output>
    1e15:	c9                   	leave  
    1e16:	c3                   	ret    

00001e17 <PCI_GetAddress>:
    1e17:	55                   	push   %ebp
    1e18:	89 e5                	mov    %esp,%ebp
    1e1a:	0f b6 45 0a          	movzbl 0xa(%ebp),%eax
    1e1e:	0f b6 c0             	movzbl %al,%eax
    1e21:	83 e0 07             	and    $0x7,%eax
    1e24:	89 c2                	mov    %eax,%edx
    1e26:	c1 e2 08             	shl    $0x8,%edx
    1e29:	0f b6 45 09          	movzbl 0x9(%ebp),%eax
    1e2d:	0f b6 c0             	movzbl %al,%eax
    1e30:	c1 e0 0b             	shl    $0xb,%eax
    1e33:	25 ff ff 00 00       	and    $0xffff,%eax
    1e38:	09 c2                	or     %eax,%edx
    1e3a:	0f b6 45 08          	movzbl 0x8(%ebp),%eax
    1e3e:	0f b6 c0             	movzbl %al,%eax
    1e41:	c1 e0 10             	shl    $0x10,%eax
    1e44:	09 d0                	or     %edx,%eax
    1e46:	0d 00 00 00 80       	or     $0x80000000,%eax
    1e4b:	5d                   	pop    %ebp
    1e4c:	c3                   	ret    

00001e4d <PCI_WriteData32>:
    1e4d:	55                   	push   %ebp
    1e4e:	89 e5                	mov    %esp,%ebp
    1e50:	56                   	push   %esi
    1e51:	53                   	push   %ebx
    1e52:	83 ec 30             	sub    $0x30,%esp
    1e55:	8b 45 0c             	mov    0xc(%ebp),%eax
    1e58:	88 45 e4             	mov    %al,-0x1c(%ebp)
    1e5b:	ba 17 1e 00 00       	mov    $0x1e17,%edx
    1e60:	0f b7 45 08          	movzwl 0x8(%ebp),%eax
    1e64:	66 89 04 24          	mov    %ax,(%esp)
    1e68:	0f b6 45 0a          	movzbl 0xa(%ebp),%eax
    1e6c:	88 44 24 02          	mov    %al,0x2(%esp)
    1e70:	ff d2                	call   *%edx
    1e72:	89 45 f4             	mov    %eax,-0xc(%ebp)
    1e75:	0f b6 45 e4          	movzbl -0x1c(%ebp),%eax
    1e79:	83 e0 03             	and    $0x3,%eax
    1e7c:	85 c0                	test   %eax,%eax
    1e7e:	75 3e                	jne    1ebe <PCI_WriteData32+0x71>
    1e80:	0f b6 45 e4          	movzbl -0x1c(%ebp),%eax
    1e84:	0b 45 f4             	or     -0xc(%ebp),%eax
    1e87:	89 44 24 04          	mov    %eax,0x4(%esp)
    1e8b:	c7 04 24 f8 0c 00 00 	movl   $0xcf8,(%esp)
    1e92:	e8 31 e2 ff ff       	call   c8 <IO_Out32>
    1e97:	8b 45 10             	mov    0x10(%ebp),%eax
    1e9a:	89 44 24 04          	mov    %eax,0x4(%esp)
    1e9e:	c7 04 24 fc 0c 00 00 	movl   $0xcfc,(%esp)
    1ea5:	e8 1e e2 ff ff       	call   c8 <IO_Out32>
    1eaa:	c7 04 24 fc 0c 00 00 	movl   $0xcfc,(%esp)
    1eb1:	e8 ff e1 ff ff       	call   b5 <IO_In32>
    1eb6:	89 45 f0             	mov    %eax,-0x10(%ebp)
    1eb9:	e9 93 01 00 00       	jmp    2051 <PCI_WriteData32+0x204>
    1ebe:	0f b6 45 e4          	movzbl -0x1c(%ebp),%eax
    1ec2:	25 fc 00 00 00       	and    $0xfc,%eax
    1ec7:	0b 45 f4             	or     -0xc(%ebp),%eax
    1eca:	89 44 24 04          	mov    %eax,0x4(%esp)
    1ece:	c7 04 24 f8 0c 00 00 	movl   $0xcf8,(%esp)
    1ed5:	e8 ee e1 ff ff       	call   c8 <IO_Out32>
    1eda:	c7 04 24 fc 0c 00 00 	movl   $0xcfc,(%esp)
    1ee1:	e8 cf e1 ff ff       	call   b5 <IO_In32>
    1ee6:	89 45 ec             	mov    %eax,-0x14(%ebp)
    1ee9:	0f b6 45 e4          	movzbl -0x1c(%ebp),%eax
    1eed:	25 fc 00 00 00       	and    $0xfc,%eax
    1ef2:	83 c0 04             	add    $0x4,%eax
    1ef5:	0b 45 f4             	or     -0xc(%ebp),%eax
    1ef8:	89 44 24 04          	mov    %eax,0x4(%esp)
    1efc:	c7 04 24 f8 0c 00 00 	movl   $0xcf8,(%esp)
    1f03:	e8 c0 e1 ff ff       	call   c8 <IO_Out32>
    1f08:	c7 04 24 fc 0c 00 00 	movl   $0xcfc,(%esp)
    1f0f:	e8 a1 e1 ff ff       	call   b5 <IO_In32>
    1f14:	89 45 f0             	mov    %eax,-0x10(%ebp)
    1f17:	0f b6 45 e4          	movzbl -0x1c(%ebp),%eax
    1f1b:	83 e0 03             	and    $0x3,%eax
    1f1e:	c1 e0 03             	shl    $0x3,%eax
    1f21:	ba ff ff ff ff       	mov    $0xffffffff,%edx
    1f26:	89 d3                	mov    %edx,%ebx
    1f28:	89 c1                	mov    %eax,%ecx
    1f2a:	d3 e3                	shl    %cl,%ebx
    1f2c:	89 d8                	mov    %ebx,%eax
    1f2e:	f7 d0                	not    %eax
    1f30:	23 45 ec             	and    -0x14(%ebp),%eax
    1f33:	0f b6 55 e4          	movzbl -0x1c(%ebp),%edx
    1f37:	83 e2 03             	and    $0x3,%edx
    1f3a:	c1 e2 03             	shl    $0x3,%edx
    1f3d:	8b 5d 10             	mov    0x10(%ebp),%ebx
    1f40:	89 de                	mov    %ebx,%esi
    1f42:	89 d1                	mov    %edx,%ecx
    1f44:	d3 e6                	shl    %cl,%esi
    1f46:	89 f2                	mov    %esi,%edx
    1f48:	09 d0                	or     %edx,%eax
    1f4a:	89 45 ec             	mov    %eax,-0x14(%ebp)
    1f4d:	0f b6 45 e4          	movzbl -0x1c(%ebp),%eax
    1f51:	83 e0 03             	and    $0x3,%eax
    1f54:	8d 14 c5 00 00 00 00 	lea    0x0(,%eax,8),%edx
    1f5b:	b8 20 00 00 00       	mov    $0x20,%eax
    1f60:	29 d0                	sub    %edx,%eax
    1f62:	ba ff ff ff ff       	mov    $0xffffffff,%edx
    1f67:	89 d3                	mov    %edx,%ebx
    1f69:	89 c1                	mov    %eax,%ecx
    1f6b:	d3 e3                	shl    %cl,%ebx
    1f6d:	89 d8                	mov    %ebx,%eax
    1f6f:	23 45 f0             	and    -0x10(%ebp),%eax
    1f72:	0f b6 55 e4          	movzbl -0x1c(%ebp),%edx
    1f76:	83 e2 03             	and    $0x3,%edx
    1f79:	8d 0c d5 00 00 00 00 	lea    0x0(,%edx,8),%ecx
    1f80:	ba 20 00 00 00       	mov    $0x20,%edx
    1f85:	29 ca                	sub    %ecx,%edx
    1f87:	8b 5d 10             	mov    0x10(%ebp),%ebx
    1f8a:	89 de                	mov    %ebx,%esi
    1f8c:	89 d1                	mov    %edx,%ecx
    1f8e:	d3 ee                	shr    %cl,%esi
    1f90:	89 f2                	mov    %esi,%edx
    1f92:	09 d0                	or     %edx,%eax
    1f94:	89 45 f0             	mov    %eax,-0x10(%ebp)
    1f97:	0f b6 45 e4          	movzbl -0x1c(%ebp),%eax
    1f9b:	25 fc 00 00 00       	and    $0xfc,%eax
    1fa0:	0b 45 f4             	or     -0xc(%ebp),%eax
    1fa3:	89 44 24 04          	mov    %eax,0x4(%esp)
    1fa7:	c7 04 24 f8 0c 00 00 	movl   $0xcf8,(%esp)
    1fae:	e8 15 e1 ff ff       	call   c8 <IO_Out32>
    1fb3:	8b 45 ec             	mov    -0x14(%ebp),%eax
    1fb6:	89 44 24 04          	mov    %eax,0x4(%esp)
    1fba:	c7 04 24 fc 0c 00 00 	movl   $0xcfc,(%esp)
    1fc1:	e8 02 e1 ff ff       	call   c8 <IO_Out32>
    1fc6:	0f b6 45 e4          	movzbl -0x1c(%ebp),%eax
    1fca:	25 fc 00 00 00       	and    $0xfc,%eax
    1fcf:	83 c0 04             	add    $0x4,%eax
    1fd2:	0b 45 f4             	or     -0xc(%ebp),%eax
    1fd5:	89 44 24 04          	mov    %eax,0x4(%esp)
    1fd9:	c7 04 24 f8 0c 00 00 	movl   $0xcf8,(%esp)
    1fe0:	e8 e3 e0 ff ff       	call   c8 <IO_Out32>
    1fe5:	8b 45 f0             	mov    -0x10(%ebp),%eax
    1fe8:	89 44 24 04          	mov    %eax,0x4(%esp)
    1fec:	c7 04 24 fc 0c 00 00 	movl   $0xcfc,(%esp)
    1ff3:	e8 d0 e0 ff ff       	call   c8 <IO_Out32>
    1ff8:	0f b6 45 e4          	movzbl -0x1c(%ebp),%eax
    1ffc:	25 fc 00 00 00       	and    $0xfc,%eax
    2001:	0b 45 f4             	or     -0xc(%ebp),%eax
    2004:	89 44 24 04          	mov    %eax,0x4(%esp)
    2008:	c7 04 24 f8 0c 00 00 	movl   $0xcf8,(%esp)
    200f:	e8 b4 e0 ff ff       	call   c8 <IO_Out32>
    2014:	c7 04 24 fc 0c 00 00 	movl   $0xcfc,(%esp)
    201b:	e8 95 e0 ff ff       	call   b5 <IO_In32>
    2020:	89 45 ec             	mov    %eax,-0x14(%ebp)
    2023:	0f b6 45 e4          	movzbl -0x1c(%ebp),%eax
    2027:	25 fc 00 00 00       	and    $0xfc,%eax
    202c:	83 c0 04             	add    $0x4,%eax
    202f:	0b 45 f4             	or     -0xc(%ebp),%eax
    2032:	89 44 24 04          	mov    %eax,0x4(%esp)
    2036:	c7 04 24 f8 0c 00 00 	movl   $0xcf8,(%esp)
    203d:	e8 86 e0 ff ff       	call   c8 <IO_Out32>
    2042:	c7 04 24 fc 0c 00 00 	movl   $0xcfc,(%esp)
    2049:	e8 67 e0 ff ff       	call   b5 <IO_In32>
    204e:	89 45 f0             	mov    %eax,-0x10(%ebp)
    2051:	83 c4 30             	add    $0x30,%esp
    2054:	5b                   	pop    %ebx
    2055:	5e                   	pop    %esi
    2056:	5d                   	pop    %ebp
    2057:	c3                   	ret    

00002058 <PCI_ReadData32>:
    2058:	55                   	push   %ebp
    2059:	89 e5                	mov    %esp,%ebp
    205b:	53                   	push   %ebx
    205c:	83 ec 34             	sub    $0x34,%esp
    205f:	8b 45 0c             	mov    0xc(%ebp),%eax
    2062:	88 45 e4             	mov    %al,-0x1c(%ebp)
    2065:	ba 17 1e 00 00       	mov    $0x1e17,%edx
    206a:	0f b7 45 08          	movzwl 0x8(%ebp),%eax
    206e:	66 89 04 24          	mov    %ax,(%esp)
    2072:	0f b6 45 0a          	movzbl 0xa(%ebp),%eax
    2076:	88 44 24 02          	mov    %al,0x2(%esp)
    207a:	ff d2                	call   *%edx
    207c:	89 45 f4             	mov    %eax,-0xc(%ebp)
    207f:	0f b6 45 e4          	movzbl -0x1c(%ebp),%eax
    2083:	83 e0 03             	and    $0x3,%eax
    2086:	85 c0                	test   %eax,%eax
    2088:	75 28                	jne    20b2 <PCI_ReadData32+0x5a>
    208a:	0f b6 45 e4          	movzbl -0x1c(%ebp),%eax
    208e:	0b 45 f4             	or     -0xc(%ebp),%eax
    2091:	89 44 24 04          	mov    %eax,0x4(%esp)
    2095:	c7 04 24 f8 0c 00 00 	movl   $0xcf8,(%esp)
    209c:	e8 27 e0 ff ff       	call   c8 <IO_Out32>
    20a1:	c7 04 24 fc 0c 00 00 	movl   $0xcfc,(%esp)
    20a8:	e8 08 e0 ff ff       	call   b5 <IO_In32>
    20ad:	e9 97 00 00 00       	jmp    2149 <PCI_ReadData32+0xf1>
    20b2:	0f b6 45 e4          	movzbl -0x1c(%ebp),%eax
    20b6:	25 fc 00 00 00       	and    $0xfc,%eax
    20bb:	0b 45 f4             	or     -0xc(%ebp),%eax
    20be:	89 44 24 04          	mov    %eax,0x4(%esp)
    20c2:	c7 04 24 f8 0c 00 00 	movl   $0xcf8,(%esp)
    20c9:	e8 fa df ff ff       	call   c8 <IO_Out32>
    20ce:	c7 04 24 fc 0c 00 00 	movl   $0xcfc,(%esp)
    20d5:	e8 db df ff ff       	call   b5 <IO_In32>
    20da:	89 45 f0             	mov    %eax,-0x10(%ebp)
    20dd:	0f b6 45 e4          	movzbl -0x1c(%ebp),%eax
    20e1:	83 e0 03             	and    $0x3,%eax
    20e4:	c1 e0 03             	shl    $0x3,%eax
    20e7:	8b 55 f0             	mov    -0x10(%ebp),%edx
    20ea:	89 d3                	mov    %edx,%ebx
    20ec:	89 c1                	mov    %eax,%ecx
    20ee:	d3 eb                	shr    %cl,%ebx
    20f0:	89 d8                	mov    %ebx,%eax
    20f2:	89 45 ec             	mov    %eax,-0x14(%ebp)
    20f5:	0f b6 45 e4          	movzbl -0x1c(%ebp),%eax
    20f9:	25 fc 00 00 00       	and    $0xfc,%eax
    20fe:	83 c0 04             	add    $0x4,%eax
    2101:	0b 45 f4             	or     -0xc(%ebp),%eax
    2104:	89 44 24 04          	mov    %eax,0x4(%esp)
    2108:	c7 04 24 f8 0c 00 00 	movl   $0xcf8,(%esp)
    210f:	e8 b4 df ff ff       	call   c8 <IO_Out32>
    2114:	c7 04 24 fc 0c 00 00 	movl   $0xcfc,(%esp)
    211b:	e8 95 df ff ff       	call   b5 <IO_In32>
    2120:	89 45 f0             	mov    %eax,-0x10(%ebp)
    2123:	0f b6 45 e4          	movzbl -0x1c(%ebp),%eax
    2127:	83 e0 03             	and    $0x3,%eax
    212a:	8d 14 c5 00 00 00 00 	lea    0x0(,%eax,8),%edx
    2131:	b8 20 00 00 00       	mov    $0x20,%eax
    2136:	29 d0                	sub    %edx,%eax
    2138:	8b 55 f0             	mov    -0x10(%ebp),%edx
    213b:	89 d3                	mov    %edx,%ebx
    213d:	89 c1                	mov    %eax,%ecx
    213f:	d3 e3                	shl    %cl,%ebx
    2141:	89 d8                	mov    %ebx,%eax
    2143:	09 45 ec             	or     %eax,-0x14(%ebp)
    2146:	8b 45 ec             	mov    -0x14(%ebp),%eax
    2149:	83 c4 34             	add    $0x34,%esp
    214c:	5b                   	pop    %ebx
    214d:	5d                   	pop    %ebp
    214e:	c3                   	ret    

0000214f <PCI_WriteData16>:
    214f:	55                   	push   %ebp
    2150:	89 e5                	mov    %esp,%ebp
    2152:	83 ec 38             	sub    $0x38,%esp
    2155:	8b 45 0c             	mov    0xc(%ebp),%eax
    2158:	88 45 e4             	mov    %al,-0x1c(%ebp)
    215b:	81 65 10 ff ff 00 00 	andl   $0xffff,0x10(%ebp)
    2162:	ba 58 20 00 00       	mov    $0x2058,%edx
    2167:	0f b6 45 e4          	movzbl -0x1c(%ebp),%eax
    216b:	89 44 24 04          	mov    %eax,0x4(%esp)
    216f:	0f b7 45 08          	movzwl 0x8(%ebp),%eax
    2173:	66 89 04 24          	mov    %ax,(%esp)
    2177:	0f b6 45 0a          	movzbl 0xa(%ebp),%eax
    217b:	88 44 24 02          	mov    %al,0x2(%esp)
    217f:	ff d2                	call   *%edx
    2181:	89 45 f4             	mov    %eax,-0xc(%ebp)
    2184:	81 65 f4 00 00 ff ff 	andl   $0xffff0000,-0xc(%ebp)
    218b:	8b 45 10             	mov    0x10(%ebp),%eax
    218e:	09 45 f4             	or     %eax,-0xc(%ebp)
    2191:	b9 4d 1e 00 00       	mov    $0x1e4d,%ecx
    2196:	0f b6 45 e4          	movzbl -0x1c(%ebp),%eax
    219a:	8b 55 f4             	mov    -0xc(%ebp),%edx
    219d:	89 54 24 08          	mov    %edx,0x8(%esp)
    21a1:	89 44 24 04          	mov    %eax,0x4(%esp)
    21a5:	0f b7 45 08          	movzwl 0x8(%ebp),%eax
    21a9:	66 89 04 24          	mov    %ax,(%esp)
    21ad:	0f b6 45 0a          	movzbl 0xa(%ebp),%eax
    21b1:	88 44 24 02          	mov    %al,0x2(%esp)
    21b5:	ff d1                	call   *%ecx
    21b7:	c9                   	leave  
    21b8:	c3                   	ret    

000021b9 <PCI_ReadData16>:
    21b9:	55                   	push   %ebp
    21ba:	89 e5                	mov    %esp,%ebp
    21bc:	83 ec 38             	sub    $0x38,%esp
    21bf:	8b 45 0c             	mov    0xc(%ebp),%eax
    21c2:	88 45 e4             	mov    %al,-0x1c(%ebp)
    21c5:	ba 58 20 00 00       	mov    $0x2058,%edx
    21ca:	0f b6 45 e4          	movzbl -0x1c(%ebp),%eax
    21ce:	89 44 24 04          	mov    %eax,0x4(%esp)
    21d2:	0f b7 45 08          	movzwl 0x8(%ebp),%eax
    21d6:	66 89 04 24          	mov    %ax,(%esp)
    21da:	0f b6 45 0a          	movzbl 0xa(%ebp),%eax
    21de:	88 44 24 02          	mov    %al,0x2(%esp)
    21e2:	ff d2                	call   *%edx
    21e4:	89 45 f4             	mov    %eax,-0xc(%ebp)
    21e7:	8b 45 f4             	mov    -0xc(%ebp),%eax
    21ea:	25 ff ff 00 00       	and    $0xffff,%eax
    21ef:	c9                   	leave  
    21f0:	c3                   	ret    

000021f1 <PCI_WriteData8>:
    21f1:	55                   	push   %ebp
    21f2:	89 e5                	mov    %esp,%ebp
    21f4:	83 ec 38             	sub    $0x38,%esp
    21f7:	8b 55 0c             	mov    0xc(%ebp),%edx
    21fa:	8b 45 10             	mov    0x10(%ebp),%eax
    21fd:	88 55 e4             	mov    %dl,-0x1c(%ebp)
    2200:	88 45 e0             	mov    %al,-0x20(%ebp)
    2203:	ba 58 20 00 00       	mov    $0x2058,%edx
    2208:	0f b6 45 e4          	movzbl -0x1c(%ebp),%eax
    220c:	89 44 24 04          	mov    %eax,0x4(%esp)
    2210:	0f b7 45 08          	movzwl 0x8(%ebp),%eax
    2214:	66 89 04 24          	mov    %ax,(%esp)
    2218:	0f b6 45 0a          	movzbl 0xa(%ebp),%eax
    221c:	88 44 24 02          	mov    %al,0x2(%esp)
    2220:	ff d2                	call   *%edx
    2222:	89 45 f4             	mov    %eax,-0xc(%ebp)
    2225:	81 65 f4 00 ff ff ff 	andl   $0xffffff00,-0xc(%ebp)
    222c:	0f b6 45 e0          	movzbl -0x20(%ebp),%eax
    2230:	09 45 f4             	or     %eax,-0xc(%ebp)
    2233:	b9 4d 1e 00 00       	mov    $0x1e4d,%ecx
    2238:	0f b6 45 e4          	movzbl -0x1c(%ebp),%eax
    223c:	8b 55 f4             	mov    -0xc(%ebp),%edx
    223f:	89 54 24 08          	mov    %edx,0x8(%esp)
    2243:	89 44 24 04          	mov    %eax,0x4(%esp)
    2247:	0f b7 45 08          	movzwl 0x8(%ebp),%eax
    224b:	66 89 04 24          	mov    %ax,(%esp)
    224f:	0f b6 45 0a          	movzbl 0xa(%ebp),%eax
    2253:	88 44 24 02          	mov    %al,0x2(%esp)
    2257:	ff d1                	call   *%ecx
    2259:	c9                   	leave  
    225a:	c3                   	ret    

0000225b <PCI_ReadData8>:
    225b:	55                   	push   %ebp
    225c:	89 e5                	mov    %esp,%ebp
    225e:	83 ec 38             	sub    $0x38,%esp
    2261:	8b 45 0c             	mov    0xc(%ebp),%eax
    2264:	88 45 e4             	mov    %al,-0x1c(%ebp)
    2267:	ba 58 20 00 00       	mov    $0x2058,%edx
    226c:	0f b6 45 e4          	movzbl -0x1c(%ebp),%eax
    2270:	89 44 24 04          	mov    %eax,0x4(%esp)
    2274:	0f b7 45 08          	movzwl 0x8(%ebp),%eax
    2278:	66 89 04 24          	mov    %ax,(%esp)
    227c:	0f b6 45 0a          	movzbl 0xa(%ebp),%eax
    2280:	88 44 24 02          	mov    %al,0x2(%esp)
    2284:	ff d2                	call   *%edx
    2286:	89 45 f4             	mov    %eax,-0xc(%ebp)
    2289:	8b 45 f4             	mov    -0xc(%ebp),%eax
    228c:	c9                   	leave  
    228d:	c3                   	ret    

0000228e <ICH7_USB_EHCI_Init>:
    228e:	55                   	push   %ebp
    228f:	89 e5                	mov    %esp,%ebp
    2291:	83 ec 28             	sub    $0x28,%esp
    2294:	c6 05 c8 ba 00 00 00 	movb   $0x0,0xbac8
    229b:	c6 05 c9 ba 00 00 1d 	movb   $0x1d,0xbac9
    22a2:	c6 05 ca ba 00 00 07 	movb   $0x7,0xbaca
    22a9:	ba 58 20 00 00       	mov    $0x2058,%edx
    22ae:	c7 44 24 04 10 00 00 	movl   $0x10,0x4(%esp)
    22b5:	00 
    22b6:	0f b7 05 c8 ba 00 00 	movzwl 0xbac8,%eax
    22bd:	66 89 04 24          	mov    %ax,(%esp)
    22c1:	0f b6 05 ca ba 00 00 	movzbl 0xbaca,%eax
    22c8:	88 44 24 02          	mov    %al,0x2(%esp)
    22cc:	ff d2                	call   *%edx
    22ce:	25 00 fc ff ff       	and    $0xfffffc00,%eax
    22d3:	89 45 f4             	mov    %eax,-0xc(%ebp)
    22d6:	ba 4f 21 00 00       	mov    $0x214f,%edx
    22db:	c7 44 24 08 06 04 00 	movl   $0x406,0x8(%esp)
    22e2:	00 
    22e3:	c7 44 24 04 04 00 00 	movl   $0x4,0x4(%esp)
    22ea:	00 
    22eb:	0f b7 05 c8 ba 00 00 	movzwl 0xbac8,%eax
    22f2:	66 89 04 24          	mov    %ax,(%esp)
    22f6:	0f b6 05 ca ba 00 00 	movzbl 0xbaca,%eax
    22fd:	88 44 24 02          	mov    %al,0x2(%esp)
    2301:	ff d2                	call   *%edx
    2303:	c7 44 24 04 02 00 08 	movl   $0x80002,0x4(%esp)
    230a:	00 
    230b:	c7 04 24 20 00 00 00 	movl   $0x20,(%esp)
    2312:	e8 93 de ff ff       	call   1aa <WritePhysicsMemory32>
    2317:	8b 45 f4             	mov    -0xc(%ebp),%eax
    231a:	83 c0 02             	add    $0x2,%eax
    231d:	89 04 24             	mov    %eax,(%esp)
    2320:	e8 75 de ff ff       	call   19a <ReadPhysicsMemory16>
    2325:	89 45 f0             	mov    %eax,-0x10(%ebp)
    2328:	c9                   	leave  
    2329:	c3                   	ret    

0000232a <ArgCtrl_GetVarArgTableStackAddress>:
    232a:	55                   	push   %ebp
    232b:	89 e5                	mov    %esp,%ebp
    232d:	8b 45 08             	mov    0x8(%ebp),%eax
    2330:	83 c0 04             	add    $0x4,%eax
    2333:	5d                   	pop    %ebp
    2334:	c3                   	ret    

00002335 <ArgCtrl_GetVarArg_uint>:
    2335:	55                   	push   %ebp
    2336:	89 e5                	mov    %esp,%ebp
    2338:	83 ec 18             	sub    $0x18,%esp
    233b:	8b 45 0c             	mov    0xc(%ebp),%eax
    233e:	c1 e0 02             	shl    $0x2,%eax
    2341:	01 45 08             	add    %eax,0x8(%ebp)
    2344:	8b 45 08             	mov    0x8(%ebp),%eax
    2347:	89 04 24             	mov    %eax,(%esp)
    234a:	e8 a1 de ff ff       	call   1f0 <GetStackValue>
    234f:	c9                   	leave  
    2350:	c3                   	ret    

00002351 <ArgCtrl_GetVarArg_uchar>:
    2351:	55                   	push   %ebp
    2352:	89 e5                	mov    %esp,%ebp
    2354:	83 ec 18             	sub    $0x18,%esp
    2357:	8b 45 0c             	mov    0xc(%ebp),%eax
    235a:	c1 e0 02             	shl    $0x2,%eax
    235d:	01 45 08             	add    %eax,0x8(%ebp)
    2360:	8b 45 08             	mov    0x8(%ebp),%eax
    2363:	89 04 24             	mov    %eax,(%esp)
    2366:	e8 85 de ff ff       	call   1f0 <GetStackValue>
    236b:	c9                   	leave  
    236c:	c3                   	ret    

0000236d <ArgCtrl_GetVarArg_ucharptr>:
    236d:	55                   	push   %ebp
    236e:	89 e5                	mov    %esp,%ebp
    2370:	83 ec 18             	sub    $0x18,%esp
    2373:	8b 45 0c             	mov    0xc(%ebp),%eax
    2376:	c1 e0 02             	shl    $0x2,%eax
    2379:	01 45 08             	add    %eax,0x8(%ebp)
    237c:	8b 45 08             	mov    0x8(%ebp),%eax
    237f:	89 04 24             	mov    %eax,(%esp)
    2382:	e8 69 de ff ff       	call   1f0 <GetStackValue>
    2387:	c9                   	leave  
    2388:	c3                   	ret    

00002389 <CPU_Init>:
    2389:	55                   	push   %ebp
    238a:	89 e5                	mov    %esp,%ebp
    238c:	83 ec 28             	sub    $0x28,%esp
    238f:	e8 7d de ff ff       	call   211 <Get1sCycle>
    2394:	89 45 f0             	mov    %eax,-0x10(%ebp)
    2397:	89 55 f4             	mov    %edx,-0xc(%ebp)
    239a:	e8 72 de ff ff       	call   211 <Get1sCycle>
    239f:	01 45 f0             	add    %eax,-0x10(%ebp)
    23a2:	11 55 f4             	adc    %edx,-0xc(%ebp)
    23a5:	8b 45 f0             	mov    -0x10(%ebp),%eax
    23a8:	8b 55 f4             	mov    -0xc(%ebp),%edx
    23ab:	0f ac d0 01          	shrd   $0x1,%edx,%eax
    23af:	d1 ea                	shr    %edx
    23b1:	89 45 f0             	mov    %eax,-0x10(%ebp)
    23b4:	89 55 f4             	mov    %edx,-0xc(%ebp)
    23b7:	8b 45 f0             	mov    -0x10(%ebp),%eax
    23ba:	8b 55 f4             	mov    -0xc(%ebp),%edx
    23bd:	a3 e0 b9 00 00       	mov    %eax,0xb9e0
    23c2:	89 15 e4 b9 00 00    	mov    %edx,0xb9e4
    23c8:	8b 45 f0             	mov    -0x10(%ebp),%eax
    23cb:	8b 55 f4             	mov    -0xc(%ebp),%edx
    23ce:	c7 44 24 08 e8 03 00 	movl   $0x3e8,0x8(%esp)
    23d5:	00 
    23d6:	c7 44 24 0c 00 00 00 	movl   $0x0,0xc(%esp)
    23dd:	00 
    23de:	89 04 24             	mov    %eax,(%esp)
    23e1:	89 54 24 04          	mov    %edx,0x4(%esp)
    23e5:	e8 f5 e4 ff ff       	call   8df <__udivdi3>
    23ea:	89 45 f0             	mov    %eax,-0x10(%ebp)
    23ed:	89 55 f4             	mov    %edx,-0xc(%ebp)
    23f0:	8b 45 f0             	mov    -0x10(%ebp),%eax
    23f3:	8b 55 f4             	mov    -0xc(%ebp),%edx
    23f6:	a3 e8 b9 00 00       	mov    %eax,0xb9e8
    23fb:	89 15 ec b9 00 00    	mov    %edx,0xb9ec
    2401:	8b 45 f0             	mov    -0x10(%ebp),%eax
    2404:	8b 55 f4             	mov    -0xc(%ebp),%edx
    2407:	c7 44 24 08 e8 03 00 	movl   $0x3e8,0x8(%esp)
    240e:	00 
    240f:	c7 44 24 0c 00 00 00 	movl   $0x0,0xc(%esp)
    2416:	00 
    2417:	89 04 24             	mov    %eax,(%esp)
    241a:	89 54 24 04          	mov    %edx,0x4(%esp)
    241e:	e8 bc e4 ff ff       	call   8df <__udivdi3>
    2423:	89 45 f0             	mov    %eax,-0x10(%ebp)
    2426:	89 55 f4             	mov    %edx,-0xc(%ebp)
    2429:	8b 45 f0             	mov    -0x10(%ebp),%eax
    242c:	8b 55 f4             	mov    -0xc(%ebp),%edx
    242f:	a3 f0 b9 00 00       	mov    %eax,0xb9f0
    2434:	89 15 f4 b9 00 00    	mov    %edx,0xb9f4
    243a:	8b 45 f0             	mov    -0x10(%ebp),%eax
    243d:	8b 55 f4             	mov    -0xc(%ebp),%edx
    2440:	c7 44 24 08 e8 03 00 	movl   $0x3e8,0x8(%esp)
    2447:	00 
    2448:	c7 44 24 0c 00 00 00 	movl   $0x0,0xc(%esp)
    244f:	00 
    2450:	89 04 24             	mov    %eax,(%esp)
    2453:	89 54 24 04          	mov    %edx,0x4(%esp)
    2457:	e8 83 e4 ff ff       	call   8df <__udivdi3>
    245c:	89 45 f0             	mov    %eax,-0x10(%ebp)
    245f:	89 55 f4             	mov    %edx,-0xc(%ebp)
    2462:	8b 45 f0             	mov    -0x10(%ebp),%eax
    2465:	8b 55 f4             	mov    -0xc(%ebp),%edx
    2468:	a3 f8 b9 00 00       	mov    %eax,0xb9f8
    246d:	89 15 fc b9 00 00    	mov    %edx,0xb9fc
    2473:	c9                   	leave  
    2474:	c3                   	ret    

00002475 <CPU_GetMsg>:
    2475:	55                   	push   %ebp
    2476:	89 e5                	mov    %esp,%ebp
    2478:	8b 45 08             	mov    0x8(%ebp),%eax
    247b:	8b 15 e0 b9 00 00    	mov    0xb9e0,%edx
    2481:	89 10                	mov    %edx,(%eax)
    2483:	8b 15 e4 b9 00 00    	mov    0xb9e4,%edx
    2489:	89 50 04             	mov    %edx,0x4(%eax)
    248c:	8b 15 e8 b9 00 00    	mov    0xb9e8,%edx
    2492:	89 50 08             	mov    %edx,0x8(%eax)
    2495:	8b 15 ec b9 00 00    	mov    0xb9ec,%edx
    249b:	89 50 0c             	mov    %edx,0xc(%eax)
    249e:	8b 15 f0 b9 00 00    	mov    0xb9f0,%edx
    24a4:	89 50 10             	mov    %edx,0x10(%eax)
    24a7:	8b 15 f4 b9 00 00    	mov    0xb9f4,%edx
    24ad:	89 50 14             	mov    %edx,0x14(%eax)
    24b0:	8b 15 f8 b9 00 00    	mov    0xb9f8,%edx
    24b6:	89 50 18             	mov    %edx,0x18(%eax)
    24b9:	8b 15 fc b9 00 00    	mov    0xb9fc,%edx
    24bf:	89 50 1c             	mov    %edx,0x1c(%eax)
    24c2:	8b 45 08             	mov    0x8(%ebp),%eax
    24c5:	5d                   	pop    %ebp
    24c6:	c2 04 00             	ret    $0x4

000024c9 <Delayns>:
    24c9:	55                   	push   %ebp
    24ca:	89 e5                	mov    %esp,%ebp
    24cc:	57                   	push   %edi
    24cd:	56                   	push   %esi
    24ce:	53                   	push   %ebx
    24cf:	83 ec 4c             	sub    $0x4c,%esp
    24d2:	8d 45 b8             	lea    -0x48(%ebp),%eax
    24d5:	89 04 24             	mov    %eax,(%esp)
    24d8:	e8 98 ff ff ff       	call   2475 <CPU_GetMsg>
    24dd:	83 ec 04             	sub    $0x4,%esp
    24e0:	e8 16 dd ff ff       	call   1fb <GetRDTSC>
    24e5:	89 45 e0             	mov    %eax,-0x20(%ebp)
    24e8:	89 55 e4             	mov    %edx,-0x1c(%ebp)
    24eb:	8b 45 d0             	mov    -0x30(%ebp),%eax
    24ee:	8b 55 d4             	mov    -0x2c(%ebp),%edx
    24f1:	8b 4d 08             	mov    0x8(%ebp),%ecx
    24f4:	bb 00 00 00 00       	mov    $0x0,%ebx
    24f9:	89 d7                	mov    %edx,%edi
    24fb:	0f af f9             	imul   %ecx,%edi
    24fe:	89 de                	mov    %ebx,%esi
    2500:	0f af f0             	imul   %eax,%esi
    2503:	01 fe                	add    %edi,%esi
    2505:	f7 e1                	mul    %ecx
    2507:	8d 0c 16             	lea    (%esi,%edx,1),%ecx
    250a:	89 ca                	mov    %ecx,%edx
    250c:	89 45 d8             	mov    %eax,-0x28(%ebp)
    250f:	89 55 dc             	mov    %edx,-0x24(%ebp)
    2512:	89 45 d8             	mov    %eax,-0x28(%ebp)
    2515:	89 55 dc             	mov    %edx,-0x24(%ebp)
    2518:	90                   	nop
    2519:	e8 dd dc ff ff       	call   1fb <GetRDTSC>
    251e:	2b 45 e0             	sub    -0x20(%ebp),%eax
    2521:	1b 55 e4             	sbb    -0x1c(%ebp),%edx
    2524:	3b 55 dc             	cmp    -0x24(%ebp),%edx
    2527:	72 f0                	jb     2519 <Delayns+0x50>
    2529:	3b 55 dc             	cmp    -0x24(%ebp),%edx
    252c:	77 05                	ja     2533 <Delayns+0x6a>
    252e:	3b 45 d8             	cmp    -0x28(%ebp),%eax
    2531:	72 e6                	jb     2519 <Delayns+0x50>
    2533:	8d 65 f4             	lea    -0xc(%ebp),%esp
    2536:	5b                   	pop    %ebx
    2537:	5e                   	pop    %esi
    2538:	5f                   	pop    %edi
    2539:	5d                   	pop    %ebp
    253a:	c3                   	ret    

0000253b <Delayus>:
    253b:	55                   	push   %ebp
    253c:	89 e5                	mov    %esp,%ebp
    253e:	57                   	push   %edi
    253f:	56                   	push   %esi
    2540:	53                   	push   %ebx
    2541:	83 ec 4c             	sub    $0x4c,%esp
    2544:	8d 45 b8             	lea    -0x48(%ebp),%eax
    2547:	89 04 24             	mov    %eax,(%esp)
    254a:	e8 26 ff ff ff       	call   2475 <CPU_GetMsg>
    254f:	83 ec 04             	sub    $0x4,%esp
    2552:	e8 a4 dc ff ff       	call   1fb <GetRDTSC>
    2557:	89 45 e0             	mov    %eax,-0x20(%ebp)
    255a:	89 55 e4             	mov    %edx,-0x1c(%ebp)
    255d:	8b 45 c8             	mov    -0x38(%ebp),%eax
    2560:	8b 55 cc             	mov    -0x34(%ebp),%edx
    2563:	8b 4d 08             	mov    0x8(%ebp),%ecx
    2566:	bb 00 00 00 00       	mov    $0x0,%ebx
    256b:	89 d7                	mov    %edx,%edi
    256d:	0f af f9             	imul   %ecx,%edi
    2570:	89 de                	mov    %ebx,%esi
    2572:	0f af f0             	imul   %eax,%esi
    2575:	01 fe                	add    %edi,%esi
    2577:	f7 e1                	mul    %ecx
    2579:	8d 0c 16             	lea    (%esi,%edx,1),%ecx
    257c:	89 ca                	mov    %ecx,%edx
    257e:	89 45 d8             	mov    %eax,-0x28(%ebp)
    2581:	89 55 dc             	mov    %edx,-0x24(%ebp)
    2584:	89 45 d8             	mov    %eax,-0x28(%ebp)
    2587:	89 55 dc             	mov    %edx,-0x24(%ebp)
    258a:	90                   	nop
    258b:	e8 6b dc ff ff       	call   1fb <GetRDTSC>
    2590:	2b 45 e0             	sub    -0x20(%ebp),%eax
    2593:	1b 55 e4             	sbb    -0x1c(%ebp),%edx
    2596:	3b 55 dc             	cmp    -0x24(%ebp),%edx
    2599:	72 f0                	jb     258b <Delayus+0x50>
    259b:	3b 55 dc             	cmp    -0x24(%ebp),%edx
    259e:	77 05                	ja     25a5 <Delayus+0x6a>
    25a0:	3b 45 d8             	cmp    -0x28(%ebp),%eax
    25a3:	72 e6                	jb     258b <Delayus+0x50>
    25a5:	8d 65 f4             	lea    -0xc(%ebp),%esp
    25a8:	5b                   	pop    %ebx
    25a9:	5e                   	pop    %esi
    25aa:	5f                   	pop    %edi
    25ab:	5d                   	pop    %ebp
    25ac:	c3                   	ret    

000025ad <Delayms>:
    25ad:	55                   	push   %ebp
    25ae:	89 e5                	mov    %esp,%ebp
    25b0:	57                   	push   %edi
    25b1:	56                   	push   %esi
    25b2:	53                   	push   %ebx
    25b3:	83 ec 4c             	sub    $0x4c,%esp
    25b6:	8d 45 b8             	lea    -0x48(%ebp),%eax
    25b9:	89 04 24             	mov    %eax,(%esp)
    25bc:	e8 b4 fe ff ff       	call   2475 <CPU_GetMsg>
    25c1:	83 ec 04             	sub    $0x4,%esp
    25c4:	e8 32 dc ff ff       	call   1fb <GetRDTSC>
    25c9:	89 45 e0             	mov    %eax,-0x20(%ebp)
    25cc:	89 55 e4             	mov    %edx,-0x1c(%ebp)
    25cf:	8b 45 c0             	mov    -0x40(%ebp),%eax
    25d2:	8b 55 c4             	mov    -0x3c(%ebp),%edx
    25d5:	8b 4d 08             	mov    0x8(%ebp),%ecx
    25d8:	bb 00 00 00 00       	mov    $0x0,%ebx
    25dd:	89 d7                	mov    %edx,%edi
    25df:	0f af f9             	imul   %ecx,%edi
    25e2:	89 de                	mov    %ebx,%esi
    25e4:	0f af f0             	imul   %eax,%esi
    25e7:	01 fe                	add    %edi,%esi
    25e9:	f7 e1                	mul    %ecx
    25eb:	8d 0c 16             	lea    (%esi,%edx,1),%ecx
    25ee:	89 ca                	mov    %ecx,%edx
    25f0:	89 45 d8             	mov    %eax,-0x28(%ebp)
    25f3:	89 55 dc             	mov    %edx,-0x24(%ebp)
    25f6:	89 45 d8             	mov    %eax,-0x28(%ebp)
    25f9:	89 55 dc             	mov    %edx,-0x24(%ebp)
    25fc:	90                   	nop
    25fd:	e8 f9 db ff ff       	call   1fb <GetRDTSC>
    2602:	2b 45 e0             	sub    -0x20(%ebp),%eax
    2605:	1b 55 e4             	sbb    -0x1c(%ebp),%edx
    2608:	3b 55 dc             	cmp    -0x24(%ebp),%edx
    260b:	72 f0                	jb     25fd <Delayms+0x50>
    260d:	3b 55 dc             	cmp    -0x24(%ebp),%edx
    2610:	77 05                	ja     2617 <Delayms+0x6a>
    2612:	3b 45 d8             	cmp    -0x28(%ebp),%eax
    2615:	72 e6                	jb     25fd <Delayms+0x50>
    2617:	8d 65 f4             	lea    -0xc(%ebp),%esp
    261a:	5b                   	pop    %ebx
    261b:	5e                   	pop    %esi
    261c:	5f                   	pop    %edi
    261d:	5d                   	pop    %ebp
    261e:	c3                   	ret    

0000261f <Delays>:
    261f:	55                   	push   %ebp
    2620:	89 e5                	mov    %esp,%ebp
    2622:	57                   	push   %edi
    2623:	56                   	push   %esi
    2624:	53                   	push   %ebx
    2625:	83 ec 6c             	sub    $0x6c,%esp
    2628:	8d 45 b0             	lea    -0x50(%ebp),%eax
    262b:	89 04 24             	mov    %eax,(%esp)
    262e:	e8 42 fe ff ff       	call   2475 <CPU_GetMsg>
    2633:	83 ec 04             	sub    $0x4,%esp
    2636:	e8 c0 db ff ff       	call   1fb <GetRDTSC>
    263b:	89 45 d8             	mov    %eax,-0x28(%ebp)
    263e:	89 55 dc             	mov    %edx,-0x24(%ebp)
    2641:	8b 45 b0             	mov    -0x50(%ebp),%eax
    2644:	8b 55 b4             	mov    -0x4c(%ebp),%edx
    2647:	8b 4d 08             	mov    0x8(%ebp),%ecx
    264a:	bb 00 00 00 00       	mov    $0x0,%ebx
    264f:	89 d7                	mov    %edx,%edi
    2651:	0f af f9             	imul   %ecx,%edi
    2654:	89 de                	mov    %ebx,%esi
    2656:	0f af f0             	imul   %eax,%esi
    2659:	01 fe                	add    %edi,%esi
    265b:	f7 e1                	mul    %ecx
    265d:	8d 0c 16             	lea    (%esi,%edx,1),%ecx
    2660:	89 ca                	mov    %ecx,%edx
    2662:	89 45 d0             	mov    %eax,-0x30(%ebp)
    2665:	89 55 d4             	mov    %edx,-0x2c(%ebp)
    2668:	89 45 d0             	mov    %eax,-0x30(%ebp)
    266b:	89 55 d4             	mov    %edx,-0x2c(%ebp)
    266e:	8b 45 d0             	mov    -0x30(%ebp),%eax
    2671:	8b 55 d4             	mov    -0x2c(%ebp),%edx
    2674:	89 44 24 04          	mov    %eax,0x4(%esp)
    2678:	89 54 24 08          	mov    %edx,0x8(%esp)
    267c:	c7 04 24 59 71 00 00 	movl   $0x7159,(%esp)
    2683:	e8 af eb ff ff       	call   1237 <Video_printf>
    2688:	8b 45 d8             	mov    -0x28(%ebp),%eax
    268b:	8b 55 dc             	mov    -0x24(%ebp),%edx
    268e:	89 44 24 04          	mov    %eax,0x4(%esp)
    2692:	89 54 24 08          	mov    %edx,0x8(%esp)
    2696:	c7 04 24 65 71 00 00 	movl   $0x7165,(%esp)
    269d:	e8 95 eb ff ff       	call   1237 <Video_printf>
    26a2:	e8 54 db ff ff       	call   1fb <GetRDTSC>
    26a7:	89 45 e0             	mov    %eax,-0x20(%ebp)
    26aa:	89 55 e4             	mov    %edx,-0x1c(%ebp)
    26ad:	eb 0b                	jmp    26ba <Delays+0x9b>
    26af:	e8 47 db ff ff       	call   1fb <GetRDTSC>
    26b4:	89 45 e0             	mov    %eax,-0x20(%ebp)
    26b7:	89 55 e4             	mov    %edx,-0x1c(%ebp)
    26ba:	8b 4d d8             	mov    -0x28(%ebp),%ecx
    26bd:	8b 5d dc             	mov    -0x24(%ebp),%ebx
    26c0:	8b 45 e0             	mov    -0x20(%ebp),%eax
    26c3:	8b 55 e4             	mov    -0x1c(%ebp),%edx
    26c6:	29 c8                	sub    %ecx,%eax
    26c8:	19 da                	sbb    %ebx,%edx
    26ca:	3b 55 d4             	cmp    -0x2c(%ebp),%edx
    26cd:	72 e0                	jb     26af <Delays+0x90>
    26cf:	3b 55 d4             	cmp    -0x2c(%ebp),%edx
    26d2:	77 05                	ja     26d9 <Delays+0xba>
    26d4:	3b 45 d0             	cmp    -0x30(%ebp),%eax
    26d7:	72 d6                	jb     26af <Delays+0x90>
    26d9:	e8 1d db ff ff       	call   1fb <GetRDTSC>
    26de:	89 44 24 04          	mov    %eax,0x4(%esp)
    26e2:	89 54 24 08          	mov    %edx,0x8(%esp)
    26e6:	c7 04 24 75 71 00 00 	movl   $0x7175,(%esp)
    26ed:	e8 45 eb ff ff       	call   1237 <Video_printf>
    26f2:	8b 45 e0             	mov    -0x20(%ebp),%eax
    26f5:	8b 55 e4             	mov    -0x1c(%ebp),%edx
    26f8:	89 44 24 14          	mov    %eax,0x14(%esp)
    26fc:	89 54 24 18          	mov    %edx,0x18(%esp)
    2700:	8b 45 d0             	mov    -0x30(%ebp),%eax
    2703:	8b 55 d4             	mov    -0x2c(%ebp),%edx
    2706:	89 44 24 0c          	mov    %eax,0xc(%esp)
    270a:	89 54 24 10          	mov    %edx,0x10(%esp)
    270e:	8b 45 d8             	mov    -0x28(%ebp),%eax
    2711:	8b 55 dc             	mov    -0x24(%ebp),%edx
    2714:	89 44 24 04          	mov    %eax,0x4(%esp)
    2718:	89 54 24 08          	mov    %edx,0x8(%esp)
    271c:	c7 04 24 83 71 00 00 	movl   $0x7183,(%esp)
    2723:	e8 0f eb ff ff       	call   1237 <Video_printf>
    2728:	8b 4d d8             	mov    -0x28(%ebp),%ecx
    272b:	8b 5d dc             	mov    -0x24(%ebp),%ebx
    272e:	8b 45 e0             	mov    -0x20(%ebp),%eax
    2731:	8b 55 e4             	mov    -0x1c(%ebp),%edx
    2734:	29 c8                	sub    %ecx,%eax
    2736:	19 da                	sbb    %ebx,%edx
    2738:	3b 55 d4             	cmp    -0x2c(%ebp),%edx
    273b:	77 18                	ja     2755 <Delays+0x136>
    273d:	3b 55 d4             	cmp    -0x2c(%ebp),%edx
    2740:	72 05                	jb     2747 <Delays+0x128>
    2742:	3b 45 d0             	cmp    -0x30(%ebp),%eax
    2745:	73 0e                	jae    2755 <Delays+0x136>
    2747:	c7 04 24 96 71 00 00 	movl   $0x7196,(%esp)
    274e:	e8 e4 ea ff ff       	call   1237 <Video_printf>
    2753:	eb 0c                	jmp    2761 <Delays+0x142>
    2755:	c7 04 24 9c 71 00 00 	movl   $0x719c,(%esp)
    275c:	e8 d6 ea ff ff       	call   1237 <Video_printf>
    2761:	8d 65 f4             	lea    -0xc(%ebp),%esp
    2764:	5b                   	pop    %ebx
    2765:	5e                   	pop    %esi
    2766:	5f                   	pop    %edi
    2767:	5d                   	pop    %ebp
    2768:	c3                   	ret    

00002769 <Delaym>:
    2769:	55                   	push   %ebp
    276a:	89 e5                	mov    %esp,%ebp
    276c:	57                   	push   %edi
    276d:	56                   	push   %esi
    276e:	53                   	push   %ebx
    276f:	83 ec 4c             	sub    $0x4c,%esp
    2772:	8d 45 b8             	lea    -0x48(%ebp),%eax
    2775:	89 04 24             	mov    %eax,(%esp)
    2778:	e8 f8 fc ff ff       	call   2475 <CPU_GetMsg>
    277d:	83 ec 04             	sub    $0x4,%esp
    2780:	e8 76 da ff ff       	call   1fb <GetRDTSC>
    2785:	89 45 e0             	mov    %eax,-0x20(%ebp)
    2788:	89 55 e4             	mov    %edx,-0x1c(%ebp)
    278b:	8b 4d b8             	mov    -0x48(%ebp),%ecx
    278e:	8b 5d bc             	mov    -0x44(%ebp),%ebx
    2791:	8b 45 08             	mov    0x8(%ebp),%eax
    2794:	ba 00 00 00 00       	mov    $0x0,%edx
    2799:	89 df                	mov    %ebx,%edi
    279b:	0f af f8             	imul   %eax,%edi
    279e:	89 d6                	mov    %edx,%esi
    27a0:	0f af f1             	imul   %ecx,%esi
    27a3:	01 fe                	add    %edi,%esi
    27a5:	f7 e1                	mul    %ecx
    27a7:	8d 0c 16             	lea    (%esi,%edx,1),%ecx
    27aa:	89 ca                	mov    %ecx,%edx
    27ac:	6b da 3c             	imul   $0x3c,%edx,%ebx
    27af:	6b c8 00             	imul   $0x0,%eax,%ecx
    27b2:	01 cb                	add    %ecx,%ebx
    27b4:	b9 3c 00 00 00       	mov    $0x3c,%ecx
    27b9:	f7 e1                	mul    %ecx
    27bb:	8d 0c 13             	lea    (%ebx,%edx,1),%ecx
    27be:	89 ca                	mov    %ecx,%edx
    27c0:	89 45 d8             	mov    %eax,-0x28(%ebp)
    27c3:	89 55 dc             	mov    %edx,-0x24(%ebp)
    27c6:	89 45 d8             	mov    %eax,-0x28(%ebp)
    27c9:	89 55 dc             	mov    %edx,-0x24(%ebp)
    27cc:	90                   	nop
    27cd:	e8 29 da ff ff       	call   1fb <GetRDTSC>
    27d2:	2b 45 e0             	sub    -0x20(%ebp),%eax
    27d5:	1b 55 e4             	sbb    -0x1c(%ebp),%edx
    27d8:	3b 55 dc             	cmp    -0x24(%ebp),%edx
    27db:	72 f0                	jb     27cd <Delaym+0x64>
    27dd:	3b 55 dc             	cmp    -0x24(%ebp),%edx
    27e0:	77 05                	ja     27e7 <Delaym+0x7e>
    27e2:	3b 45 d8             	cmp    -0x28(%ebp),%eax
    27e5:	72 e6                	jb     27cd <Delaym+0x64>
    27e7:	8d 65 f4             	lea    -0xc(%ebp),%esp
    27ea:	5b                   	pop    %ebx
    27eb:	5e                   	pop    %esi
    27ec:	5f                   	pop    %edi
    27ed:	5d                   	pop    %ebp
    27ee:	c3                   	ret    

000027ef <Delayh>:
    27ef:	55                   	push   %ebp
    27f0:	89 e5                	mov    %esp,%ebp
    27f2:	57                   	push   %edi
    27f3:	56                   	push   %esi
    27f4:	53                   	push   %ebx
    27f5:	83 ec 4c             	sub    $0x4c,%esp
    27f8:	8d 45 b8             	lea    -0x48(%ebp),%eax
    27fb:	89 04 24             	mov    %eax,(%esp)
    27fe:	e8 72 fc ff ff       	call   2475 <CPU_GetMsg>
    2803:	83 ec 04             	sub    $0x4,%esp
    2806:	e8 f0 d9 ff ff       	call   1fb <GetRDTSC>
    280b:	89 45 e0             	mov    %eax,-0x20(%ebp)
    280e:	89 55 e4             	mov    %edx,-0x1c(%ebp)
    2811:	8b 4d b8             	mov    -0x48(%ebp),%ecx
    2814:	8b 5d bc             	mov    -0x44(%ebp),%ebx
    2817:	8b 45 08             	mov    0x8(%ebp),%eax
    281a:	ba 00 00 00 00       	mov    $0x0,%edx
    281f:	89 df                	mov    %ebx,%edi
    2821:	0f af f8             	imul   %eax,%edi
    2824:	89 d6                	mov    %edx,%esi
    2826:	0f af f1             	imul   %ecx,%esi
    2829:	01 fe                	add    %edi,%esi
    282b:	f7 e1                	mul    %ecx
    282d:	8d 0c 16             	lea    (%esi,%edx,1),%ecx
    2830:	89 ca                	mov    %ecx,%edx
    2832:	69 da 10 0e 00 00    	imul   $0xe10,%edx,%ebx
    2838:	6b c8 00             	imul   $0x0,%eax,%ecx
    283b:	01 cb                	add    %ecx,%ebx
    283d:	b9 10 0e 00 00       	mov    $0xe10,%ecx
    2842:	f7 e1                	mul    %ecx
    2844:	8d 0c 13             	lea    (%ebx,%edx,1),%ecx
    2847:	89 ca                	mov    %ecx,%edx
    2849:	89 45 d8             	mov    %eax,-0x28(%ebp)
    284c:	89 55 dc             	mov    %edx,-0x24(%ebp)
    284f:	89 45 d8             	mov    %eax,-0x28(%ebp)
    2852:	89 55 dc             	mov    %edx,-0x24(%ebp)
    2855:	90                   	nop
    2856:	e8 a0 d9 ff ff       	call   1fb <GetRDTSC>
    285b:	2b 45 e0             	sub    -0x20(%ebp),%eax
    285e:	1b 55 e4             	sbb    -0x1c(%ebp),%edx
    2861:	3b 55 dc             	cmp    -0x24(%ebp),%edx
    2864:	72 f0                	jb     2856 <Delayh+0x67>
    2866:	3b 55 dc             	cmp    -0x24(%ebp),%edx
    2869:	77 05                	ja     2870 <Delayh+0x81>
    286b:	3b 45 d8             	cmp    -0x28(%ebp),%eax
    286e:	72 e6                	jb     2856 <Delayh+0x67>
    2870:	8d 65 f4             	lea    -0xc(%ebp),%esp
    2873:	5b                   	pop    %ebx
    2874:	5e                   	pop    %esi
    2875:	5f                   	pop    %edi
    2876:	5d                   	pop    %ebp
    2877:	c3                   	ret    

00002878 <Delayd>:
    2878:	55                   	push   %ebp
    2879:	89 e5                	mov    %esp,%ebp
    287b:	57                   	push   %edi
    287c:	56                   	push   %esi
    287d:	53                   	push   %ebx
    287e:	83 ec 4c             	sub    $0x4c,%esp
    2881:	8d 45 b8             	lea    -0x48(%ebp),%eax
    2884:	89 04 24             	mov    %eax,(%esp)
    2887:	e8 e9 fb ff ff       	call   2475 <CPU_GetMsg>
    288c:	83 ec 04             	sub    $0x4,%esp
    288f:	e8 67 d9 ff ff       	call   1fb <GetRDTSC>
    2894:	89 45 e0             	mov    %eax,-0x20(%ebp)
    2897:	89 55 e4             	mov    %edx,-0x1c(%ebp)
    289a:	8b 4d b8             	mov    -0x48(%ebp),%ecx
    289d:	8b 5d bc             	mov    -0x44(%ebp),%ebx
    28a0:	8b 45 08             	mov    0x8(%ebp),%eax
    28a3:	ba 00 00 00 00       	mov    $0x0,%edx
    28a8:	89 df                	mov    %ebx,%edi
    28aa:	0f af f8             	imul   %eax,%edi
    28ad:	89 d6                	mov    %edx,%esi
    28af:	0f af f1             	imul   %ecx,%esi
    28b2:	01 fe                	add    %edi,%esi
    28b4:	f7 e1                	mul    %ecx
    28b6:	8d 0c 16             	lea    (%esi,%edx,1),%ecx
    28b9:	89 ca                	mov    %ecx,%edx
    28bb:	69 da 80 51 01 00    	imul   $0x15180,%edx,%ebx
    28c1:	6b c8 00             	imul   $0x0,%eax,%ecx
    28c4:	01 cb                	add    %ecx,%ebx
    28c6:	b9 80 51 01 00       	mov    $0x15180,%ecx
    28cb:	f7 e1                	mul    %ecx
    28cd:	8d 0c 13             	lea    (%ebx,%edx,1),%ecx
    28d0:	89 ca                	mov    %ecx,%edx
    28d2:	89 45 d8             	mov    %eax,-0x28(%ebp)
    28d5:	89 55 dc             	mov    %edx,-0x24(%ebp)
    28d8:	89 45 d8             	mov    %eax,-0x28(%ebp)
    28db:	89 55 dc             	mov    %edx,-0x24(%ebp)
    28de:	90                   	nop
    28df:	e8 17 d9 ff ff       	call   1fb <GetRDTSC>
    28e4:	2b 45 e0             	sub    -0x20(%ebp),%eax
    28e7:	1b 55 e4             	sbb    -0x1c(%ebp),%edx
    28ea:	3b 55 dc             	cmp    -0x24(%ebp),%edx
    28ed:	72 f0                	jb     28df <Delayd+0x67>
    28ef:	3b 55 dc             	cmp    -0x24(%ebp),%edx
    28f2:	77 05                	ja     28f9 <Delayd+0x81>
    28f4:	3b 45 d8             	cmp    -0x28(%ebp),%eax
    28f7:	72 e6                	jb     28df <Delayd+0x67>
    28f9:	8d 65 f4             	lea    -0xc(%ebp),%esp
    28fc:	5b                   	pop    %ebx
    28fd:	5e                   	pop    %esi
    28fe:	5f                   	pop    %edi
    28ff:	5d                   	pop    %ebp
    2900:	c3                   	ret    

00002901 <Delayy>:
    2901:	55                   	push   %ebp
    2902:	89 e5                	mov    %esp,%ebp
    2904:	57                   	push   %edi
    2905:	56                   	push   %esi
    2906:	53                   	push   %ebx
    2907:	83 ec 4c             	sub    $0x4c,%esp
    290a:	8d 45 b8             	lea    -0x48(%ebp),%eax
    290d:	89 04 24             	mov    %eax,(%esp)
    2910:	e8 60 fb ff ff       	call   2475 <CPU_GetMsg>
    2915:	83 ec 04             	sub    $0x4,%esp
    2918:	e8 de d8 ff ff       	call   1fb <GetRDTSC>
    291d:	89 45 e0             	mov    %eax,-0x20(%ebp)
    2920:	89 55 e4             	mov    %edx,-0x1c(%ebp)
    2923:	8b 4d b8             	mov    -0x48(%ebp),%ecx
    2926:	8b 5d bc             	mov    -0x44(%ebp),%ebx
    2929:	8b 45 08             	mov    0x8(%ebp),%eax
    292c:	ba 00 00 00 00       	mov    $0x0,%edx
    2931:	89 df                	mov    %ebx,%edi
    2933:	0f af f8             	imul   %eax,%edi
    2936:	89 d6                	mov    %edx,%esi
    2938:	0f af f1             	imul   %ecx,%esi
    293b:	01 fe                	add    %edi,%esi
    293d:	f7 e1                	mul    %ecx
    293f:	8d 0c 16             	lea    (%esi,%edx,1),%ecx
    2942:	89 ca                	mov    %ecx,%edx
    2944:	69 da 80 33 e1 01    	imul   $0x1e13380,%edx,%ebx
    294a:	6b c8 00             	imul   $0x0,%eax,%ecx
    294d:	01 cb                	add    %ecx,%ebx
    294f:	b9 80 33 e1 01       	mov    $0x1e13380,%ecx
    2954:	f7 e1                	mul    %ecx
    2956:	8d 0c 13             	lea    (%ebx,%edx,1),%ecx
    2959:	89 ca                	mov    %ecx,%edx
    295b:	89 45 d8             	mov    %eax,-0x28(%ebp)
    295e:	89 55 dc             	mov    %edx,-0x24(%ebp)
    2961:	89 45 d8             	mov    %eax,-0x28(%ebp)
    2964:	89 55 dc             	mov    %edx,-0x24(%ebp)
    2967:	90                   	nop
    2968:	e8 8e d8 ff ff       	call   1fb <GetRDTSC>
    296d:	2b 45 e0             	sub    -0x20(%ebp),%eax
    2970:	1b 55 e4             	sbb    -0x1c(%ebp),%edx
    2973:	3b 55 dc             	cmp    -0x24(%ebp),%edx
    2976:	72 f0                	jb     2968 <Delayy+0x67>
    2978:	3b 55 dc             	cmp    -0x24(%ebp),%edx
    297b:	77 05                	ja     2982 <Delayy+0x81>
    297d:	3b 45 d8             	cmp    -0x28(%ebp),%eax
    2980:	72 e6                	jb     2968 <Delayy+0x67>
    2982:	8d 65 f4             	lea    -0xc(%ebp),%esp
    2985:	5b                   	pop    %ebx
    2986:	5e                   	pop    %esi
    2987:	5f                   	pop    %edi
    2988:	5d                   	pop    %ebp
    2989:	c3                   	ret    

0000298a <Interrupt_Handler_0>:
    298a:	55                   	push   %ebp
    298b:	89 e5                	mov    %esp,%ebp
    298d:	83 ec 18             	sub    $0x18,%esp
    2990:	c7 04 24 a4 71 00 00 	movl   $0x71a4,(%esp)
    2997:	e8 9b e8 ff ff       	call   1237 <Video_printf>
    299c:	eb fe                	jmp    299c <Interrupt_Handler_0+0x12>

0000299e <Interrupt_Handler_1>:
    299e:	55                   	push   %ebp
    299f:	89 e5                	mov    %esp,%ebp
    29a1:	83 ec 18             	sub    $0x18,%esp
    29a4:	c7 04 24 c6 71 00 00 	movl   $0x71c6,(%esp)
    29ab:	e8 87 e8 ff ff       	call   1237 <Video_printf>
    29b0:	eb fe                	jmp    29b0 <Interrupt_Handler_1+0x12>

000029b2 <Interrupt_Handler_2>:
    29b2:	55                   	push   %ebp
    29b3:	89 e5                	mov    %esp,%ebp
    29b5:	83 ec 18             	sub    $0x18,%esp
    29b8:	c7 04 24 dc 71 00 00 	movl   $0x71dc,(%esp)
    29bf:	e8 73 e8 ff ff       	call   1237 <Video_printf>
    29c4:	eb fe                	jmp    29c4 <Interrupt_Handler_2+0x12>

000029c6 <Interrupt_Handler_3>:
    29c6:	55                   	push   %ebp
    29c7:	89 e5                	mov    %esp,%ebp
    29c9:	83 ec 18             	sub    $0x18,%esp
    29cc:	c7 04 24 f2 71 00 00 	movl   $0x71f2,(%esp)
    29d3:	e8 5f e8 ff ff       	call   1237 <Video_printf>
    29d8:	eb fe                	jmp    29d8 <Interrupt_Handler_3+0x12>

000029da <Interrupt_Handler_4>:
    29da:	55                   	push   %ebp
    29db:	89 e5                	mov    %esp,%ebp
    29dd:	83 ec 18             	sub    $0x18,%esp
    29e0:	c7 04 24 08 72 00 00 	movl   $0x7208,(%esp)
    29e7:	e8 4b e8 ff ff       	call   1237 <Video_printf>
    29ec:	eb fe                	jmp    29ec <Interrupt_Handler_4+0x12>

000029ee <Interrupt_Handler_5>:
    29ee:	55                   	push   %ebp
    29ef:	89 e5                	mov    %esp,%ebp
    29f1:	83 ec 18             	sub    $0x18,%esp
    29f4:	c7 04 24 1e 72 00 00 	movl   $0x721e,(%esp)
    29fb:	e8 37 e8 ff ff       	call   1237 <Video_printf>
    2a00:	eb fe                	jmp    2a00 <Interrupt_Handler_5+0x12>

00002a02 <Interrupt_Handler_6>:
    2a02:	55                   	push   %ebp
    2a03:	89 e5                	mov    %esp,%ebp
    2a05:	83 ec 18             	sub    $0x18,%esp
    2a08:	c7 04 24 34 72 00 00 	movl   $0x7234,(%esp)
    2a0f:	e8 23 e8 ff ff       	call   1237 <Video_printf>
    2a14:	eb fe                	jmp    2a14 <Interrupt_Handler_6+0x12>

00002a16 <Interrupt_Handler_7>:
    2a16:	55                   	push   %ebp
    2a17:	89 e5                	mov    %esp,%ebp
    2a19:	83 ec 18             	sub    $0x18,%esp
    2a1c:	c7 04 24 5f 72 00 00 	movl   $0x725f,(%esp)
    2a23:	e8 0f e8 ff ff       	call   1237 <Video_printf>
    2a28:	eb fe                	jmp    2a28 <Interrupt_Handler_7+0x12>

00002a2a <Interrupt_Handler_8>:
    2a2a:	55                   	push   %ebp
    2a2b:	89 e5                	mov    %esp,%ebp
    2a2d:	83 ec 18             	sub    $0x18,%esp
    2a30:	c7 04 24 00 00 00 00 	movl   $0x0,(%esp)
    2a37:	e8 13 d8 ff ff       	call   24f <ReadSysConfigTable32>
    2a3c:	83 c0 01             	add    $0x1,%eax
    2a3f:	89 44 24 04          	mov    %eax,0x4(%esp)
    2a43:	c7 04 24 00 00 00 00 	movl   $0x0,(%esp)
    2a4a:	e8 ed d7 ff ff       	call   23c <WriteSysConfigTable32>
    2a4f:	e8 89 44 00 00       	call   6edd <ICH7_8259_Master_Handler_End>
    2a54:	c9                   	leave  
    2a55:	c3                   	ret    

00002a56 <Interrupt_Handler_9>:
    2a56:	55                   	push   %ebp
    2a57:	89 e5                	mov    %esp,%ebp
    2a59:	83 ec 18             	sub    $0x18,%esp
    2a5c:	c7 04 24 75 72 00 00 	movl   $0x7275,(%esp)
    2a63:	e8 cf e7 ff ff       	call   1237 <Video_printf>
    2a68:	eb fe                	jmp    2a68 <Interrupt_Handler_9+0x12>

00002a6a <Interrupt_Handler_10>:
    2a6a:	55                   	push   %ebp
    2a6b:	89 e5                	mov    %esp,%ebp
    2a6d:	83 ec 18             	sub    $0x18,%esp
    2a70:	c7 04 24 8b 72 00 00 	movl   $0x728b,(%esp)
    2a77:	e8 bb e7 ff ff       	call   1237 <Video_printf>
    2a7c:	eb fe                	jmp    2a7c <Interrupt_Handler_10+0x12>

00002a7e <Interrupt_Handler_11>:
    2a7e:	55                   	push   %ebp
    2a7f:	89 e5                	mov    %esp,%ebp
    2a81:	83 ec 18             	sub    $0x18,%esp
    2a84:	c7 04 24 a2 72 00 00 	movl   $0x72a2,(%esp)
    2a8b:	e8 a7 e7 ff ff       	call   1237 <Video_printf>
    2a90:	eb fe                	jmp    2a90 <Interrupt_Handler_11+0x12>

00002a92 <Interrupt_Handler_12>:
    2a92:	55                   	push   %ebp
    2a93:	89 e5                	mov    %esp,%ebp
    2a95:	83 ec 18             	sub    $0x18,%esp
    2a98:	c7 04 24 b9 72 00 00 	movl   $0x72b9,(%esp)
    2a9f:	e8 93 e7 ff ff       	call   1237 <Video_printf>
    2aa4:	eb fe                	jmp    2aa4 <Interrupt_Handler_12+0x12>

00002aa6 <Interrupt_Handler_13>:
    2aa6:	55                   	push   %ebp
    2aa7:	89 e5                	mov    %esp,%ebp
    2aa9:	83 ec 18             	sub    $0x18,%esp
    2aac:	c7 04 24 d0 72 00 00 	movl   $0x72d0,(%esp)
    2ab3:	e8 7f e7 ff ff       	call   1237 <Video_printf>
    2ab8:	eb fe                	jmp    2ab8 <Interrupt_Handler_13+0x12>

00002aba <Interrupt_Handler_14>:
    2aba:	55                   	push   %ebp
    2abb:	89 e5                	mov    %esp,%ebp
    2abd:	83 ec 18             	sub    $0x18,%esp
    2ac0:	c7 04 24 e7 72 00 00 	movl   $0x72e7,(%esp)
    2ac7:	e8 6b e7 ff ff       	call   1237 <Video_printf>
    2acc:	eb fe                	jmp    2acc <Interrupt_Handler_14+0x12>

00002ace <Interrupt_Handler_15>:
    2ace:	55                   	push   %ebp
    2acf:	89 e5                	mov    %esp,%ebp
    2ad1:	83 ec 18             	sub    $0x18,%esp
    2ad4:	c7 04 24 fe 72 00 00 	movl   $0x72fe,(%esp)
    2adb:	e8 57 e7 ff ff       	call   1237 <Video_printf>
    2ae0:	eb fe                	jmp    2ae0 <Interrupt_Handler_15+0x12>

00002ae2 <Interrupt_Handler_16>:
    2ae2:	55                   	push   %ebp
    2ae3:	89 e5                	mov    %esp,%ebp
    2ae5:	83 ec 18             	sub    $0x18,%esp
    2ae8:	c7 04 24 15 73 00 00 	movl   $0x7315,(%esp)
    2aef:	e8 43 e7 ff ff       	call   1237 <Video_printf>
    2af4:	eb fe                	jmp    2af4 <Interrupt_Handler_16+0x12>

00002af6 <Interrupt_Handler_17>:
    2af6:	55                   	push   %ebp
    2af7:	89 e5                	mov    %esp,%ebp
    2af9:	83 ec 18             	sub    $0x18,%esp
    2afc:	c7 04 24 2c 73 00 00 	movl   $0x732c,(%esp)
    2b03:	e8 2f e7 ff ff       	call   1237 <Video_printf>
    2b08:	eb fe                	jmp    2b08 <Interrupt_Handler_17+0x12>

00002b0a <Interrupt_Handler_18>:
    2b0a:	55                   	push   %ebp
    2b0b:	89 e5                	mov    %esp,%ebp
    2b0d:	83 ec 18             	sub    $0x18,%esp
    2b10:	c7 04 24 43 73 00 00 	movl   $0x7343,(%esp)
    2b17:	e8 1b e7 ff ff       	call   1237 <Video_printf>
    2b1c:	eb fe                	jmp    2b1c <Interrupt_Handler_18+0x12>

00002b1e <Interrupt_Handler_19>:
    2b1e:	55                   	push   %ebp
    2b1f:	89 e5                	mov    %esp,%ebp
    2b21:	83 ec 18             	sub    $0x18,%esp
    2b24:	c7 04 24 5a 73 00 00 	movl   $0x735a,(%esp)
    2b2b:	e8 07 e7 ff ff       	call   1237 <Video_printf>
    2b30:	eb fe                	jmp    2b30 <Interrupt_Handler_19+0x12>

00002b32 <Interrupt_Handler_20>:
    2b32:	55                   	push   %ebp
    2b33:	89 e5                	mov    %esp,%ebp
    2b35:	83 ec 18             	sub    $0x18,%esp
    2b38:	c7 04 24 71 73 00 00 	movl   $0x7371,(%esp)
    2b3f:	e8 f3 e6 ff ff       	call   1237 <Video_printf>
    2b44:	eb fe                	jmp    2b44 <Interrupt_Handler_20+0x12>

00002b46 <Interrupt_Handler_21>:
    2b46:	55                   	push   %ebp
    2b47:	89 e5                	mov    %esp,%ebp
    2b49:	83 ec 18             	sub    $0x18,%esp
    2b4c:	c7 04 24 88 73 00 00 	movl   $0x7388,(%esp)
    2b53:	e8 df e6 ff ff       	call   1237 <Video_printf>
    2b58:	eb fe                	jmp    2b58 <Interrupt_Handler_21+0x12>

00002b5a <Interrupt_Handler_22>:
    2b5a:	55                   	push   %ebp
    2b5b:	89 e5                	mov    %esp,%ebp
    2b5d:	83 ec 18             	sub    $0x18,%esp
    2b60:	c7 04 24 9f 73 00 00 	movl   $0x739f,(%esp)
    2b67:	e8 cb e6 ff ff       	call   1237 <Video_printf>
    2b6c:	eb fe                	jmp    2b6c <Interrupt_Handler_22+0x12>

00002b6e <Interrupt_Handler_23>:
    2b6e:	55                   	push   %ebp
    2b6f:	89 e5                	mov    %esp,%ebp
    2b71:	83 ec 18             	sub    $0x18,%esp
    2b74:	c7 04 24 b6 73 00 00 	movl   $0x73b6,(%esp)
    2b7b:	e8 b7 e6 ff ff       	call   1237 <Video_printf>
    2b80:	eb fe                	jmp    2b80 <Interrupt_Handler_23+0x12>

00002b82 <Interrupt_Handler_24>:
    2b82:	55                   	push   %ebp
    2b83:	89 e5                	mov    %esp,%ebp
    2b85:	83 ec 18             	sub    $0x18,%esp
    2b88:	c7 04 24 cd 73 00 00 	movl   $0x73cd,(%esp)
    2b8f:	e8 a3 e6 ff ff       	call   1237 <Video_printf>
    2b94:	eb fe                	jmp    2b94 <Interrupt_Handler_24+0x12>

00002b96 <Interrupt_Handler_25>:
    2b96:	55                   	push   %ebp
    2b97:	89 e5                	mov    %esp,%ebp
    2b99:	83 ec 18             	sub    $0x18,%esp
    2b9c:	c7 04 24 e4 73 00 00 	movl   $0x73e4,(%esp)
    2ba3:	e8 8f e6 ff ff       	call   1237 <Video_printf>
    2ba8:	eb fe                	jmp    2ba8 <Interrupt_Handler_25+0x12>

00002baa <Interrupt_Handler_26>:
    2baa:	55                   	push   %ebp
    2bab:	89 e5                	mov    %esp,%ebp
    2bad:	83 ec 18             	sub    $0x18,%esp
    2bb0:	c7 04 24 fb 73 00 00 	movl   $0x73fb,(%esp)
    2bb7:	e8 7b e6 ff ff       	call   1237 <Video_printf>
    2bbc:	eb fe                	jmp    2bbc <Interrupt_Handler_26+0x12>

00002bbe <Interrupt_Handler_27>:
    2bbe:	55                   	push   %ebp
    2bbf:	89 e5                	mov    %esp,%ebp
    2bc1:	83 ec 18             	sub    $0x18,%esp
    2bc4:	c7 04 24 12 74 00 00 	movl   $0x7412,(%esp)
    2bcb:	e8 67 e6 ff ff       	call   1237 <Video_printf>
    2bd0:	eb fe                	jmp    2bd0 <Interrupt_Handler_27+0x12>

00002bd2 <Interrupt_Handler_28>:
    2bd2:	55                   	push   %ebp
    2bd3:	89 e5                	mov    %esp,%ebp
    2bd5:	83 ec 18             	sub    $0x18,%esp
    2bd8:	c7 04 24 29 74 00 00 	movl   $0x7429,(%esp)
    2bdf:	e8 53 e6 ff ff       	call   1237 <Video_printf>
    2be4:	eb fe                	jmp    2be4 <Interrupt_Handler_28+0x12>

00002be6 <Interrupt_Handler_29>:
    2be6:	55                   	push   %ebp
    2be7:	89 e5                	mov    %esp,%ebp
    2be9:	83 ec 18             	sub    $0x18,%esp
    2bec:	c7 04 24 40 74 00 00 	movl   $0x7440,(%esp)
    2bf3:	e8 3f e6 ff ff       	call   1237 <Video_printf>
    2bf8:	eb fe                	jmp    2bf8 <Interrupt_Handler_29+0x12>

00002bfa <Interrupt_Handler_30>:
    2bfa:	55                   	push   %ebp
    2bfb:	89 e5                	mov    %esp,%ebp
    2bfd:	83 ec 18             	sub    $0x18,%esp
    2c00:	c7 04 24 57 74 00 00 	movl   $0x7457,(%esp)
    2c07:	e8 2b e6 ff ff       	call   1237 <Video_printf>
    2c0c:	eb fe                	jmp    2c0c <Interrupt_Handler_30+0x12>

00002c0e <Interrupt_Handler_31>:
    2c0e:	55                   	push   %ebp
    2c0f:	89 e5                	mov    %esp,%ebp
    2c11:	83 ec 18             	sub    $0x18,%esp
    2c14:	c7 04 24 6e 74 00 00 	movl   $0x746e,(%esp)
    2c1b:	e8 17 e6 ff ff       	call   1237 <Video_printf>
    2c20:	eb fe                	jmp    2c20 <Interrupt_Handler_31+0x12>

00002c22 <Interrupt_Handler_32>:
    2c22:	55                   	push   %ebp
    2c23:	89 e5                	mov    %esp,%ebp
    2c25:	83 ec 18             	sub    $0x18,%esp
    2c28:	c7 04 24 85 74 00 00 	movl   $0x7485,(%esp)
    2c2f:	e8 03 e6 ff ff       	call   1237 <Video_printf>
    2c34:	eb fe                	jmp    2c34 <Interrupt_Handler_32+0x12>

00002c36 <Interrupt_Handler_33>:
    2c36:	55                   	push   %ebp
    2c37:	89 e5                	mov    %esp,%ebp
    2c39:	83 ec 18             	sub    $0x18,%esp
    2c3c:	c7 04 24 9c 74 00 00 	movl   $0x749c,(%esp)
    2c43:	e8 ef e5 ff ff       	call   1237 <Video_printf>
    2c48:	eb fe                	jmp    2c48 <Interrupt_Handler_33+0x12>

00002c4a <Interrupt_Handler_34>:
    2c4a:	55                   	push   %ebp
    2c4b:	89 e5                	mov    %esp,%ebp
    2c4d:	83 ec 18             	sub    $0x18,%esp
    2c50:	c7 04 24 b3 74 00 00 	movl   $0x74b3,(%esp)
    2c57:	e8 db e5 ff ff       	call   1237 <Video_printf>
    2c5c:	eb fe                	jmp    2c5c <Interrupt_Handler_34+0x12>

00002c5e <Interrupt_Handler_35>:
    2c5e:	55                   	push   %ebp
    2c5f:	89 e5                	mov    %esp,%ebp
    2c61:	83 ec 18             	sub    $0x18,%esp
    2c64:	c7 04 24 ca 74 00 00 	movl   $0x74ca,(%esp)
    2c6b:	e8 c7 e5 ff ff       	call   1237 <Video_printf>
    2c70:	eb fe                	jmp    2c70 <Interrupt_Handler_35+0x12>

00002c72 <Interrupt_Handler_36>:
    2c72:	55                   	push   %ebp
    2c73:	89 e5                	mov    %esp,%ebp
    2c75:	83 ec 18             	sub    $0x18,%esp
    2c78:	c7 04 24 e1 74 00 00 	movl   $0x74e1,(%esp)
    2c7f:	e8 b3 e5 ff ff       	call   1237 <Video_printf>
    2c84:	eb fe                	jmp    2c84 <Interrupt_Handler_36+0x12>

00002c86 <Interrupt_Handler_37>:
    2c86:	55                   	push   %ebp
    2c87:	89 e5                	mov    %esp,%ebp
    2c89:	83 ec 18             	sub    $0x18,%esp
    2c8c:	c7 04 24 f8 74 00 00 	movl   $0x74f8,(%esp)
    2c93:	e8 9f e5 ff ff       	call   1237 <Video_printf>
    2c98:	eb fe                	jmp    2c98 <Interrupt_Handler_37+0x12>

00002c9a <Interrupt_Handler_38>:
    2c9a:	55                   	push   %ebp
    2c9b:	89 e5                	mov    %esp,%ebp
    2c9d:	83 ec 18             	sub    $0x18,%esp
    2ca0:	c7 04 24 0f 75 00 00 	movl   $0x750f,(%esp)
    2ca7:	e8 8b e5 ff ff       	call   1237 <Video_printf>
    2cac:	eb fe                	jmp    2cac <Interrupt_Handler_38+0x12>

00002cae <Interrupt_Handler_39>:
    2cae:	55                   	push   %ebp
    2caf:	89 e5                	mov    %esp,%ebp
    2cb1:	83 ec 18             	sub    $0x18,%esp
    2cb4:	c7 04 24 26 75 00 00 	movl   $0x7526,(%esp)
    2cbb:	e8 77 e5 ff ff       	call   1237 <Video_printf>
    2cc0:	eb fe                	jmp    2cc0 <Interrupt_Handler_39+0x12>

00002cc2 <Interrupt_Handler_40>:
    2cc2:	55                   	push   %ebp
    2cc3:	89 e5                	mov    %esp,%ebp
    2cc5:	83 ec 18             	sub    $0x18,%esp
    2cc8:	c7 04 24 3d 75 00 00 	movl   $0x753d,(%esp)
    2ccf:	e8 63 e5 ff ff       	call   1237 <Video_printf>
    2cd4:	eb fe                	jmp    2cd4 <Interrupt_Handler_40+0x12>

00002cd6 <Interrupt_Handler_41>:
    2cd6:	55                   	push   %ebp
    2cd7:	89 e5                	mov    %esp,%ebp
    2cd9:	83 ec 18             	sub    $0x18,%esp
    2cdc:	c7 04 24 54 75 00 00 	movl   $0x7554,(%esp)
    2ce3:	e8 4f e5 ff ff       	call   1237 <Video_printf>
    2ce8:	eb fe                	jmp    2ce8 <Interrupt_Handler_41+0x12>

00002cea <Interrupt_Handler_42>:
    2cea:	55                   	push   %ebp
    2ceb:	89 e5                	mov    %esp,%ebp
    2ced:	83 ec 18             	sub    $0x18,%esp
    2cf0:	c7 04 24 6b 75 00 00 	movl   $0x756b,(%esp)
    2cf7:	e8 3b e5 ff ff       	call   1237 <Video_printf>
    2cfc:	eb fe                	jmp    2cfc <Interrupt_Handler_42+0x12>

00002cfe <Interrupt_Handler_43>:
    2cfe:	55                   	push   %ebp
    2cff:	89 e5                	mov    %esp,%ebp
    2d01:	83 ec 18             	sub    $0x18,%esp
    2d04:	c7 04 24 82 75 00 00 	movl   $0x7582,(%esp)
    2d0b:	e8 27 e5 ff ff       	call   1237 <Video_printf>
    2d10:	eb fe                	jmp    2d10 <Interrupt_Handler_43+0x12>

00002d12 <Interrupt_Handler_44>:
    2d12:	55                   	push   %ebp
    2d13:	89 e5                	mov    %esp,%ebp
    2d15:	83 ec 18             	sub    $0x18,%esp
    2d18:	c7 04 24 99 75 00 00 	movl   $0x7599,(%esp)
    2d1f:	e8 13 e5 ff ff       	call   1237 <Video_printf>
    2d24:	eb fe                	jmp    2d24 <Interrupt_Handler_44+0x12>

00002d26 <Interrupt_Handler_45>:
    2d26:	55                   	push   %ebp
    2d27:	89 e5                	mov    %esp,%ebp
    2d29:	83 ec 18             	sub    $0x18,%esp
    2d2c:	c7 04 24 b0 75 00 00 	movl   $0x75b0,(%esp)
    2d33:	e8 ff e4 ff ff       	call   1237 <Video_printf>
    2d38:	eb fe                	jmp    2d38 <Interrupt_Handler_45+0x12>

00002d3a <Interrupt_Handler_46>:
    2d3a:	55                   	push   %ebp
    2d3b:	89 e5                	mov    %esp,%ebp
    2d3d:	83 ec 18             	sub    $0x18,%esp
    2d40:	c7 04 24 c7 75 00 00 	movl   $0x75c7,(%esp)
    2d47:	e8 eb e4 ff ff       	call   1237 <Video_printf>
    2d4c:	eb fe                	jmp    2d4c <Interrupt_Handler_46+0x12>

00002d4e <Interrupt_Handler_47>:
    2d4e:	55                   	push   %ebp
    2d4f:	89 e5                	mov    %esp,%ebp
    2d51:	83 ec 18             	sub    $0x18,%esp
    2d54:	c7 04 24 de 75 00 00 	movl   $0x75de,(%esp)
    2d5b:	e8 d7 e4 ff ff       	call   1237 <Video_printf>
    2d60:	eb fe                	jmp    2d60 <Interrupt_Handler_47+0x12>

00002d62 <Interrupt_Handler_48>:
    2d62:	55                   	push   %ebp
    2d63:	89 e5                	mov    %esp,%ebp
    2d65:	83 ec 18             	sub    $0x18,%esp
    2d68:	c7 04 24 f5 75 00 00 	movl   $0x75f5,(%esp)
    2d6f:	e8 c3 e4 ff ff       	call   1237 <Video_printf>
    2d74:	eb fe                	jmp    2d74 <Interrupt_Handler_48+0x12>

00002d76 <Interrupt_Handler_49>:
    2d76:	55                   	push   %ebp
    2d77:	89 e5                	mov    %esp,%ebp
    2d79:	83 ec 18             	sub    $0x18,%esp
    2d7c:	c7 04 24 0c 76 00 00 	movl   $0x760c,(%esp)
    2d83:	e8 af e4 ff ff       	call   1237 <Video_printf>
    2d88:	eb fe                	jmp    2d88 <Interrupt_Handler_49+0x12>

00002d8a <Interrupt_Handler_50>:
    2d8a:	55                   	push   %ebp
    2d8b:	89 e5                	mov    %esp,%ebp
    2d8d:	83 ec 18             	sub    $0x18,%esp
    2d90:	c7 04 24 23 76 00 00 	movl   $0x7623,(%esp)
    2d97:	e8 9b e4 ff ff       	call   1237 <Video_printf>
    2d9c:	eb fe                	jmp    2d9c <Interrupt_Handler_50+0x12>

00002d9e <Interrupt_Handler_51>:
    2d9e:	55                   	push   %ebp
    2d9f:	89 e5                	mov    %esp,%ebp
    2da1:	83 ec 18             	sub    $0x18,%esp
    2da4:	c7 04 24 3a 76 00 00 	movl   $0x763a,(%esp)
    2dab:	e8 87 e4 ff ff       	call   1237 <Video_printf>
    2db0:	eb fe                	jmp    2db0 <Interrupt_Handler_51+0x12>

00002db2 <Interrupt_Handler_52>:
    2db2:	55                   	push   %ebp
    2db3:	89 e5                	mov    %esp,%ebp
    2db5:	83 ec 18             	sub    $0x18,%esp
    2db8:	c7 04 24 51 76 00 00 	movl   $0x7651,(%esp)
    2dbf:	e8 73 e4 ff ff       	call   1237 <Video_printf>
    2dc4:	eb fe                	jmp    2dc4 <Interrupt_Handler_52+0x12>

00002dc6 <Interrupt_Handler_53>:
    2dc6:	55                   	push   %ebp
    2dc7:	89 e5                	mov    %esp,%ebp
    2dc9:	83 ec 18             	sub    $0x18,%esp
    2dcc:	c7 04 24 68 76 00 00 	movl   $0x7668,(%esp)
    2dd3:	e8 5f e4 ff ff       	call   1237 <Video_printf>
    2dd8:	eb fe                	jmp    2dd8 <Interrupt_Handler_53+0x12>

00002dda <Interrupt_Handler_54>:
    2dda:	55                   	push   %ebp
    2ddb:	89 e5                	mov    %esp,%ebp
    2ddd:	83 ec 18             	sub    $0x18,%esp
    2de0:	c7 04 24 7f 76 00 00 	movl   $0x767f,(%esp)
    2de7:	e8 4b e4 ff ff       	call   1237 <Video_printf>
    2dec:	eb fe                	jmp    2dec <Interrupt_Handler_54+0x12>

00002dee <Interrupt_Handler_55>:
    2dee:	55                   	push   %ebp
    2def:	89 e5                	mov    %esp,%ebp
    2df1:	83 ec 18             	sub    $0x18,%esp
    2df4:	c7 04 24 96 76 00 00 	movl   $0x7696,(%esp)
    2dfb:	e8 37 e4 ff ff       	call   1237 <Video_printf>
    2e00:	eb fe                	jmp    2e00 <Interrupt_Handler_55+0x12>

00002e02 <Interrupt_Handler_56>:
    2e02:	55                   	push   %ebp
    2e03:	89 e5                	mov    %esp,%ebp
    2e05:	83 ec 18             	sub    $0x18,%esp
    2e08:	c7 04 24 ad 76 00 00 	movl   $0x76ad,(%esp)
    2e0f:	e8 23 e4 ff ff       	call   1237 <Video_printf>
    2e14:	eb fe                	jmp    2e14 <Interrupt_Handler_56+0x12>

00002e16 <Interrupt_Handler_57>:
    2e16:	55                   	push   %ebp
    2e17:	89 e5                	mov    %esp,%ebp
    2e19:	83 ec 18             	sub    $0x18,%esp
    2e1c:	c7 04 24 c4 76 00 00 	movl   $0x76c4,(%esp)
    2e23:	e8 0f e4 ff ff       	call   1237 <Video_printf>
    2e28:	eb fe                	jmp    2e28 <Interrupt_Handler_57+0x12>

00002e2a <Interrupt_Handler_58>:
    2e2a:	55                   	push   %ebp
    2e2b:	89 e5                	mov    %esp,%ebp
    2e2d:	83 ec 18             	sub    $0x18,%esp
    2e30:	c7 04 24 db 76 00 00 	movl   $0x76db,(%esp)
    2e37:	e8 fb e3 ff ff       	call   1237 <Video_printf>
    2e3c:	eb fe                	jmp    2e3c <Interrupt_Handler_58+0x12>

00002e3e <Interrupt_Handler_59>:
    2e3e:	55                   	push   %ebp
    2e3f:	89 e5                	mov    %esp,%ebp
    2e41:	83 ec 18             	sub    $0x18,%esp
    2e44:	c7 04 24 f2 76 00 00 	movl   $0x76f2,(%esp)
    2e4b:	e8 e7 e3 ff ff       	call   1237 <Video_printf>
    2e50:	eb fe                	jmp    2e50 <Interrupt_Handler_59+0x12>

00002e52 <Interrupt_Handler_60>:
    2e52:	55                   	push   %ebp
    2e53:	89 e5                	mov    %esp,%ebp
    2e55:	83 ec 18             	sub    $0x18,%esp
    2e58:	c7 04 24 09 77 00 00 	movl   $0x7709,(%esp)
    2e5f:	e8 d3 e3 ff ff       	call   1237 <Video_printf>
    2e64:	eb fe                	jmp    2e64 <Interrupt_Handler_60+0x12>

00002e66 <Interrupt_Handler_61>:
    2e66:	55                   	push   %ebp
    2e67:	89 e5                	mov    %esp,%ebp
    2e69:	83 ec 18             	sub    $0x18,%esp
    2e6c:	c7 04 24 20 77 00 00 	movl   $0x7720,(%esp)
    2e73:	e8 bf e3 ff ff       	call   1237 <Video_printf>
    2e78:	eb fe                	jmp    2e78 <Interrupt_Handler_61+0x12>

00002e7a <Interrupt_Handler_62>:
    2e7a:	55                   	push   %ebp
    2e7b:	89 e5                	mov    %esp,%ebp
    2e7d:	83 ec 18             	sub    $0x18,%esp
    2e80:	c7 04 24 37 77 00 00 	movl   $0x7737,(%esp)
    2e87:	e8 ab e3 ff ff       	call   1237 <Video_printf>
    2e8c:	eb fe                	jmp    2e8c <Interrupt_Handler_62+0x12>

00002e8e <Interrupt_Handler_63>:
    2e8e:	55                   	push   %ebp
    2e8f:	89 e5                	mov    %esp,%ebp
    2e91:	83 ec 18             	sub    $0x18,%esp
    2e94:	c7 04 24 4e 77 00 00 	movl   $0x774e,(%esp)
    2e9b:	e8 97 e3 ff ff       	call   1237 <Video_printf>
    2ea0:	eb fe                	jmp    2ea0 <Interrupt_Handler_63+0x12>

00002ea2 <Interrupt_Handler_64>:
    2ea2:	55                   	push   %ebp
    2ea3:	89 e5                	mov    %esp,%ebp
    2ea5:	83 ec 18             	sub    $0x18,%esp
    2ea8:	c7 04 24 65 77 00 00 	movl   $0x7765,(%esp)
    2eaf:	e8 83 e3 ff ff       	call   1237 <Video_printf>
    2eb4:	eb fe                	jmp    2eb4 <Interrupt_Handler_64+0x12>

00002eb6 <Interrupt_Handler_65>:
    2eb6:	55                   	push   %ebp
    2eb7:	89 e5                	mov    %esp,%ebp
    2eb9:	83 ec 18             	sub    $0x18,%esp
    2ebc:	c7 04 24 7c 77 00 00 	movl   $0x777c,(%esp)
    2ec3:	e8 6f e3 ff ff       	call   1237 <Video_printf>
    2ec8:	eb fe                	jmp    2ec8 <Interrupt_Handler_65+0x12>

00002eca <Interrupt_Handler_66>:
    2eca:	55                   	push   %ebp
    2ecb:	89 e5                	mov    %esp,%ebp
    2ecd:	83 ec 18             	sub    $0x18,%esp
    2ed0:	c7 04 24 93 77 00 00 	movl   $0x7793,(%esp)
    2ed7:	e8 5b e3 ff ff       	call   1237 <Video_printf>
    2edc:	eb fe                	jmp    2edc <Interrupt_Handler_66+0x12>

00002ede <Interrupt_Handler_67>:
    2ede:	55                   	push   %ebp
    2edf:	89 e5                	mov    %esp,%ebp
    2ee1:	83 ec 18             	sub    $0x18,%esp
    2ee4:	c7 04 24 aa 77 00 00 	movl   $0x77aa,(%esp)
    2eeb:	e8 47 e3 ff ff       	call   1237 <Video_printf>
    2ef0:	eb fe                	jmp    2ef0 <Interrupt_Handler_67+0x12>

00002ef2 <Interrupt_Handler_68>:
    2ef2:	55                   	push   %ebp
    2ef3:	89 e5                	mov    %esp,%ebp
    2ef5:	83 ec 18             	sub    $0x18,%esp
    2ef8:	c7 04 24 c1 77 00 00 	movl   $0x77c1,(%esp)
    2eff:	e8 33 e3 ff ff       	call   1237 <Video_printf>
    2f04:	eb fe                	jmp    2f04 <Interrupt_Handler_68+0x12>

00002f06 <Interrupt_Handler_69>:
    2f06:	55                   	push   %ebp
    2f07:	89 e5                	mov    %esp,%ebp
    2f09:	83 ec 18             	sub    $0x18,%esp
    2f0c:	c7 04 24 d8 77 00 00 	movl   $0x77d8,(%esp)
    2f13:	e8 1f e3 ff ff       	call   1237 <Video_printf>
    2f18:	eb fe                	jmp    2f18 <Interrupt_Handler_69+0x12>

00002f1a <Interrupt_Handler_70>:
    2f1a:	55                   	push   %ebp
    2f1b:	89 e5                	mov    %esp,%ebp
    2f1d:	83 ec 18             	sub    $0x18,%esp
    2f20:	c7 04 24 ef 77 00 00 	movl   $0x77ef,(%esp)
    2f27:	e8 0b e3 ff ff       	call   1237 <Video_printf>
    2f2c:	eb fe                	jmp    2f2c <Interrupt_Handler_70+0x12>

00002f2e <Interrupt_Handler_71>:
    2f2e:	55                   	push   %ebp
    2f2f:	89 e5                	mov    %esp,%ebp
    2f31:	83 ec 18             	sub    $0x18,%esp
    2f34:	c7 04 24 06 78 00 00 	movl   $0x7806,(%esp)
    2f3b:	e8 f7 e2 ff ff       	call   1237 <Video_printf>
    2f40:	eb fe                	jmp    2f40 <Interrupt_Handler_71+0x12>

00002f42 <Interrupt_Handler_72>:
    2f42:	55                   	push   %ebp
    2f43:	89 e5                	mov    %esp,%ebp
    2f45:	83 ec 18             	sub    $0x18,%esp
    2f48:	c7 04 24 1d 78 00 00 	movl   $0x781d,(%esp)
    2f4f:	e8 e3 e2 ff ff       	call   1237 <Video_printf>
    2f54:	eb fe                	jmp    2f54 <Interrupt_Handler_72+0x12>

00002f56 <Interrupt_Handler_73>:
    2f56:	55                   	push   %ebp
    2f57:	89 e5                	mov    %esp,%ebp
    2f59:	83 ec 18             	sub    $0x18,%esp
    2f5c:	c7 04 24 34 78 00 00 	movl   $0x7834,(%esp)
    2f63:	e8 cf e2 ff ff       	call   1237 <Video_printf>
    2f68:	eb fe                	jmp    2f68 <Interrupt_Handler_73+0x12>

00002f6a <Interrupt_Handler_74>:
    2f6a:	55                   	push   %ebp
    2f6b:	89 e5                	mov    %esp,%ebp
    2f6d:	83 ec 18             	sub    $0x18,%esp
    2f70:	c7 04 24 4b 78 00 00 	movl   $0x784b,(%esp)
    2f77:	e8 bb e2 ff ff       	call   1237 <Video_printf>
    2f7c:	eb fe                	jmp    2f7c <Interrupt_Handler_74+0x12>

00002f7e <Interrupt_Handler_75>:
    2f7e:	55                   	push   %ebp
    2f7f:	89 e5                	mov    %esp,%ebp
    2f81:	83 ec 18             	sub    $0x18,%esp
    2f84:	c7 04 24 62 78 00 00 	movl   $0x7862,(%esp)
    2f8b:	e8 a7 e2 ff ff       	call   1237 <Video_printf>
    2f90:	eb fe                	jmp    2f90 <Interrupt_Handler_75+0x12>

00002f92 <Interrupt_Handler_76>:
    2f92:	55                   	push   %ebp
    2f93:	89 e5                	mov    %esp,%ebp
    2f95:	83 ec 18             	sub    $0x18,%esp
    2f98:	c7 04 24 79 78 00 00 	movl   $0x7879,(%esp)
    2f9f:	e8 93 e2 ff ff       	call   1237 <Video_printf>
    2fa4:	eb fe                	jmp    2fa4 <Interrupt_Handler_76+0x12>

00002fa6 <Interrupt_Handler_77>:
    2fa6:	55                   	push   %ebp
    2fa7:	89 e5                	mov    %esp,%ebp
    2fa9:	83 ec 18             	sub    $0x18,%esp
    2fac:	c7 04 24 90 78 00 00 	movl   $0x7890,(%esp)
    2fb3:	e8 7f e2 ff ff       	call   1237 <Video_printf>
    2fb8:	eb fe                	jmp    2fb8 <Interrupt_Handler_77+0x12>

00002fba <Interrupt_Handler_78>:
    2fba:	55                   	push   %ebp
    2fbb:	89 e5                	mov    %esp,%ebp
    2fbd:	83 ec 18             	sub    $0x18,%esp
    2fc0:	c7 04 24 a7 78 00 00 	movl   $0x78a7,(%esp)
    2fc7:	e8 6b e2 ff ff       	call   1237 <Video_printf>
    2fcc:	eb fe                	jmp    2fcc <Interrupt_Handler_78+0x12>

00002fce <Interrupt_Handler_79>:
    2fce:	55                   	push   %ebp
    2fcf:	89 e5                	mov    %esp,%ebp
    2fd1:	83 ec 18             	sub    $0x18,%esp
    2fd4:	c7 04 24 be 78 00 00 	movl   $0x78be,(%esp)
    2fdb:	e8 57 e2 ff ff       	call   1237 <Video_printf>
    2fe0:	eb fe                	jmp    2fe0 <Interrupt_Handler_79+0x12>

00002fe2 <Interrupt_Handler_80>:
    2fe2:	55                   	push   %ebp
    2fe3:	89 e5                	mov    %esp,%ebp
    2fe5:	83 ec 18             	sub    $0x18,%esp
    2fe8:	c7 04 24 d5 78 00 00 	movl   $0x78d5,(%esp)
    2fef:	e8 43 e2 ff ff       	call   1237 <Video_printf>
    2ff4:	eb fe                	jmp    2ff4 <Interrupt_Handler_80+0x12>

00002ff6 <Interrupt_Handler_81>:
    2ff6:	55                   	push   %ebp
    2ff7:	89 e5                	mov    %esp,%ebp
    2ff9:	83 ec 18             	sub    $0x18,%esp
    2ffc:	c7 04 24 ec 78 00 00 	movl   $0x78ec,(%esp)
    3003:	e8 2f e2 ff ff       	call   1237 <Video_printf>
    3008:	eb fe                	jmp    3008 <Interrupt_Handler_81+0x12>

0000300a <Interrupt_Handler_82>:
    300a:	55                   	push   %ebp
    300b:	89 e5                	mov    %esp,%ebp
    300d:	83 ec 18             	sub    $0x18,%esp
    3010:	c7 04 24 03 79 00 00 	movl   $0x7903,(%esp)
    3017:	e8 1b e2 ff ff       	call   1237 <Video_printf>
    301c:	eb fe                	jmp    301c <Interrupt_Handler_82+0x12>

0000301e <Interrupt_Handler_83>:
    301e:	55                   	push   %ebp
    301f:	89 e5                	mov    %esp,%ebp
    3021:	83 ec 18             	sub    $0x18,%esp
    3024:	c7 04 24 1a 79 00 00 	movl   $0x791a,(%esp)
    302b:	e8 07 e2 ff ff       	call   1237 <Video_printf>
    3030:	eb fe                	jmp    3030 <Interrupt_Handler_83+0x12>

00003032 <Interrupt_Handler_84>:
    3032:	55                   	push   %ebp
    3033:	89 e5                	mov    %esp,%ebp
    3035:	83 ec 18             	sub    $0x18,%esp
    3038:	c7 04 24 31 79 00 00 	movl   $0x7931,(%esp)
    303f:	e8 f3 e1 ff ff       	call   1237 <Video_printf>
    3044:	eb fe                	jmp    3044 <Interrupt_Handler_84+0x12>

00003046 <Interrupt_Handler_85>:
    3046:	55                   	push   %ebp
    3047:	89 e5                	mov    %esp,%ebp
    3049:	83 ec 18             	sub    $0x18,%esp
    304c:	c7 04 24 48 79 00 00 	movl   $0x7948,(%esp)
    3053:	e8 df e1 ff ff       	call   1237 <Video_printf>
    3058:	eb fe                	jmp    3058 <Interrupt_Handler_85+0x12>

0000305a <Interrupt_Handler_86>:
    305a:	55                   	push   %ebp
    305b:	89 e5                	mov    %esp,%ebp
    305d:	83 ec 18             	sub    $0x18,%esp
    3060:	c7 04 24 5f 79 00 00 	movl   $0x795f,(%esp)
    3067:	e8 cb e1 ff ff       	call   1237 <Video_printf>
    306c:	eb fe                	jmp    306c <Interrupt_Handler_86+0x12>

0000306e <Interrupt_Handler_87>:
    306e:	55                   	push   %ebp
    306f:	89 e5                	mov    %esp,%ebp
    3071:	83 ec 18             	sub    $0x18,%esp
    3074:	c7 04 24 76 79 00 00 	movl   $0x7976,(%esp)
    307b:	e8 b7 e1 ff ff       	call   1237 <Video_printf>
    3080:	eb fe                	jmp    3080 <Interrupt_Handler_87+0x12>

00003082 <Interrupt_Handler_88>:
    3082:	55                   	push   %ebp
    3083:	89 e5                	mov    %esp,%ebp
    3085:	83 ec 18             	sub    $0x18,%esp
    3088:	c7 04 24 8d 79 00 00 	movl   $0x798d,(%esp)
    308f:	e8 a3 e1 ff ff       	call   1237 <Video_printf>
    3094:	eb fe                	jmp    3094 <Interrupt_Handler_88+0x12>

00003096 <Interrupt_Handler_89>:
    3096:	55                   	push   %ebp
    3097:	89 e5                	mov    %esp,%ebp
    3099:	83 ec 18             	sub    $0x18,%esp
    309c:	c7 04 24 a4 79 00 00 	movl   $0x79a4,(%esp)
    30a3:	e8 8f e1 ff ff       	call   1237 <Video_printf>
    30a8:	eb fe                	jmp    30a8 <Interrupt_Handler_89+0x12>

000030aa <Interrupt_Handler_90>:
    30aa:	55                   	push   %ebp
    30ab:	89 e5                	mov    %esp,%ebp
    30ad:	83 ec 18             	sub    $0x18,%esp
    30b0:	c7 04 24 bb 79 00 00 	movl   $0x79bb,(%esp)
    30b7:	e8 7b e1 ff ff       	call   1237 <Video_printf>
    30bc:	eb fe                	jmp    30bc <Interrupt_Handler_90+0x12>

000030be <Interrupt_Handler_91>:
    30be:	55                   	push   %ebp
    30bf:	89 e5                	mov    %esp,%ebp
    30c1:	83 ec 18             	sub    $0x18,%esp
    30c4:	c7 04 24 d2 79 00 00 	movl   $0x79d2,(%esp)
    30cb:	e8 67 e1 ff ff       	call   1237 <Video_printf>
    30d0:	eb fe                	jmp    30d0 <Interrupt_Handler_91+0x12>

000030d2 <Interrupt_Handler_92>:
    30d2:	55                   	push   %ebp
    30d3:	89 e5                	mov    %esp,%ebp
    30d5:	83 ec 18             	sub    $0x18,%esp
    30d8:	c7 04 24 e9 79 00 00 	movl   $0x79e9,(%esp)
    30df:	e8 53 e1 ff ff       	call   1237 <Video_printf>
    30e4:	eb fe                	jmp    30e4 <Interrupt_Handler_92+0x12>

000030e6 <Interrupt_Handler_93>:
    30e6:	55                   	push   %ebp
    30e7:	89 e5                	mov    %esp,%ebp
    30e9:	83 ec 18             	sub    $0x18,%esp
    30ec:	c7 04 24 00 7a 00 00 	movl   $0x7a00,(%esp)
    30f3:	e8 3f e1 ff ff       	call   1237 <Video_printf>
    30f8:	eb fe                	jmp    30f8 <Interrupt_Handler_93+0x12>

000030fa <Interrupt_Handler_94>:
    30fa:	55                   	push   %ebp
    30fb:	89 e5                	mov    %esp,%ebp
    30fd:	83 ec 18             	sub    $0x18,%esp
    3100:	c7 04 24 17 7a 00 00 	movl   $0x7a17,(%esp)
    3107:	e8 2b e1 ff ff       	call   1237 <Video_printf>
    310c:	eb fe                	jmp    310c <Interrupt_Handler_94+0x12>

0000310e <Interrupt_Handler_95>:
    310e:	55                   	push   %ebp
    310f:	89 e5                	mov    %esp,%ebp
    3111:	83 ec 18             	sub    $0x18,%esp
    3114:	c7 04 24 2e 7a 00 00 	movl   $0x7a2e,(%esp)
    311b:	e8 17 e1 ff ff       	call   1237 <Video_printf>
    3120:	eb fe                	jmp    3120 <Interrupt_Handler_95+0x12>

00003122 <Interrupt_Handler_96>:
    3122:	55                   	push   %ebp
    3123:	89 e5                	mov    %esp,%ebp
    3125:	83 ec 18             	sub    $0x18,%esp
    3128:	c7 04 24 45 7a 00 00 	movl   $0x7a45,(%esp)
    312f:	e8 03 e1 ff ff       	call   1237 <Video_printf>
    3134:	eb fe                	jmp    3134 <Interrupt_Handler_96+0x12>

00003136 <Interrupt_Handler_97>:
    3136:	55                   	push   %ebp
    3137:	89 e5                	mov    %esp,%ebp
    3139:	83 ec 18             	sub    $0x18,%esp
    313c:	c7 04 24 5c 7a 00 00 	movl   $0x7a5c,(%esp)
    3143:	e8 ef e0 ff ff       	call   1237 <Video_printf>
    3148:	eb fe                	jmp    3148 <Interrupt_Handler_97+0x12>

0000314a <Interrupt_Handler_98>:
    314a:	55                   	push   %ebp
    314b:	89 e5                	mov    %esp,%ebp
    314d:	83 ec 18             	sub    $0x18,%esp
    3150:	c7 04 24 73 7a 00 00 	movl   $0x7a73,(%esp)
    3157:	e8 db e0 ff ff       	call   1237 <Video_printf>
    315c:	eb fe                	jmp    315c <Interrupt_Handler_98+0x12>

0000315e <Interrupt_Handler_99>:
    315e:	55                   	push   %ebp
    315f:	89 e5                	mov    %esp,%ebp
    3161:	83 ec 18             	sub    $0x18,%esp
    3164:	c7 04 24 8a 7a 00 00 	movl   $0x7a8a,(%esp)
    316b:	e8 c7 e0 ff ff       	call   1237 <Video_printf>
    3170:	eb fe                	jmp    3170 <Interrupt_Handler_99+0x12>

00003172 <Interrupt_Handler_100>:
    3172:	55                   	push   %ebp
    3173:	89 e5                	mov    %esp,%ebp
    3175:	83 ec 18             	sub    $0x18,%esp
    3178:	c7 04 24 a1 7a 00 00 	movl   $0x7aa1,(%esp)
    317f:	e8 b3 e0 ff ff       	call   1237 <Video_printf>
    3184:	eb fe                	jmp    3184 <Interrupt_Handler_100+0x12>

00003186 <Interrupt_Handler_101>:
    3186:	55                   	push   %ebp
    3187:	89 e5                	mov    %esp,%ebp
    3189:	83 ec 18             	sub    $0x18,%esp
    318c:	c7 04 24 b9 7a 00 00 	movl   $0x7ab9,(%esp)
    3193:	e8 9f e0 ff ff       	call   1237 <Video_printf>
    3198:	eb fe                	jmp    3198 <Interrupt_Handler_101+0x12>

0000319a <Interrupt_Handler_102>:
    319a:	55                   	push   %ebp
    319b:	89 e5                	mov    %esp,%ebp
    319d:	83 ec 18             	sub    $0x18,%esp
    31a0:	c7 04 24 d1 7a 00 00 	movl   $0x7ad1,(%esp)
    31a7:	e8 8b e0 ff ff       	call   1237 <Video_printf>
    31ac:	eb fe                	jmp    31ac <Interrupt_Handler_102+0x12>

000031ae <Interrupt_Handler_103>:
    31ae:	55                   	push   %ebp
    31af:	89 e5                	mov    %esp,%ebp
    31b1:	83 ec 18             	sub    $0x18,%esp
    31b4:	c7 04 24 e9 7a 00 00 	movl   $0x7ae9,(%esp)
    31bb:	e8 77 e0 ff ff       	call   1237 <Video_printf>
    31c0:	eb fe                	jmp    31c0 <Interrupt_Handler_103+0x12>

000031c2 <Interrupt_Handler_104>:
    31c2:	55                   	push   %ebp
    31c3:	89 e5                	mov    %esp,%ebp
    31c5:	83 ec 18             	sub    $0x18,%esp
    31c8:	c7 04 24 01 7b 00 00 	movl   $0x7b01,(%esp)
    31cf:	e8 63 e0 ff ff       	call   1237 <Video_printf>
    31d4:	eb fe                	jmp    31d4 <Interrupt_Handler_104+0x12>

000031d6 <Interrupt_Handler_105>:
    31d6:	55                   	push   %ebp
    31d7:	89 e5                	mov    %esp,%ebp
    31d9:	83 ec 18             	sub    $0x18,%esp
    31dc:	c7 04 24 19 7b 00 00 	movl   $0x7b19,(%esp)
    31e3:	e8 4f e0 ff ff       	call   1237 <Video_printf>
    31e8:	eb fe                	jmp    31e8 <Interrupt_Handler_105+0x12>

000031ea <Interrupt_Handler_106>:
    31ea:	55                   	push   %ebp
    31eb:	89 e5                	mov    %esp,%ebp
    31ed:	83 ec 18             	sub    $0x18,%esp
    31f0:	c7 04 24 31 7b 00 00 	movl   $0x7b31,(%esp)
    31f7:	e8 3b e0 ff ff       	call   1237 <Video_printf>
    31fc:	eb fe                	jmp    31fc <Interrupt_Handler_106+0x12>

000031fe <Interrupt_Handler_107>:
    31fe:	55                   	push   %ebp
    31ff:	89 e5                	mov    %esp,%ebp
    3201:	83 ec 18             	sub    $0x18,%esp
    3204:	c7 04 24 49 7b 00 00 	movl   $0x7b49,(%esp)
    320b:	e8 27 e0 ff ff       	call   1237 <Video_printf>
    3210:	eb fe                	jmp    3210 <Interrupt_Handler_107+0x12>

00003212 <Interrupt_Handler_108>:
    3212:	55                   	push   %ebp
    3213:	89 e5                	mov    %esp,%ebp
    3215:	83 ec 18             	sub    $0x18,%esp
    3218:	c7 04 24 61 7b 00 00 	movl   $0x7b61,(%esp)
    321f:	e8 13 e0 ff ff       	call   1237 <Video_printf>
    3224:	eb fe                	jmp    3224 <Interrupt_Handler_108+0x12>

00003226 <Interrupt_Handler_109>:
    3226:	55                   	push   %ebp
    3227:	89 e5                	mov    %esp,%ebp
    3229:	83 ec 18             	sub    $0x18,%esp
    322c:	c7 04 24 79 7b 00 00 	movl   $0x7b79,(%esp)
    3233:	e8 ff df ff ff       	call   1237 <Video_printf>
    3238:	eb fe                	jmp    3238 <Interrupt_Handler_109+0x12>

0000323a <Interrupt_Handler_110>:
    323a:	55                   	push   %ebp
    323b:	89 e5                	mov    %esp,%ebp
    323d:	83 ec 18             	sub    $0x18,%esp
    3240:	c7 04 24 91 7b 00 00 	movl   $0x7b91,(%esp)
    3247:	e8 eb df ff ff       	call   1237 <Video_printf>
    324c:	eb fe                	jmp    324c <Interrupt_Handler_110+0x12>

0000324e <Interrupt_Handler_111>:
    324e:	55                   	push   %ebp
    324f:	89 e5                	mov    %esp,%ebp
    3251:	83 ec 18             	sub    $0x18,%esp
    3254:	c7 04 24 a9 7b 00 00 	movl   $0x7ba9,(%esp)
    325b:	e8 d7 df ff ff       	call   1237 <Video_printf>
    3260:	eb fe                	jmp    3260 <Interrupt_Handler_111+0x12>

00003262 <Interrupt_Handler_112>:
    3262:	55                   	push   %ebp
    3263:	89 e5                	mov    %esp,%ebp
    3265:	83 ec 18             	sub    $0x18,%esp
    3268:	c7 04 24 c1 7b 00 00 	movl   $0x7bc1,(%esp)
    326f:	e8 c3 df ff ff       	call   1237 <Video_printf>
    3274:	eb fe                	jmp    3274 <Interrupt_Handler_112+0x12>

00003276 <Interrupt_Handler_113>:
    3276:	55                   	push   %ebp
    3277:	89 e5                	mov    %esp,%ebp
    3279:	83 ec 18             	sub    $0x18,%esp
    327c:	c7 04 24 d9 7b 00 00 	movl   $0x7bd9,(%esp)
    3283:	e8 af df ff ff       	call   1237 <Video_printf>
    3288:	eb fe                	jmp    3288 <Interrupt_Handler_113+0x12>

0000328a <Interrupt_Handler_114>:
    328a:	55                   	push   %ebp
    328b:	89 e5                	mov    %esp,%ebp
    328d:	83 ec 18             	sub    $0x18,%esp
    3290:	c7 04 24 f1 7b 00 00 	movl   $0x7bf1,(%esp)
    3297:	e8 9b df ff ff       	call   1237 <Video_printf>
    329c:	eb fe                	jmp    329c <Interrupt_Handler_114+0x12>

0000329e <Interrupt_Handler_115>:
    329e:	55                   	push   %ebp
    329f:	89 e5                	mov    %esp,%ebp
    32a1:	83 ec 18             	sub    $0x18,%esp
    32a4:	c7 04 24 09 7c 00 00 	movl   $0x7c09,(%esp)
    32ab:	e8 87 df ff ff       	call   1237 <Video_printf>
    32b0:	eb fe                	jmp    32b0 <Interrupt_Handler_115+0x12>

000032b2 <Interrupt_Handler_116>:
    32b2:	55                   	push   %ebp
    32b3:	89 e5                	mov    %esp,%ebp
    32b5:	83 ec 18             	sub    $0x18,%esp
    32b8:	c7 04 24 21 7c 00 00 	movl   $0x7c21,(%esp)
    32bf:	e8 73 df ff ff       	call   1237 <Video_printf>
    32c4:	eb fe                	jmp    32c4 <Interrupt_Handler_116+0x12>

000032c6 <Interrupt_Handler_117>:
    32c6:	55                   	push   %ebp
    32c7:	89 e5                	mov    %esp,%ebp
    32c9:	83 ec 18             	sub    $0x18,%esp
    32cc:	c7 04 24 39 7c 00 00 	movl   $0x7c39,(%esp)
    32d3:	e8 5f df ff ff       	call   1237 <Video_printf>
    32d8:	eb fe                	jmp    32d8 <Interrupt_Handler_117+0x12>

000032da <Interrupt_Handler_118>:
    32da:	55                   	push   %ebp
    32db:	89 e5                	mov    %esp,%ebp
    32dd:	83 ec 18             	sub    $0x18,%esp
    32e0:	c7 04 24 51 7c 00 00 	movl   $0x7c51,(%esp)
    32e7:	e8 4b df ff ff       	call   1237 <Video_printf>
    32ec:	eb fe                	jmp    32ec <Interrupt_Handler_118+0x12>

000032ee <Interrupt_Handler_119>:
    32ee:	55                   	push   %ebp
    32ef:	89 e5                	mov    %esp,%ebp
    32f1:	83 ec 18             	sub    $0x18,%esp
    32f4:	c7 04 24 69 7c 00 00 	movl   $0x7c69,(%esp)
    32fb:	e8 37 df ff ff       	call   1237 <Video_printf>
    3300:	eb fe                	jmp    3300 <Interrupt_Handler_119+0x12>

00003302 <Interrupt_Handler_120>:
    3302:	55                   	push   %ebp
    3303:	89 e5                	mov    %esp,%ebp
    3305:	83 ec 18             	sub    $0x18,%esp
    3308:	c7 04 24 81 7c 00 00 	movl   $0x7c81,(%esp)
    330f:	e8 23 df ff ff       	call   1237 <Video_printf>
    3314:	eb fe                	jmp    3314 <Interrupt_Handler_120+0x12>

00003316 <Interrupt_Handler_121>:
    3316:	55                   	push   %ebp
    3317:	89 e5                	mov    %esp,%ebp
    3319:	83 ec 18             	sub    $0x18,%esp
    331c:	c7 04 24 99 7c 00 00 	movl   $0x7c99,(%esp)
    3323:	e8 0f df ff ff       	call   1237 <Video_printf>
    3328:	eb fe                	jmp    3328 <Interrupt_Handler_121+0x12>

0000332a <Interrupt_Handler_122>:
    332a:	55                   	push   %ebp
    332b:	89 e5                	mov    %esp,%ebp
    332d:	83 ec 18             	sub    $0x18,%esp
    3330:	c7 04 24 b1 7c 00 00 	movl   $0x7cb1,(%esp)
    3337:	e8 fb de ff ff       	call   1237 <Video_printf>
    333c:	eb fe                	jmp    333c <Interrupt_Handler_122+0x12>

0000333e <Interrupt_Handler_123>:
    333e:	55                   	push   %ebp
    333f:	89 e5                	mov    %esp,%ebp
    3341:	83 ec 18             	sub    $0x18,%esp
    3344:	c7 04 24 c9 7c 00 00 	movl   $0x7cc9,(%esp)
    334b:	e8 e7 de ff ff       	call   1237 <Video_printf>
    3350:	eb fe                	jmp    3350 <Interrupt_Handler_123+0x12>

00003352 <Interrupt_Handler_124>:
    3352:	55                   	push   %ebp
    3353:	89 e5                	mov    %esp,%ebp
    3355:	83 ec 18             	sub    $0x18,%esp
    3358:	c7 04 24 e1 7c 00 00 	movl   $0x7ce1,(%esp)
    335f:	e8 d3 de ff ff       	call   1237 <Video_printf>
    3364:	eb fe                	jmp    3364 <Interrupt_Handler_124+0x12>

00003366 <Interrupt_Handler_125>:
    3366:	55                   	push   %ebp
    3367:	89 e5                	mov    %esp,%ebp
    3369:	83 ec 18             	sub    $0x18,%esp
    336c:	c7 04 24 f9 7c 00 00 	movl   $0x7cf9,(%esp)
    3373:	e8 bf de ff ff       	call   1237 <Video_printf>
    3378:	eb fe                	jmp    3378 <Interrupt_Handler_125+0x12>

0000337a <Interrupt_Handler_126>:
    337a:	55                   	push   %ebp
    337b:	89 e5                	mov    %esp,%ebp
    337d:	83 ec 18             	sub    $0x18,%esp
    3380:	c7 04 24 11 7d 00 00 	movl   $0x7d11,(%esp)
    3387:	e8 ab de ff ff       	call   1237 <Video_printf>
    338c:	eb fe                	jmp    338c <Interrupt_Handler_126+0x12>

0000338e <Interrupt_Handler_127>:
    338e:	55                   	push   %ebp
    338f:	89 e5                	mov    %esp,%ebp
    3391:	83 ec 18             	sub    $0x18,%esp
    3394:	c7 04 24 29 7d 00 00 	movl   $0x7d29,(%esp)
    339b:	e8 97 de ff ff       	call   1237 <Video_printf>
    33a0:	eb fe                	jmp    33a0 <Interrupt_Handler_127+0x12>

000033a2 <Interrupt_Handler_128>:
    33a2:	55                   	push   %ebp
    33a3:	89 e5                	mov    %esp,%ebp
    33a5:	83 ec 18             	sub    $0x18,%esp
    33a8:	c7 04 24 41 7d 00 00 	movl   $0x7d41,(%esp)
    33af:	e8 83 de ff ff       	call   1237 <Video_printf>
    33b4:	eb fe                	jmp    33b4 <Interrupt_Handler_128+0x12>

000033b6 <Interrupt_Handler_129>:
    33b6:	55                   	push   %ebp
    33b7:	89 e5                	mov    %esp,%ebp
    33b9:	83 ec 18             	sub    $0x18,%esp
    33bc:	c7 04 24 59 7d 00 00 	movl   $0x7d59,(%esp)
    33c3:	e8 6f de ff ff       	call   1237 <Video_printf>
    33c8:	eb fe                	jmp    33c8 <Interrupt_Handler_129+0x12>

000033ca <Interrupt_Handler_130>:
    33ca:	55                   	push   %ebp
    33cb:	89 e5                	mov    %esp,%ebp
    33cd:	83 ec 18             	sub    $0x18,%esp
    33d0:	c7 04 24 71 7d 00 00 	movl   $0x7d71,(%esp)
    33d7:	e8 5b de ff ff       	call   1237 <Video_printf>
    33dc:	eb fe                	jmp    33dc <Interrupt_Handler_130+0x12>

000033de <Interrupt_Handler_131>:
    33de:	55                   	push   %ebp
    33df:	89 e5                	mov    %esp,%ebp
    33e1:	83 ec 18             	sub    $0x18,%esp
    33e4:	c7 04 24 89 7d 00 00 	movl   $0x7d89,(%esp)
    33eb:	e8 47 de ff ff       	call   1237 <Video_printf>
    33f0:	eb fe                	jmp    33f0 <Interrupt_Handler_131+0x12>

000033f2 <Interrupt_Handler_132>:
    33f2:	55                   	push   %ebp
    33f3:	89 e5                	mov    %esp,%ebp
    33f5:	83 ec 18             	sub    $0x18,%esp
    33f8:	c7 04 24 a1 7d 00 00 	movl   $0x7da1,(%esp)
    33ff:	e8 33 de ff ff       	call   1237 <Video_printf>
    3404:	eb fe                	jmp    3404 <Interrupt_Handler_132+0x12>

00003406 <Interrupt_Handler_133>:
    3406:	55                   	push   %ebp
    3407:	89 e5                	mov    %esp,%ebp
    3409:	83 ec 18             	sub    $0x18,%esp
    340c:	c7 04 24 b9 7d 00 00 	movl   $0x7db9,(%esp)
    3413:	e8 1f de ff ff       	call   1237 <Video_printf>
    3418:	eb fe                	jmp    3418 <Interrupt_Handler_133+0x12>

0000341a <Interrupt_Handler_134>:
    341a:	55                   	push   %ebp
    341b:	89 e5                	mov    %esp,%ebp
    341d:	83 ec 18             	sub    $0x18,%esp
    3420:	c7 04 24 d1 7d 00 00 	movl   $0x7dd1,(%esp)
    3427:	e8 0b de ff ff       	call   1237 <Video_printf>
    342c:	eb fe                	jmp    342c <Interrupt_Handler_134+0x12>

0000342e <Interrupt_Handler_135>:
    342e:	55                   	push   %ebp
    342f:	89 e5                	mov    %esp,%ebp
    3431:	83 ec 18             	sub    $0x18,%esp
    3434:	c7 04 24 e9 7d 00 00 	movl   $0x7de9,(%esp)
    343b:	e8 f7 dd ff ff       	call   1237 <Video_printf>
    3440:	eb fe                	jmp    3440 <Interrupt_Handler_135+0x12>

00003442 <Interrupt_Handler_136>:
    3442:	55                   	push   %ebp
    3443:	89 e5                	mov    %esp,%ebp
    3445:	83 ec 18             	sub    $0x18,%esp
    3448:	c7 04 24 01 7e 00 00 	movl   $0x7e01,(%esp)
    344f:	e8 e3 dd ff ff       	call   1237 <Video_printf>
    3454:	eb fe                	jmp    3454 <Interrupt_Handler_136+0x12>

00003456 <Interrupt_Handler_137>:
    3456:	55                   	push   %ebp
    3457:	89 e5                	mov    %esp,%ebp
    3459:	83 ec 18             	sub    $0x18,%esp
    345c:	c7 04 24 19 7e 00 00 	movl   $0x7e19,(%esp)
    3463:	e8 cf dd ff ff       	call   1237 <Video_printf>
    3468:	eb fe                	jmp    3468 <Interrupt_Handler_137+0x12>

0000346a <Interrupt_Handler_138>:
    346a:	55                   	push   %ebp
    346b:	89 e5                	mov    %esp,%ebp
    346d:	83 ec 18             	sub    $0x18,%esp
    3470:	c7 04 24 31 7e 00 00 	movl   $0x7e31,(%esp)
    3477:	e8 bb dd ff ff       	call   1237 <Video_printf>
    347c:	eb fe                	jmp    347c <Interrupt_Handler_138+0x12>

0000347e <Interrupt_Handler_139>:
    347e:	55                   	push   %ebp
    347f:	89 e5                	mov    %esp,%ebp
    3481:	83 ec 18             	sub    $0x18,%esp
    3484:	c7 04 24 49 7e 00 00 	movl   $0x7e49,(%esp)
    348b:	e8 a7 dd ff ff       	call   1237 <Video_printf>
    3490:	eb fe                	jmp    3490 <Interrupt_Handler_139+0x12>

00003492 <Interrupt_Handler_140>:
    3492:	55                   	push   %ebp
    3493:	89 e5                	mov    %esp,%ebp
    3495:	83 ec 18             	sub    $0x18,%esp
    3498:	c7 04 24 61 7e 00 00 	movl   $0x7e61,(%esp)
    349f:	e8 93 dd ff ff       	call   1237 <Video_printf>
    34a4:	eb fe                	jmp    34a4 <Interrupt_Handler_140+0x12>

000034a6 <Interrupt_Handler_141>:
    34a6:	55                   	push   %ebp
    34a7:	89 e5                	mov    %esp,%ebp
    34a9:	83 ec 18             	sub    $0x18,%esp
    34ac:	c7 04 24 79 7e 00 00 	movl   $0x7e79,(%esp)
    34b3:	e8 7f dd ff ff       	call   1237 <Video_printf>
    34b8:	eb fe                	jmp    34b8 <Interrupt_Handler_141+0x12>

000034ba <Interrupt_Handler_142>:
    34ba:	55                   	push   %ebp
    34bb:	89 e5                	mov    %esp,%ebp
    34bd:	83 ec 18             	sub    $0x18,%esp
    34c0:	c7 04 24 91 7e 00 00 	movl   $0x7e91,(%esp)
    34c7:	e8 6b dd ff ff       	call   1237 <Video_printf>
    34cc:	eb fe                	jmp    34cc <Interrupt_Handler_142+0x12>

000034ce <Interrupt_Handler_143>:
    34ce:	55                   	push   %ebp
    34cf:	89 e5                	mov    %esp,%ebp
    34d1:	83 ec 18             	sub    $0x18,%esp
    34d4:	c7 04 24 a9 7e 00 00 	movl   $0x7ea9,(%esp)
    34db:	e8 57 dd ff ff       	call   1237 <Video_printf>
    34e0:	eb fe                	jmp    34e0 <Interrupt_Handler_143+0x12>

000034e2 <Interrupt_Handler_144>:
    34e2:	55                   	push   %ebp
    34e3:	89 e5                	mov    %esp,%ebp
    34e5:	83 ec 18             	sub    $0x18,%esp
    34e8:	c7 04 24 c1 7e 00 00 	movl   $0x7ec1,(%esp)
    34ef:	e8 43 dd ff ff       	call   1237 <Video_printf>
    34f4:	eb fe                	jmp    34f4 <Interrupt_Handler_144+0x12>

000034f6 <Interrupt_Handler_145>:
    34f6:	55                   	push   %ebp
    34f7:	89 e5                	mov    %esp,%ebp
    34f9:	83 ec 18             	sub    $0x18,%esp
    34fc:	c7 04 24 d9 7e 00 00 	movl   $0x7ed9,(%esp)
    3503:	e8 2f dd ff ff       	call   1237 <Video_printf>
    3508:	eb fe                	jmp    3508 <Interrupt_Handler_145+0x12>

0000350a <Interrupt_Handler_146>:
    350a:	55                   	push   %ebp
    350b:	89 e5                	mov    %esp,%ebp
    350d:	83 ec 18             	sub    $0x18,%esp
    3510:	c7 04 24 f1 7e 00 00 	movl   $0x7ef1,(%esp)
    3517:	e8 1b dd ff ff       	call   1237 <Video_printf>
    351c:	eb fe                	jmp    351c <Interrupt_Handler_146+0x12>

0000351e <Interrupt_Handler_147>:
    351e:	55                   	push   %ebp
    351f:	89 e5                	mov    %esp,%ebp
    3521:	83 ec 18             	sub    $0x18,%esp
    3524:	c7 04 24 09 7f 00 00 	movl   $0x7f09,(%esp)
    352b:	e8 07 dd ff ff       	call   1237 <Video_printf>
    3530:	eb fe                	jmp    3530 <Interrupt_Handler_147+0x12>

00003532 <Interrupt_Handler_148>:
    3532:	55                   	push   %ebp
    3533:	89 e5                	mov    %esp,%ebp
    3535:	83 ec 18             	sub    $0x18,%esp
    3538:	c7 04 24 21 7f 00 00 	movl   $0x7f21,(%esp)
    353f:	e8 f3 dc ff ff       	call   1237 <Video_printf>
    3544:	eb fe                	jmp    3544 <Interrupt_Handler_148+0x12>

00003546 <Interrupt_Handler_149>:
    3546:	55                   	push   %ebp
    3547:	89 e5                	mov    %esp,%ebp
    3549:	83 ec 18             	sub    $0x18,%esp
    354c:	c7 04 24 39 7f 00 00 	movl   $0x7f39,(%esp)
    3553:	e8 df dc ff ff       	call   1237 <Video_printf>
    3558:	eb fe                	jmp    3558 <Interrupt_Handler_149+0x12>

0000355a <Interrupt_Handler_150>:
    355a:	55                   	push   %ebp
    355b:	89 e5                	mov    %esp,%ebp
    355d:	83 ec 18             	sub    $0x18,%esp
    3560:	c7 04 24 51 7f 00 00 	movl   $0x7f51,(%esp)
    3567:	e8 cb dc ff ff       	call   1237 <Video_printf>
    356c:	eb fe                	jmp    356c <Interrupt_Handler_150+0x12>

0000356e <Interrupt_Handler_151>:
    356e:	55                   	push   %ebp
    356f:	89 e5                	mov    %esp,%ebp
    3571:	83 ec 18             	sub    $0x18,%esp
    3574:	c7 04 24 69 7f 00 00 	movl   $0x7f69,(%esp)
    357b:	e8 b7 dc ff ff       	call   1237 <Video_printf>
    3580:	eb fe                	jmp    3580 <Interrupt_Handler_151+0x12>

00003582 <Interrupt_Handler_152>:
    3582:	55                   	push   %ebp
    3583:	89 e5                	mov    %esp,%ebp
    3585:	83 ec 18             	sub    $0x18,%esp
    3588:	c7 04 24 81 7f 00 00 	movl   $0x7f81,(%esp)
    358f:	e8 a3 dc ff ff       	call   1237 <Video_printf>
    3594:	eb fe                	jmp    3594 <Interrupt_Handler_152+0x12>

00003596 <Interrupt_Handler_153>:
    3596:	55                   	push   %ebp
    3597:	89 e5                	mov    %esp,%ebp
    3599:	83 ec 18             	sub    $0x18,%esp
    359c:	c7 04 24 99 7f 00 00 	movl   $0x7f99,(%esp)
    35a3:	e8 8f dc ff ff       	call   1237 <Video_printf>
    35a8:	eb fe                	jmp    35a8 <Interrupt_Handler_153+0x12>

000035aa <Interrupt_Handler_154>:
    35aa:	55                   	push   %ebp
    35ab:	89 e5                	mov    %esp,%ebp
    35ad:	83 ec 18             	sub    $0x18,%esp
    35b0:	c7 04 24 b1 7f 00 00 	movl   $0x7fb1,(%esp)
    35b7:	e8 7b dc ff ff       	call   1237 <Video_printf>
    35bc:	eb fe                	jmp    35bc <Interrupt_Handler_154+0x12>

000035be <Interrupt_Handler_155>:
    35be:	55                   	push   %ebp
    35bf:	89 e5                	mov    %esp,%ebp
    35c1:	83 ec 18             	sub    $0x18,%esp
    35c4:	c7 04 24 c9 7f 00 00 	movl   $0x7fc9,(%esp)
    35cb:	e8 67 dc ff ff       	call   1237 <Video_printf>
    35d0:	eb fe                	jmp    35d0 <Interrupt_Handler_155+0x12>

000035d2 <Interrupt_Handler_156>:
    35d2:	55                   	push   %ebp
    35d3:	89 e5                	mov    %esp,%ebp
    35d5:	83 ec 18             	sub    $0x18,%esp
    35d8:	c7 04 24 e1 7f 00 00 	movl   $0x7fe1,(%esp)
    35df:	e8 53 dc ff ff       	call   1237 <Video_printf>
    35e4:	eb fe                	jmp    35e4 <Interrupt_Handler_156+0x12>

000035e6 <Interrupt_Handler_157>:
    35e6:	55                   	push   %ebp
    35e7:	89 e5                	mov    %esp,%ebp
    35e9:	83 ec 18             	sub    $0x18,%esp
    35ec:	c7 04 24 f9 7f 00 00 	movl   $0x7ff9,(%esp)
    35f3:	e8 3f dc ff ff       	call   1237 <Video_printf>
    35f8:	eb fe                	jmp    35f8 <Interrupt_Handler_157+0x12>

000035fa <Interrupt_Handler_158>:
    35fa:	55                   	push   %ebp
    35fb:	89 e5                	mov    %esp,%ebp
    35fd:	83 ec 18             	sub    $0x18,%esp
    3600:	c7 04 24 11 80 00 00 	movl   $0x8011,(%esp)
    3607:	e8 2b dc ff ff       	call   1237 <Video_printf>
    360c:	eb fe                	jmp    360c <Interrupt_Handler_158+0x12>

0000360e <Interrupt_Handler_159>:
    360e:	55                   	push   %ebp
    360f:	89 e5                	mov    %esp,%ebp
    3611:	83 ec 18             	sub    $0x18,%esp
    3614:	c7 04 24 29 80 00 00 	movl   $0x8029,(%esp)
    361b:	e8 17 dc ff ff       	call   1237 <Video_printf>
    3620:	eb fe                	jmp    3620 <Interrupt_Handler_159+0x12>

00003622 <Interrupt_Handler_160>:
    3622:	55                   	push   %ebp
    3623:	89 e5                	mov    %esp,%ebp
    3625:	83 ec 18             	sub    $0x18,%esp
    3628:	c7 04 24 41 80 00 00 	movl   $0x8041,(%esp)
    362f:	e8 03 dc ff ff       	call   1237 <Video_printf>
    3634:	eb fe                	jmp    3634 <Interrupt_Handler_160+0x12>

00003636 <Interrupt_Handler_161>:
    3636:	55                   	push   %ebp
    3637:	89 e5                	mov    %esp,%ebp
    3639:	83 ec 18             	sub    $0x18,%esp
    363c:	c7 04 24 59 80 00 00 	movl   $0x8059,(%esp)
    3643:	e8 ef db ff ff       	call   1237 <Video_printf>
    3648:	eb fe                	jmp    3648 <Interrupt_Handler_161+0x12>

0000364a <Interrupt_Handler_162>:
    364a:	55                   	push   %ebp
    364b:	89 e5                	mov    %esp,%ebp
    364d:	83 ec 18             	sub    $0x18,%esp
    3650:	c7 04 24 71 80 00 00 	movl   $0x8071,(%esp)
    3657:	e8 db db ff ff       	call   1237 <Video_printf>
    365c:	eb fe                	jmp    365c <Interrupt_Handler_162+0x12>

0000365e <Interrupt_Handler_163>:
    365e:	55                   	push   %ebp
    365f:	89 e5                	mov    %esp,%ebp
    3661:	83 ec 18             	sub    $0x18,%esp
    3664:	c7 04 24 89 80 00 00 	movl   $0x8089,(%esp)
    366b:	e8 c7 db ff ff       	call   1237 <Video_printf>
    3670:	eb fe                	jmp    3670 <Interrupt_Handler_163+0x12>

00003672 <Interrupt_Handler_164>:
    3672:	55                   	push   %ebp
    3673:	89 e5                	mov    %esp,%ebp
    3675:	83 ec 18             	sub    $0x18,%esp
    3678:	c7 04 24 a1 80 00 00 	movl   $0x80a1,(%esp)
    367f:	e8 b3 db ff ff       	call   1237 <Video_printf>
    3684:	eb fe                	jmp    3684 <Interrupt_Handler_164+0x12>

00003686 <Interrupt_Handler_165>:
    3686:	55                   	push   %ebp
    3687:	89 e5                	mov    %esp,%ebp
    3689:	83 ec 18             	sub    $0x18,%esp
    368c:	c7 04 24 b9 80 00 00 	movl   $0x80b9,(%esp)
    3693:	e8 9f db ff ff       	call   1237 <Video_printf>
    3698:	eb fe                	jmp    3698 <Interrupt_Handler_165+0x12>

0000369a <Interrupt_Handler_166>:
    369a:	55                   	push   %ebp
    369b:	89 e5                	mov    %esp,%ebp
    369d:	83 ec 18             	sub    $0x18,%esp
    36a0:	c7 04 24 d1 80 00 00 	movl   $0x80d1,(%esp)
    36a7:	e8 8b db ff ff       	call   1237 <Video_printf>
    36ac:	eb fe                	jmp    36ac <Interrupt_Handler_166+0x12>

000036ae <Interrupt_Handler_167>:
    36ae:	55                   	push   %ebp
    36af:	89 e5                	mov    %esp,%ebp
    36b1:	83 ec 18             	sub    $0x18,%esp
    36b4:	c7 04 24 e9 80 00 00 	movl   $0x80e9,(%esp)
    36bb:	e8 77 db ff ff       	call   1237 <Video_printf>
    36c0:	eb fe                	jmp    36c0 <Interrupt_Handler_167+0x12>

000036c2 <Interrupt_Handler_168>:
    36c2:	55                   	push   %ebp
    36c3:	89 e5                	mov    %esp,%ebp
    36c5:	83 ec 18             	sub    $0x18,%esp
    36c8:	c7 04 24 01 81 00 00 	movl   $0x8101,(%esp)
    36cf:	e8 63 db ff ff       	call   1237 <Video_printf>
    36d4:	eb fe                	jmp    36d4 <Interrupt_Handler_168+0x12>

000036d6 <Interrupt_Handler_169>:
    36d6:	55                   	push   %ebp
    36d7:	89 e5                	mov    %esp,%ebp
    36d9:	83 ec 18             	sub    $0x18,%esp
    36dc:	c7 04 24 19 81 00 00 	movl   $0x8119,(%esp)
    36e3:	e8 4f db ff ff       	call   1237 <Video_printf>
    36e8:	eb fe                	jmp    36e8 <Interrupt_Handler_169+0x12>

000036ea <Interrupt_Handler_170>:
    36ea:	55                   	push   %ebp
    36eb:	89 e5                	mov    %esp,%ebp
    36ed:	83 ec 18             	sub    $0x18,%esp
    36f0:	c7 04 24 31 81 00 00 	movl   $0x8131,(%esp)
    36f7:	e8 3b db ff ff       	call   1237 <Video_printf>
    36fc:	eb fe                	jmp    36fc <Interrupt_Handler_170+0x12>

000036fe <Interrupt_Handler_171>:
    36fe:	55                   	push   %ebp
    36ff:	89 e5                	mov    %esp,%ebp
    3701:	83 ec 18             	sub    $0x18,%esp
    3704:	c7 04 24 49 81 00 00 	movl   $0x8149,(%esp)
    370b:	e8 27 db ff ff       	call   1237 <Video_printf>
    3710:	eb fe                	jmp    3710 <Interrupt_Handler_171+0x12>

00003712 <Interrupt_Handler_172>:
    3712:	55                   	push   %ebp
    3713:	89 e5                	mov    %esp,%ebp
    3715:	83 ec 18             	sub    $0x18,%esp
    3718:	c7 04 24 61 81 00 00 	movl   $0x8161,(%esp)
    371f:	e8 13 db ff ff       	call   1237 <Video_printf>
    3724:	eb fe                	jmp    3724 <Interrupt_Handler_172+0x12>

00003726 <Interrupt_Handler_173>:
    3726:	55                   	push   %ebp
    3727:	89 e5                	mov    %esp,%ebp
    3729:	83 ec 18             	sub    $0x18,%esp
    372c:	c7 04 24 79 81 00 00 	movl   $0x8179,(%esp)
    3733:	e8 ff da ff ff       	call   1237 <Video_printf>
    3738:	eb fe                	jmp    3738 <Interrupt_Handler_173+0x12>

0000373a <Interrupt_Handler_174>:
    373a:	55                   	push   %ebp
    373b:	89 e5                	mov    %esp,%ebp
    373d:	83 ec 18             	sub    $0x18,%esp
    3740:	c7 04 24 91 81 00 00 	movl   $0x8191,(%esp)
    3747:	e8 eb da ff ff       	call   1237 <Video_printf>
    374c:	eb fe                	jmp    374c <Interrupt_Handler_174+0x12>

0000374e <Interrupt_Handler_175>:
    374e:	55                   	push   %ebp
    374f:	89 e5                	mov    %esp,%ebp
    3751:	83 ec 18             	sub    $0x18,%esp
    3754:	c7 04 24 a9 81 00 00 	movl   $0x81a9,(%esp)
    375b:	e8 d7 da ff ff       	call   1237 <Video_printf>
    3760:	eb fe                	jmp    3760 <Interrupt_Handler_175+0x12>

00003762 <Interrupt_Handler_176>:
    3762:	55                   	push   %ebp
    3763:	89 e5                	mov    %esp,%ebp
    3765:	83 ec 18             	sub    $0x18,%esp
    3768:	c7 04 24 c1 81 00 00 	movl   $0x81c1,(%esp)
    376f:	e8 c3 da ff ff       	call   1237 <Video_printf>
    3774:	eb fe                	jmp    3774 <Interrupt_Handler_176+0x12>

00003776 <Interrupt_Handler_177>:
    3776:	55                   	push   %ebp
    3777:	89 e5                	mov    %esp,%ebp
    3779:	83 ec 18             	sub    $0x18,%esp
    377c:	c7 04 24 d9 81 00 00 	movl   $0x81d9,(%esp)
    3783:	e8 af da ff ff       	call   1237 <Video_printf>
    3788:	eb fe                	jmp    3788 <Interrupt_Handler_177+0x12>

0000378a <Interrupt_Handler_178>:
    378a:	55                   	push   %ebp
    378b:	89 e5                	mov    %esp,%ebp
    378d:	83 ec 18             	sub    $0x18,%esp
    3790:	c7 04 24 f1 81 00 00 	movl   $0x81f1,(%esp)
    3797:	e8 9b da ff ff       	call   1237 <Video_printf>
    379c:	eb fe                	jmp    379c <Interrupt_Handler_178+0x12>

0000379e <Interrupt_Handler_179>:
    379e:	55                   	push   %ebp
    379f:	89 e5                	mov    %esp,%ebp
    37a1:	83 ec 18             	sub    $0x18,%esp
    37a4:	c7 04 24 09 82 00 00 	movl   $0x8209,(%esp)
    37ab:	e8 87 da ff ff       	call   1237 <Video_printf>
    37b0:	eb fe                	jmp    37b0 <Interrupt_Handler_179+0x12>

000037b2 <Interrupt_Handler_180>:
    37b2:	55                   	push   %ebp
    37b3:	89 e5                	mov    %esp,%ebp
    37b5:	83 ec 18             	sub    $0x18,%esp
    37b8:	c7 04 24 21 82 00 00 	movl   $0x8221,(%esp)
    37bf:	e8 73 da ff ff       	call   1237 <Video_printf>
    37c4:	eb fe                	jmp    37c4 <Interrupt_Handler_180+0x12>

000037c6 <Interrupt_Handler_181>:
    37c6:	55                   	push   %ebp
    37c7:	89 e5                	mov    %esp,%ebp
    37c9:	83 ec 18             	sub    $0x18,%esp
    37cc:	c7 04 24 39 82 00 00 	movl   $0x8239,(%esp)
    37d3:	e8 5f da ff ff       	call   1237 <Video_printf>
    37d8:	eb fe                	jmp    37d8 <Interrupt_Handler_181+0x12>

000037da <Interrupt_Handler_182>:
    37da:	55                   	push   %ebp
    37db:	89 e5                	mov    %esp,%ebp
    37dd:	83 ec 18             	sub    $0x18,%esp
    37e0:	c7 04 24 51 82 00 00 	movl   $0x8251,(%esp)
    37e7:	e8 4b da ff ff       	call   1237 <Video_printf>
    37ec:	eb fe                	jmp    37ec <Interrupt_Handler_182+0x12>

000037ee <Interrupt_Handler_183>:
    37ee:	55                   	push   %ebp
    37ef:	89 e5                	mov    %esp,%ebp
    37f1:	83 ec 18             	sub    $0x18,%esp
    37f4:	c7 04 24 69 82 00 00 	movl   $0x8269,(%esp)
    37fb:	e8 37 da ff ff       	call   1237 <Video_printf>
    3800:	eb fe                	jmp    3800 <Interrupt_Handler_183+0x12>

00003802 <Interrupt_Handler_184>:
    3802:	55                   	push   %ebp
    3803:	89 e5                	mov    %esp,%ebp
    3805:	83 ec 18             	sub    $0x18,%esp
    3808:	c7 04 24 81 82 00 00 	movl   $0x8281,(%esp)
    380f:	e8 23 da ff ff       	call   1237 <Video_printf>
    3814:	eb fe                	jmp    3814 <Interrupt_Handler_184+0x12>

00003816 <Interrupt_Handler_185>:
    3816:	55                   	push   %ebp
    3817:	89 e5                	mov    %esp,%ebp
    3819:	83 ec 18             	sub    $0x18,%esp
    381c:	c7 04 24 99 82 00 00 	movl   $0x8299,(%esp)
    3823:	e8 0f da ff ff       	call   1237 <Video_printf>
    3828:	eb fe                	jmp    3828 <Interrupt_Handler_185+0x12>

0000382a <Interrupt_Handler_186>:
    382a:	55                   	push   %ebp
    382b:	89 e5                	mov    %esp,%ebp
    382d:	83 ec 18             	sub    $0x18,%esp
    3830:	c7 04 24 b1 82 00 00 	movl   $0x82b1,(%esp)
    3837:	e8 fb d9 ff ff       	call   1237 <Video_printf>
    383c:	eb fe                	jmp    383c <Interrupt_Handler_186+0x12>

0000383e <Interrupt_Handler_187>:
    383e:	55                   	push   %ebp
    383f:	89 e5                	mov    %esp,%ebp
    3841:	83 ec 18             	sub    $0x18,%esp
    3844:	c7 04 24 c9 82 00 00 	movl   $0x82c9,(%esp)
    384b:	e8 e7 d9 ff ff       	call   1237 <Video_printf>
    3850:	eb fe                	jmp    3850 <Interrupt_Handler_187+0x12>

00003852 <Interrupt_Handler_188>:
    3852:	55                   	push   %ebp
    3853:	89 e5                	mov    %esp,%ebp
    3855:	83 ec 18             	sub    $0x18,%esp
    3858:	c7 04 24 e1 82 00 00 	movl   $0x82e1,(%esp)
    385f:	e8 d3 d9 ff ff       	call   1237 <Video_printf>
    3864:	eb fe                	jmp    3864 <Interrupt_Handler_188+0x12>

00003866 <Interrupt_Handler_189>:
    3866:	55                   	push   %ebp
    3867:	89 e5                	mov    %esp,%ebp
    3869:	83 ec 18             	sub    $0x18,%esp
    386c:	c7 04 24 f9 82 00 00 	movl   $0x82f9,(%esp)
    3873:	e8 bf d9 ff ff       	call   1237 <Video_printf>
    3878:	eb fe                	jmp    3878 <Interrupt_Handler_189+0x12>

0000387a <Interrupt_Handler_190>:
    387a:	55                   	push   %ebp
    387b:	89 e5                	mov    %esp,%ebp
    387d:	83 ec 18             	sub    $0x18,%esp
    3880:	c7 04 24 11 83 00 00 	movl   $0x8311,(%esp)
    3887:	e8 ab d9 ff ff       	call   1237 <Video_printf>
    388c:	eb fe                	jmp    388c <Interrupt_Handler_190+0x12>

0000388e <Interrupt_Handler_191>:
    388e:	55                   	push   %ebp
    388f:	89 e5                	mov    %esp,%ebp
    3891:	83 ec 18             	sub    $0x18,%esp
    3894:	c7 04 24 29 83 00 00 	movl   $0x8329,(%esp)
    389b:	e8 97 d9 ff ff       	call   1237 <Video_printf>
    38a0:	eb fe                	jmp    38a0 <Interrupt_Handler_191+0x12>

000038a2 <Interrupt_Handler_192>:
    38a2:	55                   	push   %ebp
    38a3:	89 e5                	mov    %esp,%ebp
    38a5:	83 ec 18             	sub    $0x18,%esp
    38a8:	c7 04 24 41 83 00 00 	movl   $0x8341,(%esp)
    38af:	e8 83 d9 ff ff       	call   1237 <Video_printf>
    38b4:	eb fe                	jmp    38b4 <Interrupt_Handler_192+0x12>

000038b6 <Interrupt_Handler_193>:
    38b6:	55                   	push   %ebp
    38b7:	89 e5                	mov    %esp,%ebp
    38b9:	83 ec 18             	sub    $0x18,%esp
    38bc:	c7 04 24 59 83 00 00 	movl   $0x8359,(%esp)
    38c3:	e8 6f d9 ff ff       	call   1237 <Video_printf>
    38c8:	eb fe                	jmp    38c8 <Interrupt_Handler_193+0x12>

000038ca <Interrupt_Handler_194>:
    38ca:	55                   	push   %ebp
    38cb:	89 e5                	mov    %esp,%ebp
    38cd:	83 ec 18             	sub    $0x18,%esp
    38d0:	c7 04 24 71 83 00 00 	movl   $0x8371,(%esp)
    38d7:	e8 5b d9 ff ff       	call   1237 <Video_printf>
    38dc:	eb fe                	jmp    38dc <Interrupt_Handler_194+0x12>

000038de <Interrupt_Handler_195>:
    38de:	55                   	push   %ebp
    38df:	89 e5                	mov    %esp,%ebp
    38e1:	83 ec 18             	sub    $0x18,%esp
    38e4:	c7 04 24 89 83 00 00 	movl   $0x8389,(%esp)
    38eb:	e8 47 d9 ff ff       	call   1237 <Video_printf>
    38f0:	eb fe                	jmp    38f0 <Interrupt_Handler_195+0x12>

000038f2 <Interrupt_Handler_196>:
    38f2:	55                   	push   %ebp
    38f3:	89 e5                	mov    %esp,%ebp
    38f5:	83 ec 18             	sub    $0x18,%esp
    38f8:	c7 04 24 a1 83 00 00 	movl   $0x83a1,(%esp)
    38ff:	e8 33 d9 ff ff       	call   1237 <Video_printf>
    3904:	eb fe                	jmp    3904 <Interrupt_Handler_196+0x12>

00003906 <Interrupt_Handler_197>:
    3906:	55                   	push   %ebp
    3907:	89 e5                	mov    %esp,%ebp
    3909:	83 ec 18             	sub    $0x18,%esp
    390c:	c7 04 24 b9 83 00 00 	movl   $0x83b9,(%esp)
    3913:	e8 1f d9 ff ff       	call   1237 <Video_printf>
    3918:	eb fe                	jmp    3918 <Interrupt_Handler_197+0x12>

0000391a <Interrupt_Handler_198>:
    391a:	55                   	push   %ebp
    391b:	89 e5                	mov    %esp,%ebp
    391d:	83 ec 18             	sub    $0x18,%esp
    3920:	c7 04 24 d1 83 00 00 	movl   $0x83d1,(%esp)
    3927:	e8 0b d9 ff ff       	call   1237 <Video_printf>
    392c:	eb fe                	jmp    392c <Interrupt_Handler_198+0x12>

0000392e <Interrupt_Handler_199>:
    392e:	55                   	push   %ebp
    392f:	89 e5                	mov    %esp,%ebp
    3931:	83 ec 18             	sub    $0x18,%esp
    3934:	c7 04 24 e9 83 00 00 	movl   $0x83e9,(%esp)
    393b:	e8 f7 d8 ff ff       	call   1237 <Video_printf>
    3940:	eb fe                	jmp    3940 <Interrupt_Handler_199+0x12>

00003942 <Interrupt_Handler_200>:
    3942:	55                   	push   %ebp
    3943:	89 e5                	mov    %esp,%ebp
    3945:	83 ec 18             	sub    $0x18,%esp
    3948:	c7 04 24 01 84 00 00 	movl   $0x8401,(%esp)
    394f:	e8 e3 d8 ff ff       	call   1237 <Video_printf>
    3954:	eb fe                	jmp    3954 <Interrupt_Handler_200+0x12>

00003956 <Interrupt_Handler_201>:
    3956:	55                   	push   %ebp
    3957:	89 e5                	mov    %esp,%ebp
    3959:	83 ec 18             	sub    $0x18,%esp
    395c:	c7 04 24 19 84 00 00 	movl   $0x8419,(%esp)
    3963:	e8 cf d8 ff ff       	call   1237 <Video_printf>
    3968:	eb fe                	jmp    3968 <Interrupt_Handler_201+0x12>

0000396a <Interrupt_Handler_202>:
    396a:	55                   	push   %ebp
    396b:	89 e5                	mov    %esp,%ebp
    396d:	83 ec 18             	sub    $0x18,%esp
    3970:	c7 04 24 31 84 00 00 	movl   $0x8431,(%esp)
    3977:	e8 bb d8 ff ff       	call   1237 <Video_printf>
    397c:	eb fe                	jmp    397c <Interrupt_Handler_202+0x12>

0000397e <Interrupt_Handler_203>:
    397e:	55                   	push   %ebp
    397f:	89 e5                	mov    %esp,%ebp
    3981:	83 ec 18             	sub    $0x18,%esp
    3984:	c7 04 24 49 84 00 00 	movl   $0x8449,(%esp)
    398b:	e8 a7 d8 ff ff       	call   1237 <Video_printf>
    3990:	eb fe                	jmp    3990 <Interrupt_Handler_203+0x12>

00003992 <Interrupt_Handler_204>:
    3992:	55                   	push   %ebp
    3993:	89 e5                	mov    %esp,%ebp
    3995:	83 ec 18             	sub    $0x18,%esp
    3998:	c7 04 24 61 84 00 00 	movl   $0x8461,(%esp)
    399f:	e8 93 d8 ff ff       	call   1237 <Video_printf>
    39a4:	eb fe                	jmp    39a4 <Interrupt_Handler_204+0x12>

000039a6 <Interrupt_Handler_205>:
    39a6:	55                   	push   %ebp
    39a7:	89 e5                	mov    %esp,%ebp
    39a9:	83 ec 18             	sub    $0x18,%esp
    39ac:	c7 04 24 79 84 00 00 	movl   $0x8479,(%esp)
    39b3:	e8 7f d8 ff ff       	call   1237 <Video_printf>
    39b8:	eb fe                	jmp    39b8 <Interrupt_Handler_205+0x12>

000039ba <Interrupt_Handler_206>:
    39ba:	55                   	push   %ebp
    39bb:	89 e5                	mov    %esp,%ebp
    39bd:	83 ec 18             	sub    $0x18,%esp
    39c0:	c7 04 24 91 84 00 00 	movl   $0x8491,(%esp)
    39c7:	e8 6b d8 ff ff       	call   1237 <Video_printf>
    39cc:	eb fe                	jmp    39cc <Interrupt_Handler_206+0x12>

000039ce <Interrupt_Handler_207>:
    39ce:	55                   	push   %ebp
    39cf:	89 e5                	mov    %esp,%ebp
    39d1:	83 ec 18             	sub    $0x18,%esp
    39d4:	c7 04 24 a9 84 00 00 	movl   $0x84a9,(%esp)
    39db:	e8 57 d8 ff ff       	call   1237 <Video_printf>
    39e0:	eb fe                	jmp    39e0 <Interrupt_Handler_207+0x12>

000039e2 <Interrupt_Handler_208>:
    39e2:	55                   	push   %ebp
    39e3:	89 e5                	mov    %esp,%ebp
    39e5:	83 ec 18             	sub    $0x18,%esp
    39e8:	c7 04 24 c1 84 00 00 	movl   $0x84c1,(%esp)
    39ef:	e8 43 d8 ff ff       	call   1237 <Video_printf>
    39f4:	eb fe                	jmp    39f4 <Interrupt_Handler_208+0x12>

000039f6 <Interrupt_Handler_209>:
    39f6:	55                   	push   %ebp
    39f7:	89 e5                	mov    %esp,%ebp
    39f9:	83 ec 18             	sub    $0x18,%esp
    39fc:	c7 04 24 d9 84 00 00 	movl   $0x84d9,(%esp)
    3a03:	e8 2f d8 ff ff       	call   1237 <Video_printf>
    3a08:	eb fe                	jmp    3a08 <Interrupt_Handler_209+0x12>

00003a0a <Interrupt_Handler_210>:
    3a0a:	55                   	push   %ebp
    3a0b:	89 e5                	mov    %esp,%ebp
    3a0d:	83 ec 18             	sub    $0x18,%esp
    3a10:	c7 04 24 f1 84 00 00 	movl   $0x84f1,(%esp)
    3a17:	e8 1b d8 ff ff       	call   1237 <Video_printf>
    3a1c:	eb fe                	jmp    3a1c <Interrupt_Handler_210+0x12>

00003a1e <Interrupt_Handler_211>:
    3a1e:	55                   	push   %ebp
    3a1f:	89 e5                	mov    %esp,%ebp
    3a21:	83 ec 18             	sub    $0x18,%esp
    3a24:	c7 04 24 09 85 00 00 	movl   $0x8509,(%esp)
    3a2b:	e8 07 d8 ff ff       	call   1237 <Video_printf>
    3a30:	eb fe                	jmp    3a30 <Interrupt_Handler_211+0x12>

00003a32 <Interrupt_Handler_212>:
    3a32:	55                   	push   %ebp
    3a33:	89 e5                	mov    %esp,%ebp
    3a35:	83 ec 18             	sub    $0x18,%esp
    3a38:	c7 04 24 21 85 00 00 	movl   $0x8521,(%esp)
    3a3f:	e8 f3 d7 ff ff       	call   1237 <Video_printf>
    3a44:	eb fe                	jmp    3a44 <Interrupt_Handler_212+0x12>

00003a46 <Interrupt_Handler_213>:
    3a46:	55                   	push   %ebp
    3a47:	89 e5                	mov    %esp,%ebp
    3a49:	83 ec 18             	sub    $0x18,%esp
    3a4c:	c7 04 24 39 85 00 00 	movl   $0x8539,(%esp)
    3a53:	e8 df d7 ff ff       	call   1237 <Video_printf>
    3a58:	eb fe                	jmp    3a58 <Interrupt_Handler_213+0x12>

00003a5a <Interrupt_Handler_214>:
    3a5a:	55                   	push   %ebp
    3a5b:	89 e5                	mov    %esp,%ebp
    3a5d:	83 ec 18             	sub    $0x18,%esp
    3a60:	c7 04 24 51 85 00 00 	movl   $0x8551,(%esp)
    3a67:	e8 cb d7 ff ff       	call   1237 <Video_printf>
    3a6c:	eb fe                	jmp    3a6c <Interrupt_Handler_214+0x12>

00003a6e <Interrupt_Handler_215>:
    3a6e:	55                   	push   %ebp
    3a6f:	89 e5                	mov    %esp,%ebp
    3a71:	83 ec 18             	sub    $0x18,%esp
    3a74:	c7 04 24 69 85 00 00 	movl   $0x8569,(%esp)
    3a7b:	e8 b7 d7 ff ff       	call   1237 <Video_printf>
    3a80:	eb fe                	jmp    3a80 <Interrupt_Handler_215+0x12>

00003a82 <Interrupt_Handler_216>:
    3a82:	55                   	push   %ebp
    3a83:	89 e5                	mov    %esp,%ebp
    3a85:	83 ec 18             	sub    $0x18,%esp
    3a88:	c7 04 24 81 85 00 00 	movl   $0x8581,(%esp)
    3a8f:	e8 a3 d7 ff ff       	call   1237 <Video_printf>
    3a94:	eb fe                	jmp    3a94 <Interrupt_Handler_216+0x12>

00003a96 <Interrupt_Handler_217>:
    3a96:	55                   	push   %ebp
    3a97:	89 e5                	mov    %esp,%ebp
    3a99:	83 ec 18             	sub    $0x18,%esp
    3a9c:	c7 04 24 99 85 00 00 	movl   $0x8599,(%esp)
    3aa3:	e8 8f d7 ff ff       	call   1237 <Video_printf>
    3aa8:	eb fe                	jmp    3aa8 <Interrupt_Handler_217+0x12>

00003aaa <Interrupt_Handler_218>:
    3aaa:	55                   	push   %ebp
    3aab:	89 e5                	mov    %esp,%ebp
    3aad:	83 ec 18             	sub    $0x18,%esp
    3ab0:	c7 04 24 b1 85 00 00 	movl   $0x85b1,(%esp)
    3ab7:	e8 7b d7 ff ff       	call   1237 <Video_printf>
    3abc:	eb fe                	jmp    3abc <Interrupt_Handler_218+0x12>

00003abe <Interrupt_Handler_219>:
    3abe:	55                   	push   %ebp
    3abf:	89 e5                	mov    %esp,%ebp
    3ac1:	83 ec 18             	sub    $0x18,%esp
    3ac4:	c7 04 24 c9 85 00 00 	movl   $0x85c9,(%esp)
    3acb:	e8 67 d7 ff ff       	call   1237 <Video_printf>
    3ad0:	eb fe                	jmp    3ad0 <Interrupt_Handler_219+0x12>

00003ad2 <Interrupt_Handler_220>:
    3ad2:	55                   	push   %ebp
    3ad3:	89 e5                	mov    %esp,%ebp
    3ad5:	83 ec 18             	sub    $0x18,%esp
    3ad8:	c7 04 24 e1 85 00 00 	movl   $0x85e1,(%esp)
    3adf:	e8 53 d7 ff ff       	call   1237 <Video_printf>
    3ae4:	eb fe                	jmp    3ae4 <Interrupt_Handler_220+0x12>

00003ae6 <Interrupt_Handler_221>:
    3ae6:	55                   	push   %ebp
    3ae7:	89 e5                	mov    %esp,%ebp
    3ae9:	83 ec 18             	sub    $0x18,%esp
    3aec:	c7 04 24 f9 85 00 00 	movl   $0x85f9,(%esp)
    3af3:	e8 3f d7 ff ff       	call   1237 <Video_printf>
    3af8:	eb fe                	jmp    3af8 <Interrupt_Handler_221+0x12>

00003afa <Interrupt_Handler_222>:
    3afa:	55                   	push   %ebp
    3afb:	89 e5                	mov    %esp,%ebp
    3afd:	83 ec 18             	sub    $0x18,%esp
    3b00:	c7 04 24 11 86 00 00 	movl   $0x8611,(%esp)
    3b07:	e8 2b d7 ff ff       	call   1237 <Video_printf>
    3b0c:	eb fe                	jmp    3b0c <Interrupt_Handler_222+0x12>

00003b0e <Interrupt_Handler_223>:
    3b0e:	55                   	push   %ebp
    3b0f:	89 e5                	mov    %esp,%ebp
    3b11:	83 ec 18             	sub    $0x18,%esp
    3b14:	c7 04 24 29 86 00 00 	movl   $0x8629,(%esp)
    3b1b:	e8 17 d7 ff ff       	call   1237 <Video_printf>
    3b20:	eb fe                	jmp    3b20 <Interrupt_Handler_223+0x12>

00003b22 <Interrupt_Handler_224>:
    3b22:	55                   	push   %ebp
    3b23:	89 e5                	mov    %esp,%ebp
    3b25:	83 ec 18             	sub    $0x18,%esp
    3b28:	c7 04 24 41 86 00 00 	movl   $0x8641,(%esp)
    3b2f:	e8 03 d7 ff ff       	call   1237 <Video_printf>
    3b34:	eb fe                	jmp    3b34 <Interrupt_Handler_224+0x12>

00003b36 <Interrupt_Handler_225>:
    3b36:	55                   	push   %ebp
    3b37:	89 e5                	mov    %esp,%ebp
    3b39:	83 ec 18             	sub    $0x18,%esp
    3b3c:	c7 04 24 59 86 00 00 	movl   $0x8659,(%esp)
    3b43:	e8 ef d6 ff ff       	call   1237 <Video_printf>
    3b48:	eb fe                	jmp    3b48 <Interrupt_Handler_225+0x12>

00003b4a <Interrupt_Handler_226>:
    3b4a:	55                   	push   %ebp
    3b4b:	89 e5                	mov    %esp,%ebp
    3b4d:	83 ec 18             	sub    $0x18,%esp
    3b50:	c7 04 24 71 86 00 00 	movl   $0x8671,(%esp)
    3b57:	e8 db d6 ff ff       	call   1237 <Video_printf>
    3b5c:	eb fe                	jmp    3b5c <Interrupt_Handler_226+0x12>

00003b5e <Interrupt_Handler_227>:
    3b5e:	55                   	push   %ebp
    3b5f:	89 e5                	mov    %esp,%ebp
    3b61:	83 ec 18             	sub    $0x18,%esp
    3b64:	c7 04 24 89 86 00 00 	movl   $0x8689,(%esp)
    3b6b:	e8 c7 d6 ff ff       	call   1237 <Video_printf>
    3b70:	eb fe                	jmp    3b70 <Interrupt_Handler_227+0x12>

00003b72 <Interrupt_Handler_228>:
    3b72:	55                   	push   %ebp
    3b73:	89 e5                	mov    %esp,%ebp
    3b75:	83 ec 18             	sub    $0x18,%esp
    3b78:	c7 04 24 a1 86 00 00 	movl   $0x86a1,(%esp)
    3b7f:	e8 b3 d6 ff ff       	call   1237 <Video_printf>
    3b84:	eb fe                	jmp    3b84 <Interrupt_Handler_228+0x12>

00003b86 <Interrupt_Handler_229>:
    3b86:	55                   	push   %ebp
    3b87:	89 e5                	mov    %esp,%ebp
    3b89:	83 ec 18             	sub    $0x18,%esp
    3b8c:	c7 04 24 b9 86 00 00 	movl   $0x86b9,(%esp)
    3b93:	e8 9f d6 ff ff       	call   1237 <Video_printf>
    3b98:	eb fe                	jmp    3b98 <Interrupt_Handler_229+0x12>

00003b9a <Interrupt_Handler_230>:
    3b9a:	55                   	push   %ebp
    3b9b:	89 e5                	mov    %esp,%ebp
    3b9d:	83 ec 18             	sub    $0x18,%esp
    3ba0:	c7 04 24 d1 86 00 00 	movl   $0x86d1,(%esp)
    3ba7:	e8 8b d6 ff ff       	call   1237 <Video_printf>
    3bac:	eb fe                	jmp    3bac <Interrupt_Handler_230+0x12>

00003bae <Interrupt_Handler_231>:
    3bae:	55                   	push   %ebp
    3baf:	89 e5                	mov    %esp,%ebp
    3bb1:	83 ec 18             	sub    $0x18,%esp
    3bb4:	c7 04 24 e9 86 00 00 	movl   $0x86e9,(%esp)
    3bbb:	e8 77 d6 ff ff       	call   1237 <Video_printf>
    3bc0:	eb fe                	jmp    3bc0 <Interrupt_Handler_231+0x12>

00003bc2 <Interrupt_Handler_232>:
    3bc2:	55                   	push   %ebp
    3bc3:	89 e5                	mov    %esp,%ebp
    3bc5:	83 ec 18             	sub    $0x18,%esp
    3bc8:	c7 04 24 01 87 00 00 	movl   $0x8701,(%esp)
    3bcf:	e8 63 d6 ff ff       	call   1237 <Video_printf>
    3bd4:	eb fe                	jmp    3bd4 <Interrupt_Handler_232+0x12>

00003bd6 <Interrupt_Handler_233>:
    3bd6:	55                   	push   %ebp
    3bd7:	89 e5                	mov    %esp,%ebp
    3bd9:	83 ec 18             	sub    $0x18,%esp
    3bdc:	c7 04 24 19 87 00 00 	movl   $0x8719,(%esp)
    3be3:	e8 4f d6 ff ff       	call   1237 <Video_printf>
    3be8:	eb fe                	jmp    3be8 <Interrupt_Handler_233+0x12>

00003bea <Interrupt_Handler_234>:
    3bea:	55                   	push   %ebp
    3beb:	89 e5                	mov    %esp,%ebp
    3bed:	83 ec 18             	sub    $0x18,%esp
    3bf0:	c7 04 24 31 87 00 00 	movl   $0x8731,(%esp)
    3bf7:	e8 3b d6 ff ff       	call   1237 <Video_printf>
    3bfc:	eb fe                	jmp    3bfc <Interrupt_Handler_234+0x12>

00003bfe <Interrupt_Handler_235>:
    3bfe:	55                   	push   %ebp
    3bff:	89 e5                	mov    %esp,%ebp
    3c01:	83 ec 18             	sub    $0x18,%esp
    3c04:	c7 04 24 49 87 00 00 	movl   $0x8749,(%esp)
    3c0b:	e8 27 d6 ff ff       	call   1237 <Video_printf>
    3c10:	eb fe                	jmp    3c10 <Interrupt_Handler_235+0x12>

00003c12 <Interrupt_Handler_236>:
    3c12:	55                   	push   %ebp
    3c13:	89 e5                	mov    %esp,%ebp
    3c15:	83 ec 18             	sub    $0x18,%esp
    3c18:	c7 04 24 61 87 00 00 	movl   $0x8761,(%esp)
    3c1f:	e8 13 d6 ff ff       	call   1237 <Video_printf>
    3c24:	eb fe                	jmp    3c24 <Interrupt_Handler_236+0x12>

00003c26 <Interrupt_Handler_237>:
    3c26:	55                   	push   %ebp
    3c27:	89 e5                	mov    %esp,%ebp
    3c29:	83 ec 18             	sub    $0x18,%esp
    3c2c:	c7 04 24 79 87 00 00 	movl   $0x8779,(%esp)
    3c33:	e8 ff d5 ff ff       	call   1237 <Video_printf>
    3c38:	eb fe                	jmp    3c38 <Interrupt_Handler_237+0x12>

00003c3a <Interrupt_Handler_238>:
    3c3a:	55                   	push   %ebp
    3c3b:	89 e5                	mov    %esp,%ebp
    3c3d:	83 ec 18             	sub    $0x18,%esp
    3c40:	c7 04 24 91 87 00 00 	movl   $0x8791,(%esp)
    3c47:	e8 eb d5 ff ff       	call   1237 <Video_printf>
    3c4c:	eb fe                	jmp    3c4c <Interrupt_Handler_238+0x12>

00003c4e <Interrupt_Handler_239>:
    3c4e:	55                   	push   %ebp
    3c4f:	89 e5                	mov    %esp,%ebp
    3c51:	83 ec 18             	sub    $0x18,%esp
    3c54:	c7 04 24 a9 87 00 00 	movl   $0x87a9,(%esp)
    3c5b:	e8 d7 d5 ff ff       	call   1237 <Video_printf>
    3c60:	eb fe                	jmp    3c60 <Interrupt_Handler_239+0x12>

00003c62 <Interrupt_Handler_240>:
    3c62:	55                   	push   %ebp
    3c63:	89 e5                	mov    %esp,%ebp
    3c65:	83 ec 18             	sub    $0x18,%esp
    3c68:	c7 04 24 c1 87 00 00 	movl   $0x87c1,(%esp)
    3c6f:	e8 c3 d5 ff ff       	call   1237 <Video_printf>
    3c74:	eb fe                	jmp    3c74 <Interrupt_Handler_240+0x12>

00003c76 <Interrupt_Handler_241>:
    3c76:	55                   	push   %ebp
    3c77:	89 e5                	mov    %esp,%ebp
    3c79:	83 ec 18             	sub    $0x18,%esp
    3c7c:	c7 04 24 d9 87 00 00 	movl   $0x87d9,(%esp)
    3c83:	e8 af d5 ff ff       	call   1237 <Video_printf>
    3c88:	eb fe                	jmp    3c88 <Interrupt_Handler_241+0x12>

00003c8a <Interrupt_Handler_242>:
    3c8a:	55                   	push   %ebp
    3c8b:	89 e5                	mov    %esp,%ebp
    3c8d:	83 ec 18             	sub    $0x18,%esp
    3c90:	c7 04 24 f1 87 00 00 	movl   $0x87f1,(%esp)
    3c97:	e8 9b d5 ff ff       	call   1237 <Video_printf>
    3c9c:	eb fe                	jmp    3c9c <Interrupt_Handler_242+0x12>

00003c9e <Interrupt_Handler_243>:
    3c9e:	55                   	push   %ebp
    3c9f:	89 e5                	mov    %esp,%ebp
    3ca1:	83 ec 18             	sub    $0x18,%esp
    3ca4:	c7 04 24 09 88 00 00 	movl   $0x8809,(%esp)
    3cab:	e8 87 d5 ff ff       	call   1237 <Video_printf>
    3cb0:	eb fe                	jmp    3cb0 <Interrupt_Handler_243+0x12>

00003cb2 <Interrupt_Handler_244>:
    3cb2:	55                   	push   %ebp
    3cb3:	89 e5                	mov    %esp,%ebp
    3cb5:	83 ec 18             	sub    $0x18,%esp
    3cb8:	c7 04 24 21 88 00 00 	movl   $0x8821,(%esp)
    3cbf:	e8 73 d5 ff ff       	call   1237 <Video_printf>
    3cc4:	eb fe                	jmp    3cc4 <Interrupt_Handler_244+0x12>

00003cc6 <Interrupt_Handler_245>:
    3cc6:	55                   	push   %ebp
    3cc7:	89 e5                	mov    %esp,%ebp
    3cc9:	83 ec 18             	sub    $0x18,%esp
    3ccc:	c7 04 24 39 88 00 00 	movl   $0x8839,(%esp)
    3cd3:	e8 5f d5 ff ff       	call   1237 <Video_printf>
    3cd8:	eb fe                	jmp    3cd8 <Interrupt_Handler_245+0x12>

00003cda <Interrupt_Handler_246>:
    3cda:	55                   	push   %ebp
    3cdb:	89 e5                	mov    %esp,%ebp
    3cdd:	83 ec 18             	sub    $0x18,%esp
    3ce0:	c7 04 24 51 88 00 00 	movl   $0x8851,(%esp)
    3ce7:	e8 4b d5 ff ff       	call   1237 <Video_printf>
    3cec:	eb fe                	jmp    3cec <Interrupt_Handler_246+0x12>

00003cee <Interrupt_Handler_247>:
    3cee:	55                   	push   %ebp
    3cef:	89 e5                	mov    %esp,%ebp
    3cf1:	83 ec 18             	sub    $0x18,%esp
    3cf4:	c7 04 24 69 88 00 00 	movl   $0x8869,(%esp)
    3cfb:	e8 37 d5 ff ff       	call   1237 <Video_printf>
    3d00:	eb fe                	jmp    3d00 <Interrupt_Handler_247+0x12>

00003d02 <Interrupt_Handler_248>:
    3d02:	55                   	push   %ebp
    3d03:	89 e5                	mov    %esp,%ebp
    3d05:	83 ec 18             	sub    $0x18,%esp
    3d08:	c7 04 24 81 88 00 00 	movl   $0x8881,(%esp)
    3d0f:	e8 23 d5 ff ff       	call   1237 <Video_printf>
    3d14:	eb fe                	jmp    3d14 <Interrupt_Handler_248+0x12>

00003d16 <Interrupt_Handler_249>:
    3d16:	55                   	push   %ebp
    3d17:	89 e5                	mov    %esp,%ebp
    3d19:	83 ec 18             	sub    $0x18,%esp
    3d1c:	c7 04 24 99 88 00 00 	movl   $0x8899,(%esp)
    3d23:	e8 0f d5 ff ff       	call   1237 <Video_printf>
    3d28:	eb fe                	jmp    3d28 <Interrupt_Handler_249+0x12>

00003d2a <Interrupt_Handler_250>:
    3d2a:	55                   	push   %ebp
    3d2b:	89 e5                	mov    %esp,%ebp
    3d2d:	83 ec 18             	sub    $0x18,%esp
    3d30:	c7 04 24 b1 88 00 00 	movl   $0x88b1,(%esp)
    3d37:	e8 fb d4 ff ff       	call   1237 <Video_printf>
    3d3c:	eb fe                	jmp    3d3c <Interrupt_Handler_250+0x12>

00003d3e <Interrupt_Handler_251>:
    3d3e:	55                   	push   %ebp
    3d3f:	89 e5                	mov    %esp,%ebp
    3d41:	83 ec 18             	sub    $0x18,%esp
    3d44:	c7 04 24 c9 88 00 00 	movl   $0x88c9,(%esp)
    3d4b:	e8 e7 d4 ff ff       	call   1237 <Video_printf>
    3d50:	eb fe                	jmp    3d50 <Interrupt_Handler_251+0x12>

00003d52 <Interrupt_Handler_252>:
    3d52:	55                   	push   %ebp
    3d53:	89 e5                	mov    %esp,%ebp
    3d55:	83 ec 18             	sub    $0x18,%esp
    3d58:	c7 04 24 e1 88 00 00 	movl   $0x88e1,(%esp)
    3d5f:	e8 d3 d4 ff ff       	call   1237 <Video_printf>
    3d64:	eb fe                	jmp    3d64 <Interrupt_Handler_252+0x12>

00003d66 <Interrupt_Handler_253>:
    3d66:	55                   	push   %ebp
    3d67:	89 e5                	mov    %esp,%ebp
    3d69:	83 ec 18             	sub    $0x18,%esp
    3d6c:	c7 04 24 f9 88 00 00 	movl   $0x88f9,(%esp)
    3d73:	e8 bf d4 ff ff       	call   1237 <Video_printf>
    3d78:	eb fe                	jmp    3d78 <Interrupt_Handler_253+0x12>

00003d7a <Interrupt_Handler_254>:
    3d7a:	55                   	push   %ebp
    3d7b:	89 e5                	mov    %esp,%ebp
    3d7d:	83 ec 18             	sub    $0x18,%esp
    3d80:	c7 04 24 11 89 00 00 	movl   $0x8911,(%esp)
    3d87:	e8 ab d4 ff ff       	call   1237 <Video_printf>
    3d8c:	eb fe                	jmp    3d8c <Interrupt_Handler_254+0x12>

00003d8e <Interrupt_Handler_255>:
    3d8e:	55                   	push   %ebp
    3d8f:	89 e5                	mov    %esp,%ebp
    3d91:	83 ec 18             	sub    $0x18,%esp
    3d94:	c7 04 24 29 89 00 00 	movl   $0x8929,(%esp)
    3d9b:	e8 97 d4 ff ff       	call   1237 <Video_printf>
    3da0:	eb fe                	jmp    3da0 <Interrupt_Handler_255+0x12>

00003da2 <Interrupt_Init>:
    3da2:	55                   	push   %ebp
    3da3:	89 e5                	mov    %esp,%ebp
    3da5:	83 ec 48             	sub    $0x48,%esp
    3da8:	c7 45 f0 01 00 00 00 	movl   $0x1,-0x10(%ebp)
    3daf:	c7 45 f4 00 00 00 00 	movl   $0x0,-0xc(%ebp)
    3db6:	8b 45 f0             	mov    -0x10(%ebp),%eax
    3db9:	8b 55 f4             	mov    -0xc(%ebp),%edx
    3dbc:	89 45 e0             	mov    %eax,-0x20(%ebp)
    3dbf:	89 55 e4             	mov    %edx,-0x1c(%ebp)
    3dc2:	c7 45 ec 0c 00 00 00 	movl   $0xc,-0x14(%ebp)
    3dc9:	b8 60 02 00 00       	mov    $0x260,%eax
    3dce:	89 45 e8             	mov    %eax,-0x18(%ebp)
    3dd1:	8b 45 e0             	mov    -0x20(%ebp),%eax
    3dd4:	89 44 24 04          	mov    %eax,0x4(%esp)
    3dd8:	8b 45 e4             	mov    -0x1c(%ebp),%eax
    3ddb:	89 44 24 08          	mov    %eax,0x8(%esp)
    3ddf:	8b 45 e8             	mov    -0x18(%ebp),%eax
    3de2:	89 44 24 0c          	mov    %eax,0xc(%esp)
    3de6:	8b 45 ec             	mov    -0x14(%ebp),%eax
    3de9:	89 44 24 10          	mov    %eax,0x10(%esp)
    3ded:	c7 04 24 00 00 00 00 	movl   $0x0,(%esp)
    3df4:	e8 2d db ff ff       	call   1926 <IDT_WriteIDT>
    3df9:	b8 66 02 00 00       	mov    $0x266,%eax
    3dfe:	89 45 e8             	mov    %eax,-0x18(%ebp)
    3e01:	8b 45 e0             	mov    -0x20(%ebp),%eax
    3e04:	89 44 24 04          	mov    %eax,0x4(%esp)
    3e08:	8b 45 e4             	mov    -0x1c(%ebp),%eax
    3e0b:	89 44 24 08          	mov    %eax,0x8(%esp)
    3e0f:	8b 45 e8             	mov    -0x18(%ebp),%eax
    3e12:	89 44 24 0c          	mov    %eax,0xc(%esp)
    3e16:	8b 45 ec             	mov    -0x14(%ebp),%eax
    3e19:	89 44 24 10          	mov    %eax,0x10(%esp)
    3e1d:	c7 04 24 01 00 00 00 	movl   $0x1,(%esp)
    3e24:	e8 fd da ff ff       	call   1926 <IDT_WriteIDT>
    3e29:	b8 6c 02 00 00       	mov    $0x26c,%eax
    3e2e:	89 45 e8             	mov    %eax,-0x18(%ebp)
    3e31:	8b 45 e0             	mov    -0x20(%ebp),%eax
    3e34:	89 44 24 04          	mov    %eax,0x4(%esp)
    3e38:	8b 45 e4             	mov    -0x1c(%ebp),%eax
    3e3b:	89 44 24 08          	mov    %eax,0x8(%esp)
    3e3f:	8b 45 e8             	mov    -0x18(%ebp),%eax
    3e42:	89 44 24 0c          	mov    %eax,0xc(%esp)
    3e46:	8b 45 ec             	mov    -0x14(%ebp),%eax
    3e49:	89 44 24 10          	mov    %eax,0x10(%esp)
    3e4d:	c7 04 24 02 00 00 00 	movl   $0x2,(%esp)
    3e54:	e8 cd da ff ff       	call   1926 <IDT_WriteIDT>
    3e59:	b8 72 02 00 00       	mov    $0x272,%eax
    3e5e:	89 45 e8             	mov    %eax,-0x18(%ebp)
    3e61:	8b 45 e0             	mov    -0x20(%ebp),%eax
    3e64:	89 44 24 04          	mov    %eax,0x4(%esp)
    3e68:	8b 45 e4             	mov    -0x1c(%ebp),%eax
    3e6b:	89 44 24 08          	mov    %eax,0x8(%esp)
    3e6f:	8b 45 e8             	mov    -0x18(%ebp),%eax
    3e72:	89 44 24 0c          	mov    %eax,0xc(%esp)
    3e76:	8b 45 ec             	mov    -0x14(%ebp),%eax
    3e79:	89 44 24 10          	mov    %eax,0x10(%esp)
    3e7d:	c7 04 24 03 00 00 00 	movl   $0x3,(%esp)
    3e84:	e8 9d da ff ff       	call   1926 <IDT_WriteIDT>
    3e89:	b8 78 02 00 00       	mov    $0x278,%eax
    3e8e:	89 45 e8             	mov    %eax,-0x18(%ebp)
    3e91:	8b 45 e0             	mov    -0x20(%ebp),%eax
    3e94:	89 44 24 04          	mov    %eax,0x4(%esp)
    3e98:	8b 45 e4             	mov    -0x1c(%ebp),%eax
    3e9b:	89 44 24 08          	mov    %eax,0x8(%esp)
    3e9f:	8b 45 e8             	mov    -0x18(%ebp),%eax
    3ea2:	89 44 24 0c          	mov    %eax,0xc(%esp)
    3ea6:	8b 45 ec             	mov    -0x14(%ebp),%eax
    3ea9:	89 44 24 10          	mov    %eax,0x10(%esp)
    3ead:	c7 04 24 04 00 00 00 	movl   $0x4,(%esp)
    3eb4:	e8 6d da ff ff       	call   1926 <IDT_WriteIDT>
    3eb9:	b8 7e 02 00 00       	mov    $0x27e,%eax
    3ebe:	89 45 e8             	mov    %eax,-0x18(%ebp)
    3ec1:	8b 45 e0             	mov    -0x20(%ebp),%eax
    3ec4:	89 44 24 04          	mov    %eax,0x4(%esp)
    3ec8:	8b 45 e4             	mov    -0x1c(%ebp),%eax
    3ecb:	89 44 24 08          	mov    %eax,0x8(%esp)
    3ecf:	8b 45 e8             	mov    -0x18(%ebp),%eax
    3ed2:	89 44 24 0c          	mov    %eax,0xc(%esp)
    3ed6:	8b 45 ec             	mov    -0x14(%ebp),%eax
    3ed9:	89 44 24 10          	mov    %eax,0x10(%esp)
    3edd:	c7 04 24 05 00 00 00 	movl   $0x5,(%esp)
    3ee4:	e8 3d da ff ff       	call   1926 <IDT_WriteIDT>
    3ee9:	b8 84 02 00 00       	mov    $0x284,%eax
    3eee:	89 45 e8             	mov    %eax,-0x18(%ebp)
    3ef1:	8b 45 e0             	mov    -0x20(%ebp),%eax
    3ef4:	89 44 24 04          	mov    %eax,0x4(%esp)
    3ef8:	8b 45 e4             	mov    -0x1c(%ebp),%eax
    3efb:	89 44 24 08          	mov    %eax,0x8(%esp)
    3eff:	8b 45 e8             	mov    -0x18(%ebp),%eax
    3f02:	89 44 24 0c          	mov    %eax,0xc(%esp)
    3f06:	8b 45 ec             	mov    -0x14(%ebp),%eax
    3f09:	89 44 24 10          	mov    %eax,0x10(%esp)
    3f0d:	c7 04 24 06 00 00 00 	movl   $0x6,(%esp)
    3f14:	e8 0d da ff ff       	call   1926 <IDT_WriteIDT>
    3f19:	b8 8a 02 00 00       	mov    $0x28a,%eax
    3f1e:	89 45 e8             	mov    %eax,-0x18(%ebp)
    3f21:	8b 45 e0             	mov    -0x20(%ebp),%eax
    3f24:	89 44 24 04          	mov    %eax,0x4(%esp)
    3f28:	8b 45 e4             	mov    -0x1c(%ebp),%eax
    3f2b:	89 44 24 08          	mov    %eax,0x8(%esp)
    3f2f:	8b 45 e8             	mov    -0x18(%ebp),%eax
    3f32:	89 44 24 0c          	mov    %eax,0xc(%esp)
    3f36:	8b 45 ec             	mov    -0x14(%ebp),%eax
    3f39:	89 44 24 10          	mov    %eax,0x10(%esp)
    3f3d:	c7 04 24 07 00 00 00 	movl   $0x7,(%esp)
    3f44:	e8 dd d9 ff ff       	call   1926 <IDT_WriteIDT>
    3f49:	b8 90 02 00 00       	mov    $0x290,%eax
    3f4e:	89 45 e8             	mov    %eax,-0x18(%ebp)
    3f51:	8b 45 e0             	mov    -0x20(%ebp),%eax
    3f54:	89 44 24 04          	mov    %eax,0x4(%esp)
    3f58:	8b 45 e4             	mov    -0x1c(%ebp),%eax
    3f5b:	89 44 24 08          	mov    %eax,0x8(%esp)
    3f5f:	8b 45 e8             	mov    -0x18(%ebp),%eax
    3f62:	89 44 24 0c          	mov    %eax,0xc(%esp)
    3f66:	8b 45 ec             	mov    -0x14(%ebp),%eax
    3f69:	89 44 24 10          	mov    %eax,0x10(%esp)
    3f6d:	c7 04 24 08 00 00 00 	movl   $0x8,(%esp)
    3f74:	e8 ad d9 ff ff       	call   1926 <IDT_WriteIDT>
    3f79:	b8 96 02 00 00       	mov    $0x296,%eax
    3f7e:	89 45 e8             	mov    %eax,-0x18(%ebp)
    3f81:	8b 45 e0             	mov    -0x20(%ebp),%eax
    3f84:	89 44 24 04          	mov    %eax,0x4(%esp)
    3f88:	8b 45 e4             	mov    -0x1c(%ebp),%eax
    3f8b:	89 44 24 08          	mov    %eax,0x8(%esp)
    3f8f:	8b 45 e8             	mov    -0x18(%ebp),%eax
    3f92:	89 44 24 0c          	mov    %eax,0xc(%esp)
    3f96:	8b 45 ec             	mov    -0x14(%ebp),%eax
    3f99:	89 44 24 10          	mov    %eax,0x10(%esp)
    3f9d:	c7 04 24 09 00 00 00 	movl   $0x9,(%esp)
    3fa4:	e8 7d d9 ff ff       	call   1926 <IDT_WriteIDT>
    3fa9:	b8 9c 02 00 00       	mov    $0x29c,%eax
    3fae:	89 45 e8             	mov    %eax,-0x18(%ebp)
    3fb1:	8b 45 e0             	mov    -0x20(%ebp),%eax
    3fb4:	89 44 24 04          	mov    %eax,0x4(%esp)
    3fb8:	8b 45 e4             	mov    -0x1c(%ebp),%eax
    3fbb:	89 44 24 08          	mov    %eax,0x8(%esp)
    3fbf:	8b 45 e8             	mov    -0x18(%ebp),%eax
    3fc2:	89 44 24 0c          	mov    %eax,0xc(%esp)
    3fc6:	8b 45 ec             	mov    -0x14(%ebp),%eax
    3fc9:	89 44 24 10          	mov    %eax,0x10(%esp)
    3fcd:	c7 04 24 0a 00 00 00 	movl   $0xa,(%esp)
    3fd4:	e8 4d d9 ff ff       	call   1926 <IDT_WriteIDT>
    3fd9:	b8 a2 02 00 00       	mov    $0x2a2,%eax
    3fde:	89 45 e8             	mov    %eax,-0x18(%ebp)
    3fe1:	8b 45 e0             	mov    -0x20(%ebp),%eax
    3fe4:	89 44 24 04          	mov    %eax,0x4(%esp)
    3fe8:	8b 45 e4             	mov    -0x1c(%ebp),%eax
    3feb:	89 44 24 08          	mov    %eax,0x8(%esp)
    3fef:	8b 45 e8             	mov    -0x18(%ebp),%eax
    3ff2:	89 44 24 0c          	mov    %eax,0xc(%esp)
    3ff6:	8b 45 ec             	mov    -0x14(%ebp),%eax
    3ff9:	89 44 24 10          	mov    %eax,0x10(%esp)
    3ffd:	c7 04 24 0b 00 00 00 	movl   $0xb,(%esp)
    4004:	e8 1d d9 ff ff       	call   1926 <IDT_WriteIDT>
    4009:	b8 a8 02 00 00       	mov    $0x2a8,%eax
    400e:	89 45 e8             	mov    %eax,-0x18(%ebp)
    4011:	8b 45 e0             	mov    -0x20(%ebp),%eax
    4014:	89 44 24 04          	mov    %eax,0x4(%esp)
    4018:	8b 45 e4             	mov    -0x1c(%ebp),%eax
    401b:	89 44 24 08          	mov    %eax,0x8(%esp)
    401f:	8b 45 e8             	mov    -0x18(%ebp),%eax
    4022:	89 44 24 0c          	mov    %eax,0xc(%esp)
    4026:	8b 45 ec             	mov    -0x14(%ebp),%eax
    4029:	89 44 24 10          	mov    %eax,0x10(%esp)
    402d:	c7 04 24 0c 00 00 00 	movl   $0xc,(%esp)
    4034:	e8 ed d8 ff ff       	call   1926 <IDT_WriteIDT>
    4039:	b8 ae 02 00 00       	mov    $0x2ae,%eax
    403e:	89 45 e8             	mov    %eax,-0x18(%ebp)
    4041:	8b 45 e0             	mov    -0x20(%ebp),%eax
    4044:	89 44 24 04          	mov    %eax,0x4(%esp)
    4048:	8b 45 e4             	mov    -0x1c(%ebp),%eax
    404b:	89 44 24 08          	mov    %eax,0x8(%esp)
    404f:	8b 45 e8             	mov    -0x18(%ebp),%eax
    4052:	89 44 24 0c          	mov    %eax,0xc(%esp)
    4056:	8b 45 ec             	mov    -0x14(%ebp),%eax
    4059:	89 44 24 10          	mov    %eax,0x10(%esp)
    405d:	c7 04 24 0d 00 00 00 	movl   $0xd,(%esp)
    4064:	e8 bd d8 ff ff       	call   1926 <IDT_WriteIDT>
    4069:	b8 b4 02 00 00       	mov    $0x2b4,%eax
    406e:	89 45 e8             	mov    %eax,-0x18(%ebp)
    4071:	8b 45 e0             	mov    -0x20(%ebp),%eax
    4074:	89 44 24 04          	mov    %eax,0x4(%esp)
    4078:	8b 45 e4             	mov    -0x1c(%ebp),%eax
    407b:	89 44 24 08          	mov    %eax,0x8(%esp)
    407f:	8b 45 e8             	mov    -0x18(%ebp),%eax
    4082:	89 44 24 0c          	mov    %eax,0xc(%esp)
    4086:	8b 45 ec             	mov    -0x14(%ebp),%eax
    4089:	89 44 24 10          	mov    %eax,0x10(%esp)
    408d:	c7 04 24 0e 00 00 00 	movl   $0xe,(%esp)
    4094:	e8 8d d8 ff ff       	call   1926 <IDT_WriteIDT>
    4099:	b8 ba 02 00 00       	mov    $0x2ba,%eax
    409e:	89 45 e8             	mov    %eax,-0x18(%ebp)
    40a1:	8b 45 e0             	mov    -0x20(%ebp),%eax
    40a4:	89 44 24 04          	mov    %eax,0x4(%esp)
    40a8:	8b 45 e4             	mov    -0x1c(%ebp),%eax
    40ab:	89 44 24 08          	mov    %eax,0x8(%esp)
    40af:	8b 45 e8             	mov    -0x18(%ebp),%eax
    40b2:	89 44 24 0c          	mov    %eax,0xc(%esp)
    40b6:	8b 45 ec             	mov    -0x14(%ebp),%eax
    40b9:	89 44 24 10          	mov    %eax,0x10(%esp)
    40bd:	c7 04 24 0f 00 00 00 	movl   $0xf,(%esp)
    40c4:	e8 5d d8 ff ff       	call   1926 <IDT_WriteIDT>
    40c9:	b8 c0 02 00 00       	mov    $0x2c0,%eax
    40ce:	89 45 e8             	mov    %eax,-0x18(%ebp)
    40d1:	8b 45 e0             	mov    -0x20(%ebp),%eax
    40d4:	89 44 24 04          	mov    %eax,0x4(%esp)
    40d8:	8b 45 e4             	mov    -0x1c(%ebp),%eax
    40db:	89 44 24 08          	mov    %eax,0x8(%esp)
    40df:	8b 45 e8             	mov    -0x18(%ebp),%eax
    40e2:	89 44 24 0c          	mov    %eax,0xc(%esp)
    40e6:	8b 45 ec             	mov    -0x14(%ebp),%eax
    40e9:	89 44 24 10          	mov    %eax,0x10(%esp)
    40ed:	c7 04 24 10 00 00 00 	movl   $0x10,(%esp)
    40f4:	e8 2d d8 ff ff       	call   1926 <IDT_WriteIDT>
    40f9:	b8 c6 02 00 00       	mov    $0x2c6,%eax
    40fe:	89 45 e8             	mov    %eax,-0x18(%ebp)
    4101:	8b 45 e0             	mov    -0x20(%ebp),%eax
    4104:	89 44 24 04          	mov    %eax,0x4(%esp)
    4108:	8b 45 e4             	mov    -0x1c(%ebp),%eax
    410b:	89 44 24 08          	mov    %eax,0x8(%esp)
    410f:	8b 45 e8             	mov    -0x18(%ebp),%eax
    4112:	89 44 24 0c          	mov    %eax,0xc(%esp)
    4116:	8b 45 ec             	mov    -0x14(%ebp),%eax
    4119:	89 44 24 10          	mov    %eax,0x10(%esp)
    411d:	c7 04 24 11 00 00 00 	movl   $0x11,(%esp)
    4124:	e8 fd d7 ff ff       	call   1926 <IDT_WriteIDT>
    4129:	b8 cc 02 00 00       	mov    $0x2cc,%eax
    412e:	89 45 e8             	mov    %eax,-0x18(%ebp)
    4131:	8b 45 e0             	mov    -0x20(%ebp),%eax
    4134:	89 44 24 04          	mov    %eax,0x4(%esp)
    4138:	8b 45 e4             	mov    -0x1c(%ebp),%eax
    413b:	89 44 24 08          	mov    %eax,0x8(%esp)
    413f:	8b 45 e8             	mov    -0x18(%ebp),%eax
    4142:	89 44 24 0c          	mov    %eax,0xc(%esp)
    4146:	8b 45 ec             	mov    -0x14(%ebp),%eax
    4149:	89 44 24 10          	mov    %eax,0x10(%esp)
    414d:	c7 04 24 12 00 00 00 	movl   $0x12,(%esp)
    4154:	e8 cd d7 ff ff       	call   1926 <IDT_WriteIDT>
    4159:	b8 d2 02 00 00       	mov    $0x2d2,%eax
    415e:	89 45 e8             	mov    %eax,-0x18(%ebp)
    4161:	8b 45 e0             	mov    -0x20(%ebp),%eax
    4164:	89 44 24 04          	mov    %eax,0x4(%esp)
    4168:	8b 45 e4             	mov    -0x1c(%ebp),%eax
    416b:	89 44 24 08          	mov    %eax,0x8(%esp)
    416f:	8b 45 e8             	mov    -0x18(%ebp),%eax
    4172:	89 44 24 0c          	mov    %eax,0xc(%esp)
    4176:	8b 45 ec             	mov    -0x14(%ebp),%eax
    4179:	89 44 24 10          	mov    %eax,0x10(%esp)
    417d:	c7 04 24 13 00 00 00 	movl   $0x13,(%esp)
    4184:	e8 9d d7 ff ff       	call   1926 <IDT_WriteIDT>
    4189:	b8 d8 02 00 00       	mov    $0x2d8,%eax
    418e:	89 45 e8             	mov    %eax,-0x18(%ebp)
    4191:	8b 45 e0             	mov    -0x20(%ebp),%eax
    4194:	89 44 24 04          	mov    %eax,0x4(%esp)
    4198:	8b 45 e4             	mov    -0x1c(%ebp),%eax
    419b:	89 44 24 08          	mov    %eax,0x8(%esp)
    419f:	8b 45 e8             	mov    -0x18(%ebp),%eax
    41a2:	89 44 24 0c          	mov    %eax,0xc(%esp)
    41a6:	8b 45 ec             	mov    -0x14(%ebp),%eax
    41a9:	89 44 24 10          	mov    %eax,0x10(%esp)
    41ad:	c7 04 24 14 00 00 00 	movl   $0x14,(%esp)
    41b4:	e8 6d d7 ff ff       	call   1926 <IDT_WriteIDT>
    41b9:	b8 de 02 00 00       	mov    $0x2de,%eax
    41be:	89 45 e8             	mov    %eax,-0x18(%ebp)
    41c1:	8b 45 e0             	mov    -0x20(%ebp),%eax
    41c4:	89 44 24 04          	mov    %eax,0x4(%esp)
    41c8:	8b 45 e4             	mov    -0x1c(%ebp),%eax
    41cb:	89 44 24 08          	mov    %eax,0x8(%esp)
    41cf:	8b 45 e8             	mov    -0x18(%ebp),%eax
    41d2:	89 44 24 0c          	mov    %eax,0xc(%esp)
    41d6:	8b 45 ec             	mov    -0x14(%ebp),%eax
    41d9:	89 44 24 10          	mov    %eax,0x10(%esp)
    41dd:	c7 04 24 15 00 00 00 	movl   $0x15,(%esp)
    41e4:	e8 3d d7 ff ff       	call   1926 <IDT_WriteIDT>
    41e9:	b8 e4 02 00 00       	mov    $0x2e4,%eax
    41ee:	89 45 e8             	mov    %eax,-0x18(%ebp)
    41f1:	8b 45 e0             	mov    -0x20(%ebp),%eax
    41f4:	89 44 24 04          	mov    %eax,0x4(%esp)
    41f8:	8b 45 e4             	mov    -0x1c(%ebp),%eax
    41fb:	89 44 24 08          	mov    %eax,0x8(%esp)
    41ff:	8b 45 e8             	mov    -0x18(%ebp),%eax
    4202:	89 44 24 0c          	mov    %eax,0xc(%esp)
    4206:	8b 45 ec             	mov    -0x14(%ebp),%eax
    4209:	89 44 24 10          	mov    %eax,0x10(%esp)
    420d:	c7 04 24 16 00 00 00 	movl   $0x16,(%esp)
    4214:	e8 0d d7 ff ff       	call   1926 <IDT_WriteIDT>
    4219:	b8 ea 02 00 00       	mov    $0x2ea,%eax
    421e:	89 45 e8             	mov    %eax,-0x18(%ebp)
    4221:	8b 45 e0             	mov    -0x20(%ebp),%eax
    4224:	89 44 24 04          	mov    %eax,0x4(%esp)
    4228:	8b 45 e4             	mov    -0x1c(%ebp),%eax
    422b:	89 44 24 08          	mov    %eax,0x8(%esp)
    422f:	8b 45 e8             	mov    -0x18(%ebp),%eax
    4232:	89 44 24 0c          	mov    %eax,0xc(%esp)
    4236:	8b 45 ec             	mov    -0x14(%ebp),%eax
    4239:	89 44 24 10          	mov    %eax,0x10(%esp)
    423d:	c7 04 24 17 00 00 00 	movl   $0x17,(%esp)
    4244:	e8 dd d6 ff ff       	call   1926 <IDT_WriteIDT>
    4249:	b8 f0 02 00 00       	mov    $0x2f0,%eax
    424e:	89 45 e8             	mov    %eax,-0x18(%ebp)
    4251:	8b 45 e0             	mov    -0x20(%ebp),%eax
    4254:	89 44 24 04          	mov    %eax,0x4(%esp)
    4258:	8b 45 e4             	mov    -0x1c(%ebp),%eax
    425b:	89 44 24 08          	mov    %eax,0x8(%esp)
    425f:	8b 45 e8             	mov    -0x18(%ebp),%eax
    4262:	89 44 24 0c          	mov    %eax,0xc(%esp)
    4266:	8b 45 ec             	mov    -0x14(%ebp),%eax
    4269:	89 44 24 10          	mov    %eax,0x10(%esp)
    426d:	c7 04 24 18 00 00 00 	movl   $0x18,(%esp)
    4274:	e8 ad d6 ff ff       	call   1926 <IDT_WriteIDT>
    4279:	b8 f6 02 00 00       	mov    $0x2f6,%eax
    427e:	89 45 e8             	mov    %eax,-0x18(%ebp)
    4281:	8b 45 e0             	mov    -0x20(%ebp),%eax
    4284:	89 44 24 04          	mov    %eax,0x4(%esp)
    4288:	8b 45 e4             	mov    -0x1c(%ebp),%eax
    428b:	89 44 24 08          	mov    %eax,0x8(%esp)
    428f:	8b 45 e8             	mov    -0x18(%ebp),%eax
    4292:	89 44 24 0c          	mov    %eax,0xc(%esp)
    4296:	8b 45 ec             	mov    -0x14(%ebp),%eax
    4299:	89 44 24 10          	mov    %eax,0x10(%esp)
    429d:	c7 04 24 19 00 00 00 	movl   $0x19,(%esp)
    42a4:	e8 7d d6 ff ff       	call   1926 <IDT_WriteIDT>
    42a9:	b8 fc 02 00 00       	mov    $0x2fc,%eax
    42ae:	89 45 e8             	mov    %eax,-0x18(%ebp)
    42b1:	8b 45 e0             	mov    -0x20(%ebp),%eax
    42b4:	89 44 24 04          	mov    %eax,0x4(%esp)
    42b8:	8b 45 e4             	mov    -0x1c(%ebp),%eax
    42bb:	89 44 24 08          	mov    %eax,0x8(%esp)
    42bf:	8b 45 e8             	mov    -0x18(%ebp),%eax
    42c2:	89 44 24 0c          	mov    %eax,0xc(%esp)
    42c6:	8b 45 ec             	mov    -0x14(%ebp),%eax
    42c9:	89 44 24 10          	mov    %eax,0x10(%esp)
    42cd:	c7 04 24 1a 00 00 00 	movl   $0x1a,(%esp)
    42d4:	e8 4d d6 ff ff       	call   1926 <IDT_WriteIDT>
    42d9:	b8 02 03 00 00       	mov    $0x302,%eax
    42de:	89 45 e8             	mov    %eax,-0x18(%ebp)
    42e1:	8b 45 e0             	mov    -0x20(%ebp),%eax
    42e4:	89 44 24 04          	mov    %eax,0x4(%esp)
    42e8:	8b 45 e4             	mov    -0x1c(%ebp),%eax
    42eb:	89 44 24 08          	mov    %eax,0x8(%esp)
    42ef:	8b 45 e8             	mov    -0x18(%ebp),%eax
    42f2:	89 44 24 0c          	mov    %eax,0xc(%esp)
    42f6:	8b 45 ec             	mov    -0x14(%ebp),%eax
    42f9:	89 44 24 10          	mov    %eax,0x10(%esp)
    42fd:	c7 04 24 1b 00 00 00 	movl   $0x1b,(%esp)
    4304:	e8 1d d6 ff ff       	call   1926 <IDT_WriteIDT>
    4309:	b8 08 03 00 00       	mov    $0x308,%eax
    430e:	89 45 e8             	mov    %eax,-0x18(%ebp)
    4311:	8b 45 e0             	mov    -0x20(%ebp),%eax
    4314:	89 44 24 04          	mov    %eax,0x4(%esp)
    4318:	8b 45 e4             	mov    -0x1c(%ebp),%eax
    431b:	89 44 24 08          	mov    %eax,0x8(%esp)
    431f:	8b 45 e8             	mov    -0x18(%ebp),%eax
    4322:	89 44 24 0c          	mov    %eax,0xc(%esp)
    4326:	8b 45 ec             	mov    -0x14(%ebp),%eax
    4329:	89 44 24 10          	mov    %eax,0x10(%esp)
    432d:	c7 04 24 1c 00 00 00 	movl   $0x1c,(%esp)
    4334:	e8 ed d5 ff ff       	call   1926 <IDT_WriteIDT>
    4339:	b8 0e 03 00 00       	mov    $0x30e,%eax
    433e:	89 45 e8             	mov    %eax,-0x18(%ebp)
    4341:	8b 45 e0             	mov    -0x20(%ebp),%eax
    4344:	89 44 24 04          	mov    %eax,0x4(%esp)
    4348:	8b 45 e4             	mov    -0x1c(%ebp),%eax
    434b:	89 44 24 08          	mov    %eax,0x8(%esp)
    434f:	8b 45 e8             	mov    -0x18(%ebp),%eax
    4352:	89 44 24 0c          	mov    %eax,0xc(%esp)
    4356:	8b 45 ec             	mov    -0x14(%ebp),%eax
    4359:	89 44 24 10          	mov    %eax,0x10(%esp)
    435d:	c7 04 24 1d 00 00 00 	movl   $0x1d,(%esp)
    4364:	e8 bd d5 ff ff       	call   1926 <IDT_WriteIDT>
    4369:	b8 14 03 00 00       	mov    $0x314,%eax
    436e:	89 45 e8             	mov    %eax,-0x18(%ebp)
    4371:	8b 45 e0             	mov    -0x20(%ebp),%eax
    4374:	89 44 24 04          	mov    %eax,0x4(%esp)
    4378:	8b 45 e4             	mov    -0x1c(%ebp),%eax
    437b:	89 44 24 08          	mov    %eax,0x8(%esp)
    437f:	8b 45 e8             	mov    -0x18(%ebp),%eax
    4382:	89 44 24 0c          	mov    %eax,0xc(%esp)
    4386:	8b 45 ec             	mov    -0x14(%ebp),%eax
    4389:	89 44 24 10          	mov    %eax,0x10(%esp)
    438d:	c7 04 24 1e 00 00 00 	movl   $0x1e,(%esp)
    4394:	e8 8d d5 ff ff       	call   1926 <IDT_WriteIDT>
    4399:	b8 1a 03 00 00       	mov    $0x31a,%eax
    439e:	89 45 e8             	mov    %eax,-0x18(%ebp)
    43a1:	8b 45 e0             	mov    -0x20(%ebp),%eax
    43a4:	89 44 24 04          	mov    %eax,0x4(%esp)
    43a8:	8b 45 e4             	mov    -0x1c(%ebp),%eax
    43ab:	89 44 24 08          	mov    %eax,0x8(%esp)
    43af:	8b 45 e8             	mov    -0x18(%ebp),%eax
    43b2:	89 44 24 0c          	mov    %eax,0xc(%esp)
    43b6:	8b 45 ec             	mov    -0x14(%ebp),%eax
    43b9:	89 44 24 10          	mov    %eax,0x10(%esp)
    43bd:	c7 04 24 1f 00 00 00 	movl   $0x1f,(%esp)
    43c4:	e8 5d d5 ff ff       	call   1926 <IDT_WriteIDT>
    43c9:	b8 20 03 00 00       	mov    $0x320,%eax
    43ce:	89 45 e8             	mov    %eax,-0x18(%ebp)
    43d1:	8b 45 e0             	mov    -0x20(%ebp),%eax
    43d4:	89 44 24 04          	mov    %eax,0x4(%esp)
    43d8:	8b 45 e4             	mov    -0x1c(%ebp),%eax
    43db:	89 44 24 08          	mov    %eax,0x8(%esp)
    43df:	8b 45 e8             	mov    -0x18(%ebp),%eax
    43e2:	89 44 24 0c          	mov    %eax,0xc(%esp)
    43e6:	8b 45 ec             	mov    -0x14(%ebp),%eax
    43e9:	89 44 24 10          	mov    %eax,0x10(%esp)
    43ed:	c7 04 24 20 00 00 00 	movl   $0x20,(%esp)
    43f4:	e8 2d d5 ff ff       	call   1926 <IDT_WriteIDT>
    43f9:	b8 26 03 00 00       	mov    $0x326,%eax
    43fe:	89 45 e8             	mov    %eax,-0x18(%ebp)
    4401:	8b 45 e0             	mov    -0x20(%ebp),%eax
    4404:	89 44 24 04          	mov    %eax,0x4(%esp)
    4408:	8b 45 e4             	mov    -0x1c(%ebp),%eax
    440b:	89 44 24 08          	mov    %eax,0x8(%esp)
    440f:	8b 45 e8             	mov    -0x18(%ebp),%eax
    4412:	89 44 24 0c          	mov    %eax,0xc(%esp)
    4416:	8b 45 ec             	mov    -0x14(%ebp),%eax
    4419:	89 44 24 10          	mov    %eax,0x10(%esp)
    441d:	c7 04 24 21 00 00 00 	movl   $0x21,(%esp)
    4424:	e8 fd d4 ff ff       	call   1926 <IDT_WriteIDT>
    4429:	b8 2c 03 00 00       	mov    $0x32c,%eax
    442e:	89 45 e8             	mov    %eax,-0x18(%ebp)
    4431:	8b 45 e0             	mov    -0x20(%ebp),%eax
    4434:	89 44 24 04          	mov    %eax,0x4(%esp)
    4438:	8b 45 e4             	mov    -0x1c(%ebp),%eax
    443b:	89 44 24 08          	mov    %eax,0x8(%esp)
    443f:	8b 45 e8             	mov    -0x18(%ebp),%eax
    4442:	89 44 24 0c          	mov    %eax,0xc(%esp)
    4446:	8b 45 ec             	mov    -0x14(%ebp),%eax
    4449:	89 44 24 10          	mov    %eax,0x10(%esp)
    444d:	c7 04 24 22 00 00 00 	movl   $0x22,(%esp)
    4454:	e8 cd d4 ff ff       	call   1926 <IDT_WriteIDT>
    4459:	b8 32 03 00 00       	mov    $0x332,%eax
    445e:	89 45 e8             	mov    %eax,-0x18(%ebp)
    4461:	8b 45 e0             	mov    -0x20(%ebp),%eax
    4464:	89 44 24 04          	mov    %eax,0x4(%esp)
    4468:	8b 45 e4             	mov    -0x1c(%ebp),%eax
    446b:	89 44 24 08          	mov    %eax,0x8(%esp)
    446f:	8b 45 e8             	mov    -0x18(%ebp),%eax
    4472:	89 44 24 0c          	mov    %eax,0xc(%esp)
    4476:	8b 45 ec             	mov    -0x14(%ebp),%eax
    4479:	89 44 24 10          	mov    %eax,0x10(%esp)
    447d:	c7 04 24 23 00 00 00 	movl   $0x23,(%esp)
    4484:	e8 9d d4 ff ff       	call   1926 <IDT_WriteIDT>
    4489:	b8 38 03 00 00       	mov    $0x338,%eax
    448e:	89 45 e8             	mov    %eax,-0x18(%ebp)
    4491:	8b 45 e0             	mov    -0x20(%ebp),%eax
    4494:	89 44 24 04          	mov    %eax,0x4(%esp)
    4498:	8b 45 e4             	mov    -0x1c(%ebp),%eax
    449b:	89 44 24 08          	mov    %eax,0x8(%esp)
    449f:	8b 45 e8             	mov    -0x18(%ebp),%eax
    44a2:	89 44 24 0c          	mov    %eax,0xc(%esp)
    44a6:	8b 45 ec             	mov    -0x14(%ebp),%eax
    44a9:	89 44 24 10          	mov    %eax,0x10(%esp)
    44ad:	c7 04 24 24 00 00 00 	movl   $0x24,(%esp)
    44b4:	e8 6d d4 ff ff       	call   1926 <IDT_WriteIDT>
    44b9:	b8 3e 03 00 00       	mov    $0x33e,%eax
    44be:	89 45 e8             	mov    %eax,-0x18(%ebp)
    44c1:	8b 45 e0             	mov    -0x20(%ebp),%eax
    44c4:	89 44 24 04          	mov    %eax,0x4(%esp)
    44c8:	8b 45 e4             	mov    -0x1c(%ebp),%eax
    44cb:	89 44 24 08          	mov    %eax,0x8(%esp)
    44cf:	8b 45 e8             	mov    -0x18(%ebp),%eax
    44d2:	89 44 24 0c          	mov    %eax,0xc(%esp)
    44d6:	8b 45 ec             	mov    -0x14(%ebp),%eax
    44d9:	89 44 24 10          	mov    %eax,0x10(%esp)
    44dd:	c7 04 24 25 00 00 00 	movl   $0x25,(%esp)
    44e4:	e8 3d d4 ff ff       	call   1926 <IDT_WriteIDT>
    44e9:	b8 44 03 00 00       	mov    $0x344,%eax
    44ee:	89 45 e8             	mov    %eax,-0x18(%ebp)
    44f1:	8b 45 e0             	mov    -0x20(%ebp),%eax
    44f4:	89 44 24 04          	mov    %eax,0x4(%esp)
    44f8:	8b 45 e4             	mov    -0x1c(%ebp),%eax
    44fb:	89 44 24 08          	mov    %eax,0x8(%esp)
    44ff:	8b 45 e8             	mov    -0x18(%ebp),%eax
    4502:	89 44 24 0c          	mov    %eax,0xc(%esp)
    4506:	8b 45 ec             	mov    -0x14(%ebp),%eax
    4509:	89 44 24 10          	mov    %eax,0x10(%esp)
    450d:	c7 04 24 26 00 00 00 	movl   $0x26,(%esp)
    4514:	e8 0d d4 ff ff       	call   1926 <IDT_WriteIDT>
    4519:	b8 4a 03 00 00       	mov    $0x34a,%eax
    451e:	89 45 e8             	mov    %eax,-0x18(%ebp)
    4521:	8b 45 e0             	mov    -0x20(%ebp),%eax
    4524:	89 44 24 04          	mov    %eax,0x4(%esp)
    4528:	8b 45 e4             	mov    -0x1c(%ebp),%eax
    452b:	89 44 24 08          	mov    %eax,0x8(%esp)
    452f:	8b 45 e8             	mov    -0x18(%ebp),%eax
    4532:	89 44 24 0c          	mov    %eax,0xc(%esp)
    4536:	8b 45 ec             	mov    -0x14(%ebp),%eax
    4539:	89 44 24 10          	mov    %eax,0x10(%esp)
    453d:	c7 04 24 27 00 00 00 	movl   $0x27,(%esp)
    4544:	e8 dd d3 ff ff       	call   1926 <IDT_WriteIDT>
    4549:	b8 50 03 00 00       	mov    $0x350,%eax
    454e:	89 45 e8             	mov    %eax,-0x18(%ebp)
    4551:	8b 45 e0             	mov    -0x20(%ebp),%eax
    4554:	89 44 24 04          	mov    %eax,0x4(%esp)
    4558:	8b 45 e4             	mov    -0x1c(%ebp),%eax
    455b:	89 44 24 08          	mov    %eax,0x8(%esp)
    455f:	8b 45 e8             	mov    -0x18(%ebp),%eax
    4562:	89 44 24 0c          	mov    %eax,0xc(%esp)
    4566:	8b 45 ec             	mov    -0x14(%ebp),%eax
    4569:	89 44 24 10          	mov    %eax,0x10(%esp)
    456d:	c7 04 24 28 00 00 00 	movl   $0x28,(%esp)
    4574:	e8 ad d3 ff ff       	call   1926 <IDT_WriteIDT>
    4579:	b8 56 03 00 00       	mov    $0x356,%eax
    457e:	89 45 e8             	mov    %eax,-0x18(%ebp)
    4581:	8b 45 e0             	mov    -0x20(%ebp),%eax
    4584:	89 44 24 04          	mov    %eax,0x4(%esp)
    4588:	8b 45 e4             	mov    -0x1c(%ebp),%eax
    458b:	89 44 24 08          	mov    %eax,0x8(%esp)
    458f:	8b 45 e8             	mov    -0x18(%ebp),%eax
    4592:	89 44 24 0c          	mov    %eax,0xc(%esp)
    4596:	8b 45 ec             	mov    -0x14(%ebp),%eax
    4599:	89 44 24 10          	mov    %eax,0x10(%esp)
    459d:	c7 04 24 29 00 00 00 	movl   $0x29,(%esp)
    45a4:	e8 7d d3 ff ff       	call   1926 <IDT_WriteIDT>
    45a9:	b8 5c 03 00 00       	mov    $0x35c,%eax
    45ae:	89 45 e8             	mov    %eax,-0x18(%ebp)
    45b1:	8b 45 e0             	mov    -0x20(%ebp),%eax
    45b4:	89 44 24 04          	mov    %eax,0x4(%esp)
    45b8:	8b 45 e4             	mov    -0x1c(%ebp),%eax
    45bb:	89 44 24 08          	mov    %eax,0x8(%esp)
    45bf:	8b 45 e8             	mov    -0x18(%ebp),%eax
    45c2:	89 44 24 0c          	mov    %eax,0xc(%esp)
    45c6:	8b 45 ec             	mov    -0x14(%ebp),%eax
    45c9:	89 44 24 10          	mov    %eax,0x10(%esp)
    45cd:	c7 04 24 2a 00 00 00 	movl   $0x2a,(%esp)
    45d4:	e8 4d d3 ff ff       	call   1926 <IDT_WriteIDT>
    45d9:	b8 62 03 00 00       	mov    $0x362,%eax
    45de:	89 45 e8             	mov    %eax,-0x18(%ebp)
    45e1:	8b 45 e0             	mov    -0x20(%ebp),%eax
    45e4:	89 44 24 04          	mov    %eax,0x4(%esp)
    45e8:	8b 45 e4             	mov    -0x1c(%ebp),%eax
    45eb:	89 44 24 08          	mov    %eax,0x8(%esp)
    45ef:	8b 45 e8             	mov    -0x18(%ebp),%eax
    45f2:	89 44 24 0c          	mov    %eax,0xc(%esp)
    45f6:	8b 45 ec             	mov    -0x14(%ebp),%eax
    45f9:	89 44 24 10          	mov    %eax,0x10(%esp)
    45fd:	c7 04 24 2b 00 00 00 	movl   $0x2b,(%esp)
    4604:	e8 1d d3 ff ff       	call   1926 <IDT_WriteIDT>
    4609:	b8 68 03 00 00       	mov    $0x368,%eax
    460e:	89 45 e8             	mov    %eax,-0x18(%ebp)
    4611:	8b 45 e0             	mov    -0x20(%ebp),%eax
    4614:	89 44 24 04          	mov    %eax,0x4(%esp)
    4618:	8b 45 e4             	mov    -0x1c(%ebp),%eax
    461b:	89 44 24 08          	mov    %eax,0x8(%esp)
    461f:	8b 45 e8             	mov    -0x18(%ebp),%eax
    4622:	89 44 24 0c          	mov    %eax,0xc(%esp)
    4626:	8b 45 ec             	mov    -0x14(%ebp),%eax
    4629:	89 44 24 10          	mov    %eax,0x10(%esp)
    462d:	c7 04 24 2c 00 00 00 	movl   $0x2c,(%esp)
    4634:	e8 ed d2 ff ff       	call   1926 <IDT_WriteIDT>
    4639:	b8 6e 03 00 00       	mov    $0x36e,%eax
    463e:	89 45 e8             	mov    %eax,-0x18(%ebp)
    4641:	8b 45 e0             	mov    -0x20(%ebp),%eax
    4644:	89 44 24 04          	mov    %eax,0x4(%esp)
    4648:	8b 45 e4             	mov    -0x1c(%ebp),%eax
    464b:	89 44 24 08          	mov    %eax,0x8(%esp)
    464f:	8b 45 e8             	mov    -0x18(%ebp),%eax
    4652:	89 44 24 0c          	mov    %eax,0xc(%esp)
    4656:	8b 45 ec             	mov    -0x14(%ebp),%eax
    4659:	89 44 24 10          	mov    %eax,0x10(%esp)
    465d:	c7 04 24 2d 00 00 00 	movl   $0x2d,(%esp)
    4664:	e8 bd d2 ff ff       	call   1926 <IDT_WriteIDT>
    4669:	b8 74 03 00 00       	mov    $0x374,%eax
    466e:	89 45 e8             	mov    %eax,-0x18(%ebp)
    4671:	8b 45 e0             	mov    -0x20(%ebp),%eax
    4674:	89 44 24 04          	mov    %eax,0x4(%esp)
    4678:	8b 45 e4             	mov    -0x1c(%ebp),%eax
    467b:	89 44 24 08          	mov    %eax,0x8(%esp)
    467f:	8b 45 e8             	mov    -0x18(%ebp),%eax
    4682:	89 44 24 0c          	mov    %eax,0xc(%esp)
    4686:	8b 45 ec             	mov    -0x14(%ebp),%eax
    4689:	89 44 24 10          	mov    %eax,0x10(%esp)
    468d:	c7 04 24 2e 00 00 00 	movl   $0x2e,(%esp)
    4694:	e8 8d d2 ff ff       	call   1926 <IDT_WriteIDT>
    4699:	b8 7a 03 00 00       	mov    $0x37a,%eax
    469e:	89 45 e8             	mov    %eax,-0x18(%ebp)
    46a1:	8b 45 e0             	mov    -0x20(%ebp),%eax
    46a4:	89 44 24 04          	mov    %eax,0x4(%esp)
    46a8:	8b 45 e4             	mov    -0x1c(%ebp),%eax
    46ab:	89 44 24 08          	mov    %eax,0x8(%esp)
    46af:	8b 45 e8             	mov    -0x18(%ebp),%eax
    46b2:	89 44 24 0c          	mov    %eax,0xc(%esp)
    46b6:	8b 45 ec             	mov    -0x14(%ebp),%eax
    46b9:	89 44 24 10          	mov    %eax,0x10(%esp)
    46bd:	c7 04 24 2f 00 00 00 	movl   $0x2f,(%esp)
    46c4:	e8 5d d2 ff ff       	call   1926 <IDT_WriteIDT>
    46c9:	b8 80 03 00 00       	mov    $0x380,%eax
    46ce:	89 45 e8             	mov    %eax,-0x18(%ebp)
    46d1:	8b 45 e0             	mov    -0x20(%ebp),%eax
    46d4:	89 44 24 04          	mov    %eax,0x4(%esp)
    46d8:	8b 45 e4             	mov    -0x1c(%ebp),%eax
    46db:	89 44 24 08          	mov    %eax,0x8(%esp)
    46df:	8b 45 e8             	mov    -0x18(%ebp),%eax
    46e2:	89 44 24 0c          	mov    %eax,0xc(%esp)
    46e6:	8b 45 ec             	mov    -0x14(%ebp),%eax
    46e9:	89 44 24 10          	mov    %eax,0x10(%esp)
    46ed:	c7 04 24 30 00 00 00 	movl   $0x30,(%esp)
    46f4:	e8 2d d2 ff ff       	call   1926 <IDT_WriteIDT>
    46f9:	b8 86 03 00 00       	mov    $0x386,%eax
    46fe:	89 45 e8             	mov    %eax,-0x18(%ebp)
    4701:	8b 45 e0             	mov    -0x20(%ebp),%eax
    4704:	89 44 24 04          	mov    %eax,0x4(%esp)
    4708:	8b 45 e4             	mov    -0x1c(%ebp),%eax
    470b:	89 44 24 08          	mov    %eax,0x8(%esp)
    470f:	8b 45 e8             	mov    -0x18(%ebp),%eax
    4712:	89 44 24 0c          	mov    %eax,0xc(%esp)
    4716:	8b 45 ec             	mov    -0x14(%ebp),%eax
    4719:	89 44 24 10          	mov    %eax,0x10(%esp)
    471d:	c7 04 24 31 00 00 00 	movl   $0x31,(%esp)
    4724:	e8 fd d1 ff ff       	call   1926 <IDT_WriteIDT>
    4729:	b8 8c 03 00 00       	mov    $0x38c,%eax
    472e:	89 45 e8             	mov    %eax,-0x18(%ebp)
    4731:	8b 45 e0             	mov    -0x20(%ebp),%eax
    4734:	89 44 24 04          	mov    %eax,0x4(%esp)
    4738:	8b 45 e4             	mov    -0x1c(%ebp),%eax
    473b:	89 44 24 08          	mov    %eax,0x8(%esp)
    473f:	8b 45 e8             	mov    -0x18(%ebp),%eax
    4742:	89 44 24 0c          	mov    %eax,0xc(%esp)
    4746:	8b 45 ec             	mov    -0x14(%ebp),%eax
    4749:	89 44 24 10          	mov    %eax,0x10(%esp)
    474d:	c7 04 24 32 00 00 00 	movl   $0x32,(%esp)
    4754:	e8 cd d1 ff ff       	call   1926 <IDT_WriteIDT>
    4759:	b8 92 03 00 00       	mov    $0x392,%eax
    475e:	89 45 e8             	mov    %eax,-0x18(%ebp)
    4761:	8b 45 e0             	mov    -0x20(%ebp),%eax
    4764:	89 44 24 04          	mov    %eax,0x4(%esp)
    4768:	8b 45 e4             	mov    -0x1c(%ebp),%eax
    476b:	89 44 24 08          	mov    %eax,0x8(%esp)
    476f:	8b 45 e8             	mov    -0x18(%ebp),%eax
    4772:	89 44 24 0c          	mov    %eax,0xc(%esp)
    4776:	8b 45 ec             	mov    -0x14(%ebp),%eax
    4779:	89 44 24 10          	mov    %eax,0x10(%esp)
    477d:	c7 04 24 33 00 00 00 	movl   $0x33,(%esp)
    4784:	e8 9d d1 ff ff       	call   1926 <IDT_WriteIDT>
    4789:	b8 98 03 00 00       	mov    $0x398,%eax
    478e:	89 45 e8             	mov    %eax,-0x18(%ebp)
    4791:	8b 45 e0             	mov    -0x20(%ebp),%eax
    4794:	89 44 24 04          	mov    %eax,0x4(%esp)
    4798:	8b 45 e4             	mov    -0x1c(%ebp),%eax
    479b:	89 44 24 08          	mov    %eax,0x8(%esp)
    479f:	8b 45 e8             	mov    -0x18(%ebp),%eax
    47a2:	89 44 24 0c          	mov    %eax,0xc(%esp)
    47a6:	8b 45 ec             	mov    -0x14(%ebp),%eax
    47a9:	89 44 24 10          	mov    %eax,0x10(%esp)
    47ad:	c7 04 24 34 00 00 00 	movl   $0x34,(%esp)
    47b4:	e8 6d d1 ff ff       	call   1926 <IDT_WriteIDT>
    47b9:	b8 9e 03 00 00       	mov    $0x39e,%eax
    47be:	89 45 e8             	mov    %eax,-0x18(%ebp)
    47c1:	8b 45 e0             	mov    -0x20(%ebp),%eax
    47c4:	89 44 24 04          	mov    %eax,0x4(%esp)
    47c8:	8b 45 e4             	mov    -0x1c(%ebp),%eax
    47cb:	89 44 24 08          	mov    %eax,0x8(%esp)
    47cf:	8b 45 e8             	mov    -0x18(%ebp),%eax
    47d2:	89 44 24 0c          	mov    %eax,0xc(%esp)
    47d6:	8b 45 ec             	mov    -0x14(%ebp),%eax
    47d9:	89 44 24 10          	mov    %eax,0x10(%esp)
    47dd:	c7 04 24 35 00 00 00 	movl   $0x35,(%esp)
    47e4:	e8 3d d1 ff ff       	call   1926 <IDT_WriteIDT>
    47e9:	b8 a4 03 00 00       	mov    $0x3a4,%eax
    47ee:	89 45 e8             	mov    %eax,-0x18(%ebp)
    47f1:	8b 45 e0             	mov    -0x20(%ebp),%eax
    47f4:	89 44 24 04          	mov    %eax,0x4(%esp)
    47f8:	8b 45 e4             	mov    -0x1c(%ebp),%eax
    47fb:	89 44 24 08          	mov    %eax,0x8(%esp)
    47ff:	8b 45 e8             	mov    -0x18(%ebp),%eax
    4802:	89 44 24 0c          	mov    %eax,0xc(%esp)
    4806:	8b 45 ec             	mov    -0x14(%ebp),%eax
    4809:	89 44 24 10          	mov    %eax,0x10(%esp)
    480d:	c7 04 24 36 00 00 00 	movl   $0x36,(%esp)
    4814:	e8 0d d1 ff ff       	call   1926 <IDT_WriteIDT>
    4819:	b8 aa 03 00 00       	mov    $0x3aa,%eax
    481e:	89 45 e8             	mov    %eax,-0x18(%ebp)
    4821:	8b 45 e0             	mov    -0x20(%ebp),%eax
    4824:	89 44 24 04          	mov    %eax,0x4(%esp)
    4828:	8b 45 e4             	mov    -0x1c(%ebp),%eax
    482b:	89 44 24 08          	mov    %eax,0x8(%esp)
    482f:	8b 45 e8             	mov    -0x18(%ebp),%eax
    4832:	89 44 24 0c          	mov    %eax,0xc(%esp)
    4836:	8b 45 ec             	mov    -0x14(%ebp),%eax
    4839:	89 44 24 10          	mov    %eax,0x10(%esp)
    483d:	c7 04 24 37 00 00 00 	movl   $0x37,(%esp)
    4844:	e8 dd d0 ff ff       	call   1926 <IDT_WriteIDT>
    4849:	b8 b0 03 00 00       	mov    $0x3b0,%eax
    484e:	89 45 e8             	mov    %eax,-0x18(%ebp)
    4851:	8b 45 e0             	mov    -0x20(%ebp),%eax
    4854:	89 44 24 04          	mov    %eax,0x4(%esp)
    4858:	8b 45 e4             	mov    -0x1c(%ebp),%eax
    485b:	89 44 24 08          	mov    %eax,0x8(%esp)
    485f:	8b 45 e8             	mov    -0x18(%ebp),%eax
    4862:	89 44 24 0c          	mov    %eax,0xc(%esp)
    4866:	8b 45 ec             	mov    -0x14(%ebp),%eax
    4869:	89 44 24 10          	mov    %eax,0x10(%esp)
    486d:	c7 04 24 38 00 00 00 	movl   $0x38,(%esp)
    4874:	e8 ad d0 ff ff       	call   1926 <IDT_WriteIDT>
    4879:	b8 b6 03 00 00       	mov    $0x3b6,%eax
    487e:	89 45 e8             	mov    %eax,-0x18(%ebp)
    4881:	8b 45 e0             	mov    -0x20(%ebp),%eax
    4884:	89 44 24 04          	mov    %eax,0x4(%esp)
    4888:	8b 45 e4             	mov    -0x1c(%ebp),%eax
    488b:	89 44 24 08          	mov    %eax,0x8(%esp)
    488f:	8b 45 e8             	mov    -0x18(%ebp),%eax
    4892:	89 44 24 0c          	mov    %eax,0xc(%esp)
    4896:	8b 45 ec             	mov    -0x14(%ebp),%eax
    4899:	89 44 24 10          	mov    %eax,0x10(%esp)
    489d:	c7 04 24 39 00 00 00 	movl   $0x39,(%esp)
    48a4:	e8 7d d0 ff ff       	call   1926 <IDT_WriteIDT>
    48a9:	b8 bc 03 00 00       	mov    $0x3bc,%eax
    48ae:	89 45 e8             	mov    %eax,-0x18(%ebp)
    48b1:	8b 45 e0             	mov    -0x20(%ebp),%eax
    48b4:	89 44 24 04          	mov    %eax,0x4(%esp)
    48b8:	8b 45 e4             	mov    -0x1c(%ebp),%eax
    48bb:	89 44 24 08          	mov    %eax,0x8(%esp)
    48bf:	8b 45 e8             	mov    -0x18(%ebp),%eax
    48c2:	89 44 24 0c          	mov    %eax,0xc(%esp)
    48c6:	8b 45 ec             	mov    -0x14(%ebp),%eax
    48c9:	89 44 24 10          	mov    %eax,0x10(%esp)
    48cd:	c7 04 24 3a 00 00 00 	movl   $0x3a,(%esp)
    48d4:	e8 4d d0 ff ff       	call   1926 <IDT_WriteIDT>
    48d9:	b8 c2 03 00 00       	mov    $0x3c2,%eax
    48de:	89 45 e8             	mov    %eax,-0x18(%ebp)
    48e1:	8b 45 e0             	mov    -0x20(%ebp),%eax
    48e4:	89 44 24 04          	mov    %eax,0x4(%esp)
    48e8:	8b 45 e4             	mov    -0x1c(%ebp),%eax
    48eb:	89 44 24 08          	mov    %eax,0x8(%esp)
    48ef:	8b 45 e8             	mov    -0x18(%ebp),%eax
    48f2:	89 44 24 0c          	mov    %eax,0xc(%esp)
    48f6:	8b 45 ec             	mov    -0x14(%ebp),%eax
    48f9:	89 44 24 10          	mov    %eax,0x10(%esp)
    48fd:	c7 04 24 3b 00 00 00 	movl   $0x3b,(%esp)
    4904:	e8 1d d0 ff ff       	call   1926 <IDT_WriteIDT>
    4909:	b8 c8 03 00 00       	mov    $0x3c8,%eax
    490e:	89 45 e8             	mov    %eax,-0x18(%ebp)
    4911:	8b 45 e0             	mov    -0x20(%ebp),%eax
    4914:	89 44 24 04          	mov    %eax,0x4(%esp)
    4918:	8b 45 e4             	mov    -0x1c(%ebp),%eax
    491b:	89 44 24 08          	mov    %eax,0x8(%esp)
    491f:	8b 45 e8             	mov    -0x18(%ebp),%eax
    4922:	89 44 24 0c          	mov    %eax,0xc(%esp)
    4926:	8b 45 ec             	mov    -0x14(%ebp),%eax
    4929:	89 44 24 10          	mov    %eax,0x10(%esp)
    492d:	c7 04 24 3c 00 00 00 	movl   $0x3c,(%esp)
    4934:	e8 ed cf ff ff       	call   1926 <IDT_WriteIDT>
    4939:	b8 ce 03 00 00       	mov    $0x3ce,%eax
    493e:	89 45 e8             	mov    %eax,-0x18(%ebp)
    4941:	8b 45 e0             	mov    -0x20(%ebp),%eax
    4944:	89 44 24 04          	mov    %eax,0x4(%esp)
    4948:	8b 45 e4             	mov    -0x1c(%ebp),%eax
    494b:	89 44 24 08          	mov    %eax,0x8(%esp)
    494f:	8b 45 e8             	mov    -0x18(%ebp),%eax
    4952:	89 44 24 0c          	mov    %eax,0xc(%esp)
    4956:	8b 45 ec             	mov    -0x14(%ebp),%eax
    4959:	89 44 24 10          	mov    %eax,0x10(%esp)
    495d:	c7 04 24 3d 00 00 00 	movl   $0x3d,(%esp)
    4964:	e8 bd cf ff ff       	call   1926 <IDT_WriteIDT>
    4969:	b8 d4 03 00 00       	mov    $0x3d4,%eax
    496e:	89 45 e8             	mov    %eax,-0x18(%ebp)
    4971:	8b 45 e0             	mov    -0x20(%ebp),%eax
    4974:	89 44 24 04          	mov    %eax,0x4(%esp)
    4978:	8b 45 e4             	mov    -0x1c(%ebp),%eax
    497b:	89 44 24 08          	mov    %eax,0x8(%esp)
    497f:	8b 45 e8             	mov    -0x18(%ebp),%eax
    4982:	89 44 24 0c          	mov    %eax,0xc(%esp)
    4986:	8b 45 ec             	mov    -0x14(%ebp),%eax
    4989:	89 44 24 10          	mov    %eax,0x10(%esp)
    498d:	c7 04 24 3e 00 00 00 	movl   $0x3e,(%esp)
    4994:	e8 8d cf ff ff       	call   1926 <IDT_WriteIDT>
    4999:	b8 da 03 00 00       	mov    $0x3da,%eax
    499e:	89 45 e8             	mov    %eax,-0x18(%ebp)
    49a1:	8b 45 e0             	mov    -0x20(%ebp),%eax
    49a4:	89 44 24 04          	mov    %eax,0x4(%esp)
    49a8:	8b 45 e4             	mov    -0x1c(%ebp),%eax
    49ab:	89 44 24 08          	mov    %eax,0x8(%esp)
    49af:	8b 45 e8             	mov    -0x18(%ebp),%eax
    49b2:	89 44 24 0c          	mov    %eax,0xc(%esp)
    49b6:	8b 45 ec             	mov    -0x14(%ebp),%eax
    49b9:	89 44 24 10          	mov    %eax,0x10(%esp)
    49bd:	c7 04 24 3f 00 00 00 	movl   $0x3f,(%esp)
    49c4:	e8 5d cf ff ff       	call   1926 <IDT_WriteIDT>
    49c9:	b8 e0 03 00 00       	mov    $0x3e0,%eax
    49ce:	89 45 e8             	mov    %eax,-0x18(%ebp)
    49d1:	8b 45 e0             	mov    -0x20(%ebp),%eax
    49d4:	89 44 24 04          	mov    %eax,0x4(%esp)
    49d8:	8b 45 e4             	mov    -0x1c(%ebp),%eax
    49db:	89 44 24 08          	mov    %eax,0x8(%esp)
    49df:	8b 45 e8             	mov    -0x18(%ebp),%eax
    49e2:	89 44 24 0c          	mov    %eax,0xc(%esp)
    49e6:	8b 45 ec             	mov    -0x14(%ebp),%eax
    49e9:	89 44 24 10          	mov    %eax,0x10(%esp)
    49ed:	c7 04 24 40 00 00 00 	movl   $0x40,(%esp)
    49f4:	e8 2d cf ff ff       	call   1926 <IDT_WriteIDT>
    49f9:	b8 e6 03 00 00       	mov    $0x3e6,%eax
    49fe:	89 45 e8             	mov    %eax,-0x18(%ebp)
    4a01:	8b 45 e0             	mov    -0x20(%ebp),%eax
    4a04:	89 44 24 04          	mov    %eax,0x4(%esp)
    4a08:	8b 45 e4             	mov    -0x1c(%ebp),%eax
    4a0b:	89 44 24 08          	mov    %eax,0x8(%esp)
    4a0f:	8b 45 e8             	mov    -0x18(%ebp),%eax
    4a12:	89 44 24 0c          	mov    %eax,0xc(%esp)
    4a16:	8b 45 ec             	mov    -0x14(%ebp),%eax
    4a19:	89 44 24 10          	mov    %eax,0x10(%esp)
    4a1d:	c7 04 24 41 00 00 00 	movl   $0x41,(%esp)
    4a24:	e8 fd ce ff ff       	call   1926 <IDT_WriteIDT>
    4a29:	b8 ec 03 00 00       	mov    $0x3ec,%eax
    4a2e:	89 45 e8             	mov    %eax,-0x18(%ebp)
    4a31:	8b 45 e0             	mov    -0x20(%ebp),%eax
    4a34:	89 44 24 04          	mov    %eax,0x4(%esp)
    4a38:	8b 45 e4             	mov    -0x1c(%ebp),%eax
    4a3b:	89 44 24 08          	mov    %eax,0x8(%esp)
    4a3f:	8b 45 e8             	mov    -0x18(%ebp),%eax
    4a42:	89 44 24 0c          	mov    %eax,0xc(%esp)
    4a46:	8b 45 ec             	mov    -0x14(%ebp),%eax
    4a49:	89 44 24 10          	mov    %eax,0x10(%esp)
    4a4d:	c7 04 24 42 00 00 00 	movl   $0x42,(%esp)
    4a54:	e8 cd ce ff ff       	call   1926 <IDT_WriteIDT>
    4a59:	b8 f2 03 00 00       	mov    $0x3f2,%eax
    4a5e:	89 45 e8             	mov    %eax,-0x18(%ebp)
    4a61:	8b 45 e0             	mov    -0x20(%ebp),%eax
    4a64:	89 44 24 04          	mov    %eax,0x4(%esp)
    4a68:	8b 45 e4             	mov    -0x1c(%ebp),%eax
    4a6b:	89 44 24 08          	mov    %eax,0x8(%esp)
    4a6f:	8b 45 e8             	mov    -0x18(%ebp),%eax
    4a72:	89 44 24 0c          	mov    %eax,0xc(%esp)
    4a76:	8b 45 ec             	mov    -0x14(%ebp),%eax
    4a79:	89 44 24 10          	mov    %eax,0x10(%esp)
    4a7d:	c7 04 24 43 00 00 00 	movl   $0x43,(%esp)
    4a84:	e8 9d ce ff ff       	call   1926 <IDT_WriteIDT>
    4a89:	b8 f8 03 00 00       	mov    $0x3f8,%eax
    4a8e:	89 45 e8             	mov    %eax,-0x18(%ebp)
    4a91:	8b 45 e0             	mov    -0x20(%ebp),%eax
    4a94:	89 44 24 04          	mov    %eax,0x4(%esp)
    4a98:	8b 45 e4             	mov    -0x1c(%ebp),%eax
    4a9b:	89 44 24 08          	mov    %eax,0x8(%esp)
    4a9f:	8b 45 e8             	mov    -0x18(%ebp),%eax
    4aa2:	89 44 24 0c          	mov    %eax,0xc(%esp)
    4aa6:	8b 45 ec             	mov    -0x14(%ebp),%eax
    4aa9:	89 44 24 10          	mov    %eax,0x10(%esp)
    4aad:	c7 04 24 44 00 00 00 	movl   $0x44,(%esp)
    4ab4:	e8 6d ce ff ff       	call   1926 <IDT_WriteIDT>
    4ab9:	b8 fe 03 00 00       	mov    $0x3fe,%eax
    4abe:	89 45 e8             	mov    %eax,-0x18(%ebp)
    4ac1:	8b 45 e0             	mov    -0x20(%ebp),%eax
    4ac4:	89 44 24 04          	mov    %eax,0x4(%esp)
    4ac8:	8b 45 e4             	mov    -0x1c(%ebp),%eax
    4acb:	89 44 24 08          	mov    %eax,0x8(%esp)
    4acf:	8b 45 e8             	mov    -0x18(%ebp),%eax
    4ad2:	89 44 24 0c          	mov    %eax,0xc(%esp)
    4ad6:	8b 45 ec             	mov    -0x14(%ebp),%eax
    4ad9:	89 44 24 10          	mov    %eax,0x10(%esp)
    4add:	c7 04 24 45 00 00 00 	movl   $0x45,(%esp)
    4ae4:	e8 3d ce ff ff       	call   1926 <IDT_WriteIDT>
    4ae9:	b8 04 04 00 00       	mov    $0x404,%eax
    4aee:	89 45 e8             	mov    %eax,-0x18(%ebp)
    4af1:	8b 45 e0             	mov    -0x20(%ebp),%eax
    4af4:	89 44 24 04          	mov    %eax,0x4(%esp)
    4af8:	8b 45 e4             	mov    -0x1c(%ebp),%eax
    4afb:	89 44 24 08          	mov    %eax,0x8(%esp)
    4aff:	8b 45 e8             	mov    -0x18(%ebp),%eax
    4b02:	89 44 24 0c          	mov    %eax,0xc(%esp)
    4b06:	8b 45 ec             	mov    -0x14(%ebp),%eax
    4b09:	89 44 24 10          	mov    %eax,0x10(%esp)
    4b0d:	c7 04 24 46 00 00 00 	movl   $0x46,(%esp)
    4b14:	e8 0d ce ff ff       	call   1926 <IDT_WriteIDT>
    4b19:	b8 0a 04 00 00       	mov    $0x40a,%eax
    4b1e:	89 45 e8             	mov    %eax,-0x18(%ebp)
    4b21:	8b 45 e0             	mov    -0x20(%ebp),%eax
    4b24:	89 44 24 04          	mov    %eax,0x4(%esp)
    4b28:	8b 45 e4             	mov    -0x1c(%ebp),%eax
    4b2b:	89 44 24 08          	mov    %eax,0x8(%esp)
    4b2f:	8b 45 e8             	mov    -0x18(%ebp),%eax
    4b32:	89 44 24 0c          	mov    %eax,0xc(%esp)
    4b36:	8b 45 ec             	mov    -0x14(%ebp),%eax
    4b39:	89 44 24 10          	mov    %eax,0x10(%esp)
    4b3d:	c7 04 24 47 00 00 00 	movl   $0x47,(%esp)
    4b44:	e8 dd cd ff ff       	call   1926 <IDT_WriteIDT>
    4b49:	b8 10 04 00 00       	mov    $0x410,%eax
    4b4e:	89 45 e8             	mov    %eax,-0x18(%ebp)
    4b51:	8b 45 e0             	mov    -0x20(%ebp),%eax
    4b54:	89 44 24 04          	mov    %eax,0x4(%esp)
    4b58:	8b 45 e4             	mov    -0x1c(%ebp),%eax
    4b5b:	89 44 24 08          	mov    %eax,0x8(%esp)
    4b5f:	8b 45 e8             	mov    -0x18(%ebp),%eax
    4b62:	89 44 24 0c          	mov    %eax,0xc(%esp)
    4b66:	8b 45 ec             	mov    -0x14(%ebp),%eax
    4b69:	89 44 24 10          	mov    %eax,0x10(%esp)
    4b6d:	c7 04 24 48 00 00 00 	movl   $0x48,(%esp)
    4b74:	e8 ad cd ff ff       	call   1926 <IDT_WriteIDT>
    4b79:	b8 16 04 00 00       	mov    $0x416,%eax
    4b7e:	89 45 e8             	mov    %eax,-0x18(%ebp)
    4b81:	8b 45 e0             	mov    -0x20(%ebp),%eax
    4b84:	89 44 24 04          	mov    %eax,0x4(%esp)
    4b88:	8b 45 e4             	mov    -0x1c(%ebp),%eax
    4b8b:	89 44 24 08          	mov    %eax,0x8(%esp)
    4b8f:	8b 45 e8             	mov    -0x18(%ebp),%eax
    4b92:	89 44 24 0c          	mov    %eax,0xc(%esp)
    4b96:	8b 45 ec             	mov    -0x14(%ebp),%eax
    4b99:	89 44 24 10          	mov    %eax,0x10(%esp)
    4b9d:	c7 04 24 49 00 00 00 	movl   $0x49,(%esp)
    4ba4:	e8 7d cd ff ff       	call   1926 <IDT_WriteIDT>
    4ba9:	b8 1c 04 00 00       	mov    $0x41c,%eax
    4bae:	89 45 e8             	mov    %eax,-0x18(%ebp)
    4bb1:	8b 45 e0             	mov    -0x20(%ebp),%eax
    4bb4:	89 44 24 04          	mov    %eax,0x4(%esp)
    4bb8:	8b 45 e4             	mov    -0x1c(%ebp),%eax
    4bbb:	89 44 24 08          	mov    %eax,0x8(%esp)
    4bbf:	8b 45 e8             	mov    -0x18(%ebp),%eax
    4bc2:	89 44 24 0c          	mov    %eax,0xc(%esp)
    4bc6:	8b 45 ec             	mov    -0x14(%ebp),%eax
    4bc9:	89 44 24 10          	mov    %eax,0x10(%esp)
    4bcd:	c7 04 24 4a 00 00 00 	movl   $0x4a,(%esp)
    4bd4:	e8 4d cd ff ff       	call   1926 <IDT_WriteIDT>
    4bd9:	b8 22 04 00 00       	mov    $0x422,%eax
    4bde:	89 45 e8             	mov    %eax,-0x18(%ebp)
    4be1:	8b 45 e0             	mov    -0x20(%ebp),%eax
    4be4:	89 44 24 04          	mov    %eax,0x4(%esp)
    4be8:	8b 45 e4             	mov    -0x1c(%ebp),%eax
    4beb:	89 44 24 08          	mov    %eax,0x8(%esp)
    4bef:	8b 45 e8             	mov    -0x18(%ebp),%eax
    4bf2:	89 44 24 0c          	mov    %eax,0xc(%esp)
    4bf6:	8b 45 ec             	mov    -0x14(%ebp),%eax
    4bf9:	89 44 24 10          	mov    %eax,0x10(%esp)
    4bfd:	c7 04 24 4b 00 00 00 	movl   $0x4b,(%esp)
    4c04:	e8 1d cd ff ff       	call   1926 <IDT_WriteIDT>
    4c09:	b8 28 04 00 00       	mov    $0x428,%eax
    4c0e:	89 45 e8             	mov    %eax,-0x18(%ebp)
    4c11:	8b 45 e0             	mov    -0x20(%ebp),%eax
    4c14:	89 44 24 04          	mov    %eax,0x4(%esp)
    4c18:	8b 45 e4             	mov    -0x1c(%ebp),%eax
    4c1b:	89 44 24 08          	mov    %eax,0x8(%esp)
    4c1f:	8b 45 e8             	mov    -0x18(%ebp),%eax
    4c22:	89 44 24 0c          	mov    %eax,0xc(%esp)
    4c26:	8b 45 ec             	mov    -0x14(%ebp),%eax
    4c29:	89 44 24 10          	mov    %eax,0x10(%esp)
    4c2d:	c7 04 24 4c 00 00 00 	movl   $0x4c,(%esp)
    4c34:	e8 ed cc ff ff       	call   1926 <IDT_WriteIDT>
    4c39:	b8 2e 04 00 00       	mov    $0x42e,%eax
    4c3e:	89 45 e8             	mov    %eax,-0x18(%ebp)
    4c41:	8b 45 e0             	mov    -0x20(%ebp),%eax
    4c44:	89 44 24 04          	mov    %eax,0x4(%esp)
    4c48:	8b 45 e4             	mov    -0x1c(%ebp),%eax
    4c4b:	89 44 24 08          	mov    %eax,0x8(%esp)
    4c4f:	8b 45 e8             	mov    -0x18(%ebp),%eax
    4c52:	89 44 24 0c          	mov    %eax,0xc(%esp)
    4c56:	8b 45 ec             	mov    -0x14(%ebp),%eax
    4c59:	89 44 24 10          	mov    %eax,0x10(%esp)
    4c5d:	c7 04 24 4d 00 00 00 	movl   $0x4d,(%esp)
    4c64:	e8 bd cc ff ff       	call   1926 <IDT_WriteIDT>
    4c69:	b8 34 04 00 00       	mov    $0x434,%eax
    4c6e:	89 45 e8             	mov    %eax,-0x18(%ebp)
    4c71:	8b 45 e0             	mov    -0x20(%ebp),%eax
    4c74:	89 44 24 04          	mov    %eax,0x4(%esp)
    4c78:	8b 45 e4             	mov    -0x1c(%ebp),%eax
    4c7b:	89 44 24 08          	mov    %eax,0x8(%esp)
    4c7f:	8b 45 e8             	mov    -0x18(%ebp),%eax
    4c82:	89 44 24 0c          	mov    %eax,0xc(%esp)
    4c86:	8b 45 ec             	mov    -0x14(%ebp),%eax
    4c89:	89 44 24 10          	mov    %eax,0x10(%esp)
    4c8d:	c7 04 24 4e 00 00 00 	movl   $0x4e,(%esp)
    4c94:	e8 8d cc ff ff       	call   1926 <IDT_WriteIDT>
    4c99:	b8 3a 04 00 00       	mov    $0x43a,%eax
    4c9e:	89 45 e8             	mov    %eax,-0x18(%ebp)
    4ca1:	8b 45 e0             	mov    -0x20(%ebp),%eax
    4ca4:	89 44 24 04          	mov    %eax,0x4(%esp)
    4ca8:	8b 45 e4             	mov    -0x1c(%ebp),%eax
    4cab:	89 44 24 08          	mov    %eax,0x8(%esp)
    4caf:	8b 45 e8             	mov    -0x18(%ebp),%eax
    4cb2:	89 44 24 0c          	mov    %eax,0xc(%esp)
    4cb6:	8b 45 ec             	mov    -0x14(%ebp),%eax
    4cb9:	89 44 24 10          	mov    %eax,0x10(%esp)
    4cbd:	c7 04 24 4f 00 00 00 	movl   $0x4f,(%esp)
    4cc4:	e8 5d cc ff ff       	call   1926 <IDT_WriteIDT>
    4cc9:	b8 40 04 00 00       	mov    $0x440,%eax
    4cce:	89 45 e8             	mov    %eax,-0x18(%ebp)
    4cd1:	8b 45 e0             	mov    -0x20(%ebp),%eax
    4cd4:	89 44 24 04          	mov    %eax,0x4(%esp)
    4cd8:	8b 45 e4             	mov    -0x1c(%ebp),%eax
    4cdb:	89 44 24 08          	mov    %eax,0x8(%esp)
    4cdf:	8b 45 e8             	mov    -0x18(%ebp),%eax
    4ce2:	89 44 24 0c          	mov    %eax,0xc(%esp)
    4ce6:	8b 45 ec             	mov    -0x14(%ebp),%eax
    4ce9:	89 44 24 10          	mov    %eax,0x10(%esp)
    4ced:	c7 04 24 50 00 00 00 	movl   $0x50,(%esp)
    4cf4:	e8 2d cc ff ff       	call   1926 <IDT_WriteIDT>
    4cf9:	b8 46 04 00 00       	mov    $0x446,%eax
    4cfe:	89 45 e8             	mov    %eax,-0x18(%ebp)
    4d01:	8b 45 e0             	mov    -0x20(%ebp),%eax
    4d04:	89 44 24 04          	mov    %eax,0x4(%esp)
    4d08:	8b 45 e4             	mov    -0x1c(%ebp),%eax
    4d0b:	89 44 24 08          	mov    %eax,0x8(%esp)
    4d0f:	8b 45 e8             	mov    -0x18(%ebp),%eax
    4d12:	89 44 24 0c          	mov    %eax,0xc(%esp)
    4d16:	8b 45 ec             	mov    -0x14(%ebp),%eax
    4d19:	89 44 24 10          	mov    %eax,0x10(%esp)
    4d1d:	c7 04 24 51 00 00 00 	movl   $0x51,(%esp)
    4d24:	e8 fd cb ff ff       	call   1926 <IDT_WriteIDT>
    4d29:	b8 4c 04 00 00       	mov    $0x44c,%eax
    4d2e:	89 45 e8             	mov    %eax,-0x18(%ebp)
    4d31:	8b 45 e0             	mov    -0x20(%ebp),%eax
    4d34:	89 44 24 04          	mov    %eax,0x4(%esp)
    4d38:	8b 45 e4             	mov    -0x1c(%ebp),%eax
    4d3b:	89 44 24 08          	mov    %eax,0x8(%esp)
    4d3f:	8b 45 e8             	mov    -0x18(%ebp),%eax
    4d42:	89 44 24 0c          	mov    %eax,0xc(%esp)
    4d46:	8b 45 ec             	mov    -0x14(%ebp),%eax
    4d49:	89 44 24 10          	mov    %eax,0x10(%esp)
    4d4d:	c7 04 24 52 00 00 00 	movl   $0x52,(%esp)
    4d54:	e8 cd cb ff ff       	call   1926 <IDT_WriteIDT>
    4d59:	b8 52 04 00 00       	mov    $0x452,%eax
    4d5e:	89 45 e8             	mov    %eax,-0x18(%ebp)
    4d61:	8b 45 e0             	mov    -0x20(%ebp),%eax
    4d64:	89 44 24 04          	mov    %eax,0x4(%esp)
    4d68:	8b 45 e4             	mov    -0x1c(%ebp),%eax
    4d6b:	89 44 24 08          	mov    %eax,0x8(%esp)
    4d6f:	8b 45 e8             	mov    -0x18(%ebp),%eax
    4d72:	89 44 24 0c          	mov    %eax,0xc(%esp)
    4d76:	8b 45 ec             	mov    -0x14(%ebp),%eax
    4d79:	89 44 24 10          	mov    %eax,0x10(%esp)
    4d7d:	c7 04 24 53 00 00 00 	movl   $0x53,(%esp)
    4d84:	e8 9d cb ff ff       	call   1926 <IDT_WriteIDT>
    4d89:	b8 58 04 00 00       	mov    $0x458,%eax
    4d8e:	89 45 e8             	mov    %eax,-0x18(%ebp)
    4d91:	8b 45 e0             	mov    -0x20(%ebp),%eax
    4d94:	89 44 24 04          	mov    %eax,0x4(%esp)
    4d98:	8b 45 e4             	mov    -0x1c(%ebp),%eax
    4d9b:	89 44 24 08          	mov    %eax,0x8(%esp)
    4d9f:	8b 45 e8             	mov    -0x18(%ebp),%eax
    4da2:	89 44 24 0c          	mov    %eax,0xc(%esp)
    4da6:	8b 45 ec             	mov    -0x14(%ebp),%eax
    4da9:	89 44 24 10          	mov    %eax,0x10(%esp)
    4dad:	c7 04 24 54 00 00 00 	movl   $0x54,(%esp)
    4db4:	e8 6d cb ff ff       	call   1926 <IDT_WriteIDT>
    4db9:	b8 5e 04 00 00       	mov    $0x45e,%eax
    4dbe:	89 45 e8             	mov    %eax,-0x18(%ebp)
    4dc1:	8b 45 e0             	mov    -0x20(%ebp),%eax
    4dc4:	89 44 24 04          	mov    %eax,0x4(%esp)
    4dc8:	8b 45 e4             	mov    -0x1c(%ebp),%eax
    4dcb:	89 44 24 08          	mov    %eax,0x8(%esp)
    4dcf:	8b 45 e8             	mov    -0x18(%ebp),%eax
    4dd2:	89 44 24 0c          	mov    %eax,0xc(%esp)
    4dd6:	8b 45 ec             	mov    -0x14(%ebp),%eax
    4dd9:	89 44 24 10          	mov    %eax,0x10(%esp)
    4ddd:	c7 04 24 55 00 00 00 	movl   $0x55,(%esp)
    4de4:	e8 3d cb ff ff       	call   1926 <IDT_WriteIDT>
    4de9:	b8 64 04 00 00       	mov    $0x464,%eax
    4dee:	89 45 e8             	mov    %eax,-0x18(%ebp)
    4df1:	8b 45 e0             	mov    -0x20(%ebp),%eax
    4df4:	89 44 24 04          	mov    %eax,0x4(%esp)
    4df8:	8b 45 e4             	mov    -0x1c(%ebp),%eax
    4dfb:	89 44 24 08          	mov    %eax,0x8(%esp)
    4dff:	8b 45 e8             	mov    -0x18(%ebp),%eax
    4e02:	89 44 24 0c          	mov    %eax,0xc(%esp)
    4e06:	8b 45 ec             	mov    -0x14(%ebp),%eax
    4e09:	89 44 24 10          	mov    %eax,0x10(%esp)
    4e0d:	c7 04 24 56 00 00 00 	movl   $0x56,(%esp)
    4e14:	e8 0d cb ff ff       	call   1926 <IDT_WriteIDT>
    4e19:	b8 6a 04 00 00       	mov    $0x46a,%eax
    4e1e:	89 45 e8             	mov    %eax,-0x18(%ebp)
    4e21:	8b 45 e0             	mov    -0x20(%ebp),%eax
    4e24:	89 44 24 04          	mov    %eax,0x4(%esp)
    4e28:	8b 45 e4             	mov    -0x1c(%ebp),%eax
    4e2b:	89 44 24 08          	mov    %eax,0x8(%esp)
    4e2f:	8b 45 e8             	mov    -0x18(%ebp),%eax
    4e32:	89 44 24 0c          	mov    %eax,0xc(%esp)
    4e36:	8b 45 ec             	mov    -0x14(%ebp),%eax
    4e39:	89 44 24 10          	mov    %eax,0x10(%esp)
    4e3d:	c7 04 24 57 00 00 00 	movl   $0x57,(%esp)
    4e44:	e8 dd ca ff ff       	call   1926 <IDT_WriteIDT>
    4e49:	b8 70 04 00 00       	mov    $0x470,%eax
    4e4e:	89 45 e8             	mov    %eax,-0x18(%ebp)
    4e51:	8b 45 e0             	mov    -0x20(%ebp),%eax
    4e54:	89 44 24 04          	mov    %eax,0x4(%esp)
    4e58:	8b 45 e4             	mov    -0x1c(%ebp),%eax
    4e5b:	89 44 24 08          	mov    %eax,0x8(%esp)
    4e5f:	8b 45 e8             	mov    -0x18(%ebp),%eax
    4e62:	89 44 24 0c          	mov    %eax,0xc(%esp)
    4e66:	8b 45 ec             	mov    -0x14(%ebp),%eax
    4e69:	89 44 24 10          	mov    %eax,0x10(%esp)
    4e6d:	c7 04 24 58 00 00 00 	movl   $0x58,(%esp)
    4e74:	e8 ad ca ff ff       	call   1926 <IDT_WriteIDT>
    4e79:	b8 76 04 00 00       	mov    $0x476,%eax
    4e7e:	89 45 e8             	mov    %eax,-0x18(%ebp)
    4e81:	8b 45 e0             	mov    -0x20(%ebp),%eax
    4e84:	89 44 24 04          	mov    %eax,0x4(%esp)
    4e88:	8b 45 e4             	mov    -0x1c(%ebp),%eax
    4e8b:	89 44 24 08          	mov    %eax,0x8(%esp)
    4e8f:	8b 45 e8             	mov    -0x18(%ebp),%eax
    4e92:	89 44 24 0c          	mov    %eax,0xc(%esp)
    4e96:	8b 45 ec             	mov    -0x14(%ebp),%eax
    4e99:	89 44 24 10          	mov    %eax,0x10(%esp)
    4e9d:	c7 04 24 59 00 00 00 	movl   $0x59,(%esp)
    4ea4:	e8 7d ca ff ff       	call   1926 <IDT_WriteIDT>
    4ea9:	b8 7c 04 00 00       	mov    $0x47c,%eax
    4eae:	89 45 e8             	mov    %eax,-0x18(%ebp)
    4eb1:	8b 45 e0             	mov    -0x20(%ebp),%eax
    4eb4:	89 44 24 04          	mov    %eax,0x4(%esp)
    4eb8:	8b 45 e4             	mov    -0x1c(%ebp),%eax
    4ebb:	89 44 24 08          	mov    %eax,0x8(%esp)
    4ebf:	8b 45 e8             	mov    -0x18(%ebp),%eax
    4ec2:	89 44 24 0c          	mov    %eax,0xc(%esp)
    4ec6:	8b 45 ec             	mov    -0x14(%ebp),%eax
    4ec9:	89 44 24 10          	mov    %eax,0x10(%esp)
    4ecd:	c7 04 24 5a 00 00 00 	movl   $0x5a,(%esp)
    4ed4:	e8 4d ca ff ff       	call   1926 <IDT_WriteIDT>
    4ed9:	b8 82 04 00 00       	mov    $0x482,%eax
    4ede:	89 45 e8             	mov    %eax,-0x18(%ebp)
    4ee1:	8b 45 e0             	mov    -0x20(%ebp),%eax
    4ee4:	89 44 24 04          	mov    %eax,0x4(%esp)
    4ee8:	8b 45 e4             	mov    -0x1c(%ebp),%eax
    4eeb:	89 44 24 08          	mov    %eax,0x8(%esp)
    4eef:	8b 45 e8             	mov    -0x18(%ebp),%eax
    4ef2:	89 44 24 0c          	mov    %eax,0xc(%esp)
    4ef6:	8b 45 ec             	mov    -0x14(%ebp),%eax
    4ef9:	89 44 24 10          	mov    %eax,0x10(%esp)
    4efd:	c7 04 24 5b 00 00 00 	movl   $0x5b,(%esp)
    4f04:	e8 1d ca ff ff       	call   1926 <IDT_WriteIDT>
    4f09:	b8 88 04 00 00       	mov    $0x488,%eax
    4f0e:	89 45 e8             	mov    %eax,-0x18(%ebp)
    4f11:	8b 45 e0             	mov    -0x20(%ebp),%eax
    4f14:	89 44 24 04          	mov    %eax,0x4(%esp)
    4f18:	8b 45 e4             	mov    -0x1c(%ebp),%eax
    4f1b:	89 44 24 08          	mov    %eax,0x8(%esp)
    4f1f:	8b 45 e8             	mov    -0x18(%ebp),%eax
    4f22:	89 44 24 0c          	mov    %eax,0xc(%esp)
    4f26:	8b 45 ec             	mov    -0x14(%ebp),%eax
    4f29:	89 44 24 10          	mov    %eax,0x10(%esp)
    4f2d:	c7 04 24 5c 00 00 00 	movl   $0x5c,(%esp)
    4f34:	e8 ed c9 ff ff       	call   1926 <IDT_WriteIDT>
    4f39:	b8 8e 04 00 00       	mov    $0x48e,%eax
    4f3e:	89 45 e8             	mov    %eax,-0x18(%ebp)
    4f41:	8b 45 e0             	mov    -0x20(%ebp),%eax
    4f44:	89 44 24 04          	mov    %eax,0x4(%esp)
    4f48:	8b 45 e4             	mov    -0x1c(%ebp),%eax
    4f4b:	89 44 24 08          	mov    %eax,0x8(%esp)
    4f4f:	8b 45 e8             	mov    -0x18(%ebp),%eax
    4f52:	89 44 24 0c          	mov    %eax,0xc(%esp)
    4f56:	8b 45 ec             	mov    -0x14(%ebp),%eax
    4f59:	89 44 24 10          	mov    %eax,0x10(%esp)
    4f5d:	c7 04 24 5d 00 00 00 	movl   $0x5d,(%esp)
    4f64:	e8 bd c9 ff ff       	call   1926 <IDT_WriteIDT>
    4f69:	b8 94 04 00 00       	mov    $0x494,%eax
    4f6e:	89 45 e8             	mov    %eax,-0x18(%ebp)
    4f71:	8b 45 e0             	mov    -0x20(%ebp),%eax
    4f74:	89 44 24 04          	mov    %eax,0x4(%esp)
    4f78:	8b 45 e4             	mov    -0x1c(%ebp),%eax
    4f7b:	89 44 24 08          	mov    %eax,0x8(%esp)
    4f7f:	8b 45 e8             	mov    -0x18(%ebp),%eax
    4f82:	89 44 24 0c          	mov    %eax,0xc(%esp)
    4f86:	8b 45 ec             	mov    -0x14(%ebp),%eax
    4f89:	89 44 24 10          	mov    %eax,0x10(%esp)
    4f8d:	c7 04 24 5e 00 00 00 	movl   $0x5e,(%esp)
    4f94:	e8 8d c9 ff ff       	call   1926 <IDT_WriteIDT>
    4f99:	b8 9a 04 00 00       	mov    $0x49a,%eax
    4f9e:	89 45 e8             	mov    %eax,-0x18(%ebp)
    4fa1:	8b 45 e0             	mov    -0x20(%ebp),%eax
    4fa4:	89 44 24 04          	mov    %eax,0x4(%esp)
    4fa8:	8b 45 e4             	mov    -0x1c(%ebp),%eax
    4fab:	89 44 24 08          	mov    %eax,0x8(%esp)
    4faf:	8b 45 e8             	mov    -0x18(%ebp),%eax
    4fb2:	89 44 24 0c          	mov    %eax,0xc(%esp)
    4fb6:	8b 45 ec             	mov    -0x14(%ebp),%eax
    4fb9:	89 44 24 10          	mov    %eax,0x10(%esp)
    4fbd:	c7 04 24 5f 00 00 00 	movl   $0x5f,(%esp)
    4fc4:	e8 5d c9 ff ff       	call   1926 <IDT_WriteIDT>
    4fc9:	b8 a0 04 00 00       	mov    $0x4a0,%eax
    4fce:	89 45 e8             	mov    %eax,-0x18(%ebp)
    4fd1:	8b 45 e0             	mov    -0x20(%ebp),%eax
    4fd4:	89 44 24 04          	mov    %eax,0x4(%esp)
    4fd8:	8b 45 e4             	mov    -0x1c(%ebp),%eax
    4fdb:	89 44 24 08          	mov    %eax,0x8(%esp)
    4fdf:	8b 45 e8             	mov    -0x18(%ebp),%eax
    4fe2:	89 44 24 0c          	mov    %eax,0xc(%esp)
    4fe6:	8b 45 ec             	mov    -0x14(%ebp),%eax
    4fe9:	89 44 24 10          	mov    %eax,0x10(%esp)
    4fed:	c7 04 24 60 00 00 00 	movl   $0x60,(%esp)
    4ff4:	e8 2d c9 ff ff       	call   1926 <IDT_WriteIDT>
    4ff9:	b8 a6 04 00 00       	mov    $0x4a6,%eax
    4ffe:	89 45 e8             	mov    %eax,-0x18(%ebp)
    5001:	8b 45 e0             	mov    -0x20(%ebp),%eax
    5004:	89 44 24 04          	mov    %eax,0x4(%esp)
    5008:	8b 45 e4             	mov    -0x1c(%ebp),%eax
    500b:	89 44 24 08          	mov    %eax,0x8(%esp)
    500f:	8b 45 e8             	mov    -0x18(%ebp),%eax
    5012:	89 44 24 0c          	mov    %eax,0xc(%esp)
    5016:	8b 45 ec             	mov    -0x14(%ebp),%eax
    5019:	89 44 24 10          	mov    %eax,0x10(%esp)
    501d:	c7 04 24 61 00 00 00 	movl   $0x61,(%esp)
    5024:	e8 fd c8 ff ff       	call   1926 <IDT_WriteIDT>
    5029:	b8 ac 04 00 00       	mov    $0x4ac,%eax
    502e:	89 45 e8             	mov    %eax,-0x18(%ebp)
    5031:	8b 45 e0             	mov    -0x20(%ebp),%eax
    5034:	89 44 24 04          	mov    %eax,0x4(%esp)
    5038:	8b 45 e4             	mov    -0x1c(%ebp),%eax
    503b:	89 44 24 08          	mov    %eax,0x8(%esp)
    503f:	8b 45 e8             	mov    -0x18(%ebp),%eax
    5042:	89 44 24 0c          	mov    %eax,0xc(%esp)
    5046:	8b 45 ec             	mov    -0x14(%ebp),%eax
    5049:	89 44 24 10          	mov    %eax,0x10(%esp)
    504d:	c7 04 24 62 00 00 00 	movl   $0x62,(%esp)
    5054:	e8 cd c8 ff ff       	call   1926 <IDT_WriteIDT>
    5059:	b8 b2 04 00 00       	mov    $0x4b2,%eax
    505e:	89 45 e8             	mov    %eax,-0x18(%ebp)
    5061:	8b 45 e0             	mov    -0x20(%ebp),%eax
    5064:	89 44 24 04          	mov    %eax,0x4(%esp)
    5068:	8b 45 e4             	mov    -0x1c(%ebp),%eax
    506b:	89 44 24 08          	mov    %eax,0x8(%esp)
    506f:	8b 45 e8             	mov    -0x18(%ebp),%eax
    5072:	89 44 24 0c          	mov    %eax,0xc(%esp)
    5076:	8b 45 ec             	mov    -0x14(%ebp),%eax
    5079:	89 44 24 10          	mov    %eax,0x10(%esp)
    507d:	c7 04 24 63 00 00 00 	movl   $0x63,(%esp)
    5084:	e8 9d c8 ff ff       	call   1926 <IDT_WriteIDT>
    5089:	b8 b8 04 00 00       	mov    $0x4b8,%eax
    508e:	89 45 e8             	mov    %eax,-0x18(%ebp)
    5091:	8b 45 e0             	mov    -0x20(%ebp),%eax
    5094:	89 44 24 04          	mov    %eax,0x4(%esp)
    5098:	8b 45 e4             	mov    -0x1c(%ebp),%eax
    509b:	89 44 24 08          	mov    %eax,0x8(%esp)
    509f:	8b 45 e8             	mov    -0x18(%ebp),%eax
    50a2:	89 44 24 0c          	mov    %eax,0xc(%esp)
    50a6:	8b 45 ec             	mov    -0x14(%ebp),%eax
    50a9:	89 44 24 10          	mov    %eax,0x10(%esp)
    50ad:	c7 04 24 64 00 00 00 	movl   $0x64,(%esp)
    50b4:	e8 6d c8 ff ff       	call   1926 <IDT_WriteIDT>
    50b9:	b8 be 04 00 00       	mov    $0x4be,%eax
    50be:	89 45 e8             	mov    %eax,-0x18(%ebp)
    50c1:	8b 45 e0             	mov    -0x20(%ebp),%eax
    50c4:	89 44 24 04          	mov    %eax,0x4(%esp)
    50c8:	8b 45 e4             	mov    -0x1c(%ebp),%eax
    50cb:	89 44 24 08          	mov    %eax,0x8(%esp)
    50cf:	8b 45 e8             	mov    -0x18(%ebp),%eax
    50d2:	89 44 24 0c          	mov    %eax,0xc(%esp)
    50d6:	8b 45 ec             	mov    -0x14(%ebp),%eax
    50d9:	89 44 24 10          	mov    %eax,0x10(%esp)
    50dd:	c7 04 24 65 00 00 00 	movl   $0x65,(%esp)
    50e4:	e8 3d c8 ff ff       	call   1926 <IDT_WriteIDT>
    50e9:	b8 c4 04 00 00       	mov    $0x4c4,%eax
    50ee:	89 45 e8             	mov    %eax,-0x18(%ebp)
    50f1:	8b 45 e0             	mov    -0x20(%ebp),%eax
    50f4:	89 44 24 04          	mov    %eax,0x4(%esp)
    50f8:	8b 45 e4             	mov    -0x1c(%ebp),%eax
    50fb:	89 44 24 08          	mov    %eax,0x8(%esp)
    50ff:	8b 45 e8             	mov    -0x18(%ebp),%eax
    5102:	89 44 24 0c          	mov    %eax,0xc(%esp)
    5106:	8b 45 ec             	mov    -0x14(%ebp),%eax
    5109:	89 44 24 10          	mov    %eax,0x10(%esp)
    510d:	c7 04 24 66 00 00 00 	movl   $0x66,(%esp)
    5114:	e8 0d c8 ff ff       	call   1926 <IDT_WriteIDT>
    5119:	b8 ca 04 00 00       	mov    $0x4ca,%eax
    511e:	89 45 e8             	mov    %eax,-0x18(%ebp)
    5121:	8b 45 e0             	mov    -0x20(%ebp),%eax
    5124:	89 44 24 04          	mov    %eax,0x4(%esp)
    5128:	8b 45 e4             	mov    -0x1c(%ebp),%eax
    512b:	89 44 24 08          	mov    %eax,0x8(%esp)
    512f:	8b 45 e8             	mov    -0x18(%ebp),%eax
    5132:	89 44 24 0c          	mov    %eax,0xc(%esp)
    5136:	8b 45 ec             	mov    -0x14(%ebp),%eax
    5139:	89 44 24 10          	mov    %eax,0x10(%esp)
    513d:	c7 04 24 67 00 00 00 	movl   $0x67,(%esp)
    5144:	e8 dd c7 ff ff       	call   1926 <IDT_WriteIDT>
    5149:	b8 d0 04 00 00       	mov    $0x4d0,%eax
    514e:	89 45 e8             	mov    %eax,-0x18(%ebp)
    5151:	8b 45 e0             	mov    -0x20(%ebp),%eax
    5154:	89 44 24 04          	mov    %eax,0x4(%esp)
    5158:	8b 45 e4             	mov    -0x1c(%ebp),%eax
    515b:	89 44 24 08          	mov    %eax,0x8(%esp)
    515f:	8b 45 e8             	mov    -0x18(%ebp),%eax
    5162:	89 44 24 0c          	mov    %eax,0xc(%esp)
    5166:	8b 45 ec             	mov    -0x14(%ebp),%eax
    5169:	89 44 24 10          	mov    %eax,0x10(%esp)
    516d:	c7 04 24 68 00 00 00 	movl   $0x68,(%esp)
    5174:	e8 ad c7 ff ff       	call   1926 <IDT_WriteIDT>
    5179:	b8 d6 04 00 00       	mov    $0x4d6,%eax
    517e:	89 45 e8             	mov    %eax,-0x18(%ebp)
    5181:	8b 45 e0             	mov    -0x20(%ebp),%eax
    5184:	89 44 24 04          	mov    %eax,0x4(%esp)
    5188:	8b 45 e4             	mov    -0x1c(%ebp),%eax
    518b:	89 44 24 08          	mov    %eax,0x8(%esp)
    518f:	8b 45 e8             	mov    -0x18(%ebp),%eax
    5192:	89 44 24 0c          	mov    %eax,0xc(%esp)
    5196:	8b 45 ec             	mov    -0x14(%ebp),%eax
    5199:	89 44 24 10          	mov    %eax,0x10(%esp)
    519d:	c7 04 24 69 00 00 00 	movl   $0x69,(%esp)
    51a4:	e8 7d c7 ff ff       	call   1926 <IDT_WriteIDT>
    51a9:	b8 dc 04 00 00       	mov    $0x4dc,%eax
    51ae:	89 45 e8             	mov    %eax,-0x18(%ebp)
    51b1:	8b 45 e0             	mov    -0x20(%ebp),%eax
    51b4:	89 44 24 04          	mov    %eax,0x4(%esp)
    51b8:	8b 45 e4             	mov    -0x1c(%ebp),%eax
    51bb:	89 44 24 08          	mov    %eax,0x8(%esp)
    51bf:	8b 45 e8             	mov    -0x18(%ebp),%eax
    51c2:	89 44 24 0c          	mov    %eax,0xc(%esp)
    51c6:	8b 45 ec             	mov    -0x14(%ebp),%eax
    51c9:	89 44 24 10          	mov    %eax,0x10(%esp)
    51cd:	c7 04 24 6a 00 00 00 	movl   $0x6a,(%esp)
    51d4:	e8 4d c7 ff ff       	call   1926 <IDT_WriteIDT>
    51d9:	b8 e2 04 00 00       	mov    $0x4e2,%eax
    51de:	89 45 e8             	mov    %eax,-0x18(%ebp)
    51e1:	8b 45 e0             	mov    -0x20(%ebp),%eax
    51e4:	89 44 24 04          	mov    %eax,0x4(%esp)
    51e8:	8b 45 e4             	mov    -0x1c(%ebp),%eax
    51eb:	89 44 24 08          	mov    %eax,0x8(%esp)
    51ef:	8b 45 e8             	mov    -0x18(%ebp),%eax
    51f2:	89 44 24 0c          	mov    %eax,0xc(%esp)
    51f6:	8b 45 ec             	mov    -0x14(%ebp),%eax
    51f9:	89 44 24 10          	mov    %eax,0x10(%esp)
    51fd:	c7 04 24 6b 00 00 00 	movl   $0x6b,(%esp)
    5204:	e8 1d c7 ff ff       	call   1926 <IDT_WriteIDT>
    5209:	b8 e8 04 00 00       	mov    $0x4e8,%eax
    520e:	89 45 e8             	mov    %eax,-0x18(%ebp)
    5211:	8b 45 e0             	mov    -0x20(%ebp),%eax
    5214:	89 44 24 04          	mov    %eax,0x4(%esp)
    5218:	8b 45 e4             	mov    -0x1c(%ebp),%eax
    521b:	89 44 24 08          	mov    %eax,0x8(%esp)
    521f:	8b 45 e8             	mov    -0x18(%ebp),%eax
    5222:	89 44 24 0c          	mov    %eax,0xc(%esp)
    5226:	8b 45 ec             	mov    -0x14(%ebp),%eax
    5229:	89 44 24 10          	mov    %eax,0x10(%esp)
    522d:	c7 04 24 6c 00 00 00 	movl   $0x6c,(%esp)
    5234:	e8 ed c6 ff ff       	call   1926 <IDT_WriteIDT>
    5239:	b8 ee 04 00 00       	mov    $0x4ee,%eax
    523e:	89 45 e8             	mov    %eax,-0x18(%ebp)
    5241:	8b 45 e0             	mov    -0x20(%ebp),%eax
    5244:	89 44 24 04          	mov    %eax,0x4(%esp)
    5248:	8b 45 e4             	mov    -0x1c(%ebp),%eax
    524b:	89 44 24 08          	mov    %eax,0x8(%esp)
    524f:	8b 45 e8             	mov    -0x18(%ebp),%eax
    5252:	89 44 24 0c          	mov    %eax,0xc(%esp)
    5256:	8b 45 ec             	mov    -0x14(%ebp),%eax
    5259:	89 44 24 10          	mov    %eax,0x10(%esp)
    525d:	c7 04 24 6d 00 00 00 	movl   $0x6d,(%esp)
    5264:	e8 bd c6 ff ff       	call   1926 <IDT_WriteIDT>
    5269:	b8 f4 04 00 00       	mov    $0x4f4,%eax
    526e:	89 45 e8             	mov    %eax,-0x18(%ebp)
    5271:	8b 45 e0             	mov    -0x20(%ebp),%eax
    5274:	89 44 24 04          	mov    %eax,0x4(%esp)
    5278:	8b 45 e4             	mov    -0x1c(%ebp),%eax
    527b:	89 44 24 08          	mov    %eax,0x8(%esp)
    527f:	8b 45 e8             	mov    -0x18(%ebp),%eax
    5282:	89 44 24 0c          	mov    %eax,0xc(%esp)
    5286:	8b 45 ec             	mov    -0x14(%ebp),%eax
    5289:	89 44 24 10          	mov    %eax,0x10(%esp)
    528d:	c7 04 24 6e 00 00 00 	movl   $0x6e,(%esp)
    5294:	e8 8d c6 ff ff       	call   1926 <IDT_WriteIDT>
    5299:	b8 fa 04 00 00       	mov    $0x4fa,%eax
    529e:	89 45 e8             	mov    %eax,-0x18(%ebp)
    52a1:	8b 45 e0             	mov    -0x20(%ebp),%eax
    52a4:	89 44 24 04          	mov    %eax,0x4(%esp)
    52a8:	8b 45 e4             	mov    -0x1c(%ebp),%eax
    52ab:	89 44 24 08          	mov    %eax,0x8(%esp)
    52af:	8b 45 e8             	mov    -0x18(%ebp),%eax
    52b2:	89 44 24 0c          	mov    %eax,0xc(%esp)
    52b6:	8b 45 ec             	mov    -0x14(%ebp),%eax
    52b9:	89 44 24 10          	mov    %eax,0x10(%esp)
    52bd:	c7 04 24 6f 00 00 00 	movl   $0x6f,(%esp)
    52c4:	e8 5d c6 ff ff       	call   1926 <IDT_WriteIDT>
    52c9:	b8 00 05 00 00       	mov    $0x500,%eax
    52ce:	89 45 e8             	mov    %eax,-0x18(%ebp)
    52d1:	8b 45 e0             	mov    -0x20(%ebp),%eax
    52d4:	89 44 24 04          	mov    %eax,0x4(%esp)
    52d8:	8b 45 e4             	mov    -0x1c(%ebp),%eax
    52db:	89 44 24 08          	mov    %eax,0x8(%esp)
    52df:	8b 45 e8             	mov    -0x18(%ebp),%eax
    52e2:	89 44 24 0c          	mov    %eax,0xc(%esp)
    52e6:	8b 45 ec             	mov    -0x14(%ebp),%eax
    52e9:	89 44 24 10          	mov    %eax,0x10(%esp)
    52ed:	c7 04 24 70 00 00 00 	movl   $0x70,(%esp)
    52f4:	e8 2d c6 ff ff       	call   1926 <IDT_WriteIDT>
    52f9:	b8 06 05 00 00       	mov    $0x506,%eax
    52fe:	89 45 e8             	mov    %eax,-0x18(%ebp)
    5301:	8b 45 e0             	mov    -0x20(%ebp),%eax
    5304:	89 44 24 04          	mov    %eax,0x4(%esp)
    5308:	8b 45 e4             	mov    -0x1c(%ebp),%eax
    530b:	89 44 24 08          	mov    %eax,0x8(%esp)
    530f:	8b 45 e8             	mov    -0x18(%ebp),%eax
    5312:	89 44 24 0c          	mov    %eax,0xc(%esp)
    5316:	8b 45 ec             	mov    -0x14(%ebp),%eax
    5319:	89 44 24 10          	mov    %eax,0x10(%esp)
    531d:	c7 04 24 71 00 00 00 	movl   $0x71,(%esp)
    5324:	e8 fd c5 ff ff       	call   1926 <IDT_WriteIDT>
    5329:	b8 0c 05 00 00       	mov    $0x50c,%eax
    532e:	89 45 e8             	mov    %eax,-0x18(%ebp)
    5331:	8b 45 e0             	mov    -0x20(%ebp),%eax
    5334:	89 44 24 04          	mov    %eax,0x4(%esp)
    5338:	8b 45 e4             	mov    -0x1c(%ebp),%eax
    533b:	89 44 24 08          	mov    %eax,0x8(%esp)
    533f:	8b 45 e8             	mov    -0x18(%ebp),%eax
    5342:	89 44 24 0c          	mov    %eax,0xc(%esp)
    5346:	8b 45 ec             	mov    -0x14(%ebp),%eax
    5349:	89 44 24 10          	mov    %eax,0x10(%esp)
    534d:	c7 04 24 72 00 00 00 	movl   $0x72,(%esp)
    5354:	e8 cd c5 ff ff       	call   1926 <IDT_WriteIDT>
    5359:	b8 12 05 00 00       	mov    $0x512,%eax
    535e:	89 45 e8             	mov    %eax,-0x18(%ebp)
    5361:	8b 45 e0             	mov    -0x20(%ebp),%eax
    5364:	89 44 24 04          	mov    %eax,0x4(%esp)
    5368:	8b 45 e4             	mov    -0x1c(%ebp),%eax
    536b:	89 44 24 08          	mov    %eax,0x8(%esp)
    536f:	8b 45 e8             	mov    -0x18(%ebp),%eax
    5372:	89 44 24 0c          	mov    %eax,0xc(%esp)
    5376:	8b 45 ec             	mov    -0x14(%ebp),%eax
    5379:	89 44 24 10          	mov    %eax,0x10(%esp)
    537d:	c7 04 24 73 00 00 00 	movl   $0x73,(%esp)
    5384:	e8 9d c5 ff ff       	call   1926 <IDT_WriteIDT>
    5389:	b8 18 05 00 00       	mov    $0x518,%eax
    538e:	89 45 e8             	mov    %eax,-0x18(%ebp)
    5391:	8b 45 e0             	mov    -0x20(%ebp),%eax
    5394:	89 44 24 04          	mov    %eax,0x4(%esp)
    5398:	8b 45 e4             	mov    -0x1c(%ebp),%eax
    539b:	89 44 24 08          	mov    %eax,0x8(%esp)
    539f:	8b 45 e8             	mov    -0x18(%ebp),%eax
    53a2:	89 44 24 0c          	mov    %eax,0xc(%esp)
    53a6:	8b 45 ec             	mov    -0x14(%ebp),%eax
    53a9:	89 44 24 10          	mov    %eax,0x10(%esp)
    53ad:	c7 04 24 74 00 00 00 	movl   $0x74,(%esp)
    53b4:	e8 6d c5 ff ff       	call   1926 <IDT_WriteIDT>
    53b9:	b8 1e 05 00 00       	mov    $0x51e,%eax
    53be:	89 45 e8             	mov    %eax,-0x18(%ebp)
    53c1:	8b 45 e0             	mov    -0x20(%ebp),%eax
    53c4:	89 44 24 04          	mov    %eax,0x4(%esp)
    53c8:	8b 45 e4             	mov    -0x1c(%ebp),%eax
    53cb:	89 44 24 08          	mov    %eax,0x8(%esp)
    53cf:	8b 45 e8             	mov    -0x18(%ebp),%eax
    53d2:	89 44 24 0c          	mov    %eax,0xc(%esp)
    53d6:	8b 45 ec             	mov    -0x14(%ebp),%eax
    53d9:	89 44 24 10          	mov    %eax,0x10(%esp)
    53dd:	c7 04 24 75 00 00 00 	movl   $0x75,(%esp)
    53e4:	e8 3d c5 ff ff       	call   1926 <IDT_WriteIDT>
    53e9:	b8 24 05 00 00       	mov    $0x524,%eax
    53ee:	89 45 e8             	mov    %eax,-0x18(%ebp)
    53f1:	8b 45 e0             	mov    -0x20(%ebp),%eax
    53f4:	89 44 24 04          	mov    %eax,0x4(%esp)
    53f8:	8b 45 e4             	mov    -0x1c(%ebp),%eax
    53fb:	89 44 24 08          	mov    %eax,0x8(%esp)
    53ff:	8b 45 e8             	mov    -0x18(%ebp),%eax
    5402:	89 44 24 0c          	mov    %eax,0xc(%esp)
    5406:	8b 45 ec             	mov    -0x14(%ebp),%eax
    5409:	89 44 24 10          	mov    %eax,0x10(%esp)
    540d:	c7 04 24 76 00 00 00 	movl   $0x76,(%esp)
    5414:	e8 0d c5 ff ff       	call   1926 <IDT_WriteIDT>
    5419:	b8 2a 05 00 00       	mov    $0x52a,%eax
    541e:	89 45 e8             	mov    %eax,-0x18(%ebp)
    5421:	8b 45 e0             	mov    -0x20(%ebp),%eax
    5424:	89 44 24 04          	mov    %eax,0x4(%esp)
    5428:	8b 45 e4             	mov    -0x1c(%ebp),%eax
    542b:	89 44 24 08          	mov    %eax,0x8(%esp)
    542f:	8b 45 e8             	mov    -0x18(%ebp),%eax
    5432:	89 44 24 0c          	mov    %eax,0xc(%esp)
    5436:	8b 45 ec             	mov    -0x14(%ebp),%eax
    5439:	89 44 24 10          	mov    %eax,0x10(%esp)
    543d:	c7 04 24 77 00 00 00 	movl   $0x77,(%esp)
    5444:	e8 dd c4 ff ff       	call   1926 <IDT_WriteIDT>
    5449:	b8 30 05 00 00       	mov    $0x530,%eax
    544e:	89 45 e8             	mov    %eax,-0x18(%ebp)
    5451:	8b 45 e0             	mov    -0x20(%ebp),%eax
    5454:	89 44 24 04          	mov    %eax,0x4(%esp)
    5458:	8b 45 e4             	mov    -0x1c(%ebp),%eax
    545b:	89 44 24 08          	mov    %eax,0x8(%esp)
    545f:	8b 45 e8             	mov    -0x18(%ebp),%eax
    5462:	89 44 24 0c          	mov    %eax,0xc(%esp)
    5466:	8b 45 ec             	mov    -0x14(%ebp),%eax
    5469:	89 44 24 10          	mov    %eax,0x10(%esp)
    546d:	c7 04 24 78 00 00 00 	movl   $0x78,(%esp)
    5474:	e8 ad c4 ff ff       	call   1926 <IDT_WriteIDT>
    5479:	b8 36 05 00 00       	mov    $0x536,%eax
    547e:	89 45 e8             	mov    %eax,-0x18(%ebp)
    5481:	8b 45 e0             	mov    -0x20(%ebp),%eax
    5484:	89 44 24 04          	mov    %eax,0x4(%esp)
    5488:	8b 45 e4             	mov    -0x1c(%ebp),%eax
    548b:	89 44 24 08          	mov    %eax,0x8(%esp)
    548f:	8b 45 e8             	mov    -0x18(%ebp),%eax
    5492:	89 44 24 0c          	mov    %eax,0xc(%esp)
    5496:	8b 45 ec             	mov    -0x14(%ebp),%eax
    5499:	89 44 24 10          	mov    %eax,0x10(%esp)
    549d:	c7 04 24 79 00 00 00 	movl   $0x79,(%esp)
    54a4:	e8 7d c4 ff ff       	call   1926 <IDT_WriteIDT>
    54a9:	b8 3c 05 00 00       	mov    $0x53c,%eax
    54ae:	89 45 e8             	mov    %eax,-0x18(%ebp)
    54b1:	8b 45 e0             	mov    -0x20(%ebp),%eax
    54b4:	89 44 24 04          	mov    %eax,0x4(%esp)
    54b8:	8b 45 e4             	mov    -0x1c(%ebp),%eax
    54bb:	89 44 24 08          	mov    %eax,0x8(%esp)
    54bf:	8b 45 e8             	mov    -0x18(%ebp),%eax
    54c2:	89 44 24 0c          	mov    %eax,0xc(%esp)
    54c6:	8b 45 ec             	mov    -0x14(%ebp),%eax
    54c9:	89 44 24 10          	mov    %eax,0x10(%esp)
    54cd:	c7 04 24 7a 00 00 00 	movl   $0x7a,(%esp)
    54d4:	e8 4d c4 ff ff       	call   1926 <IDT_WriteIDT>
    54d9:	b8 42 05 00 00       	mov    $0x542,%eax
    54de:	89 45 e8             	mov    %eax,-0x18(%ebp)
    54e1:	8b 45 e0             	mov    -0x20(%ebp),%eax
    54e4:	89 44 24 04          	mov    %eax,0x4(%esp)
    54e8:	8b 45 e4             	mov    -0x1c(%ebp),%eax
    54eb:	89 44 24 08          	mov    %eax,0x8(%esp)
    54ef:	8b 45 e8             	mov    -0x18(%ebp),%eax
    54f2:	89 44 24 0c          	mov    %eax,0xc(%esp)
    54f6:	8b 45 ec             	mov    -0x14(%ebp),%eax
    54f9:	89 44 24 10          	mov    %eax,0x10(%esp)
    54fd:	c7 04 24 7b 00 00 00 	movl   $0x7b,(%esp)
    5504:	e8 1d c4 ff ff       	call   1926 <IDT_WriteIDT>
    5509:	b8 48 05 00 00       	mov    $0x548,%eax
    550e:	89 45 e8             	mov    %eax,-0x18(%ebp)
    5511:	8b 45 e0             	mov    -0x20(%ebp),%eax
    5514:	89 44 24 04          	mov    %eax,0x4(%esp)
    5518:	8b 45 e4             	mov    -0x1c(%ebp),%eax
    551b:	89 44 24 08          	mov    %eax,0x8(%esp)
    551f:	8b 45 e8             	mov    -0x18(%ebp),%eax
    5522:	89 44 24 0c          	mov    %eax,0xc(%esp)
    5526:	8b 45 ec             	mov    -0x14(%ebp),%eax
    5529:	89 44 24 10          	mov    %eax,0x10(%esp)
    552d:	c7 04 24 7c 00 00 00 	movl   $0x7c,(%esp)
    5534:	e8 ed c3 ff ff       	call   1926 <IDT_WriteIDT>
    5539:	b8 4e 05 00 00       	mov    $0x54e,%eax
    553e:	89 45 e8             	mov    %eax,-0x18(%ebp)
    5541:	8b 45 e0             	mov    -0x20(%ebp),%eax
    5544:	89 44 24 04          	mov    %eax,0x4(%esp)
    5548:	8b 45 e4             	mov    -0x1c(%ebp),%eax
    554b:	89 44 24 08          	mov    %eax,0x8(%esp)
    554f:	8b 45 e8             	mov    -0x18(%ebp),%eax
    5552:	89 44 24 0c          	mov    %eax,0xc(%esp)
    5556:	8b 45 ec             	mov    -0x14(%ebp),%eax
    5559:	89 44 24 10          	mov    %eax,0x10(%esp)
    555d:	c7 04 24 7d 00 00 00 	movl   $0x7d,(%esp)
    5564:	e8 bd c3 ff ff       	call   1926 <IDT_WriteIDT>
    5569:	b8 54 05 00 00       	mov    $0x554,%eax
    556e:	89 45 e8             	mov    %eax,-0x18(%ebp)
    5571:	8b 45 e0             	mov    -0x20(%ebp),%eax
    5574:	89 44 24 04          	mov    %eax,0x4(%esp)
    5578:	8b 45 e4             	mov    -0x1c(%ebp),%eax
    557b:	89 44 24 08          	mov    %eax,0x8(%esp)
    557f:	8b 45 e8             	mov    -0x18(%ebp),%eax
    5582:	89 44 24 0c          	mov    %eax,0xc(%esp)
    5586:	8b 45 ec             	mov    -0x14(%ebp),%eax
    5589:	89 44 24 10          	mov    %eax,0x10(%esp)
    558d:	c7 04 24 7e 00 00 00 	movl   $0x7e,(%esp)
    5594:	e8 8d c3 ff ff       	call   1926 <IDT_WriteIDT>
    5599:	b8 5a 05 00 00       	mov    $0x55a,%eax
    559e:	89 45 e8             	mov    %eax,-0x18(%ebp)
    55a1:	8b 45 e0             	mov    -0x20(%ebp),%eax
    55a4:	89 44 24 04          	mov    %eax,0x4(%esp)
    55a8:	8b 45 e4             	mov    -0x1c(%ebp),%eax
    55ab:	89 44 24 08          	mov    %eax,0x8(%esp)
    55af:	8b 45 e8             	mov    -0x18(%ebp),%eax
    55b2:	89 44 24 0c          	mov    %eax,0xc(%esp)
    55b6:	8b 45 ec             	mov    -0x14(%ebp),%eax
    55b9:	89 44 24 10          	mov    %eax,0x10(%esp)
    55bd:	c7 04 24 7f 00 00 00 	movl   $0x7f,(%esp)
    55c4:	e8 5d c3 ff ff       	call   1926 <IDT_WriteIDT>
    55c9:	b8 60 05 00 00       	mov    $0x560,%eax
    55ce:	89 45 e8             	mov    %eax,-0x18(%ebp)
    55d1:	8b 45 e0             	mov    -0x20(%ebp),%eax
    55d4:	89 44 24 04          	mov    %eax,0x4(%esp)
    55d8:	8b 45 e4             	mov    -0x1c(%ebp),%eax
    55db:	89 44 24 08          	mov    %eax,0x8(%esp)
    55df:	8b 45 e8             	mov    -0x18(%ebp),%eax
    55e2:	89 44 24 0c          	mov    %eax,0xc(%esp)
    55e6:	8b 45 ec             	mov    -0x14(%ebp),%eax
    55e9:	89 44 24 10          	mov    %eax,0x10(%esp)
    55ed:	c7 04 24 80 00 00 00 	movl   $0x80,(%esp)
    55f4:	e8 2d c3 ff ff       	call   1926 <IDT_WriteIDT>
    55f9:	b8 66 05 00 00       	mov    $0x566,%eax
    55fe:	89 45 e8             	mov    %eax,-0x18(%ebp)
    5601:	8b 45 e0             	mov    -0x20(%ebp),%eax
    5604:	89 44 24 04          	mov    %eax,0x4(%esp)
    5608:	8b 45 e4             	mov    -0x1c(%ebp),%eax
    560b:	89 44 24 08          	mov    %eax,0x8(%esp)
    560f:	8b 45 e8             	mov    -0x18(%ebp),%eax
    5612:	89 44 24 0c          	mov    %eax,0xc(%esp)
    5616:	8b 45 ec             	mov    -0x14(%ebp),%eax
    5619:	89 44 24 10          	mov    %eax,0x10(%esp)
    561d:	c7 04 24 81 00 00 00 	movl   $0x81,(%esp)
    5624:	e8 fd c2 ff ff       	call   1926 <IDT_WriteIDT>
    5629:	b8 6c 05 00 00       	mov    $0x56c,%eax
    562e:	89 45 e8             	mov    %eax,-0x18(%ebp)
    5631:	8b 45 e0             	mov    -0x20(%ebp),%eax
    5634:	89 44 24 04          	mov    %eax,0x4(%esp)
    5638:	8b 45 e4             	mov    -0x1c(%ebp),%eax
    563b:	89 44 24 08          	mov    %eax,0x8(%esp)
    563f:	8b 45 e8             	mov    -0x18(%ebp),%eax
    5642:	89 44 24 0c          	mov    %eax,0xc(%esp)
    5646:	8b 45 ec             	mov    -0x14(%ebp),%eax
    5649:	89 44 24 10          	mov    %eax,0x10(%esp)
    564d:	c7 04 24 82 00 00 00 	movl   $0x82,(%esp)
    5654:	e8 cd c2 ff ff       	call   1926 <IDT_WriteIDT>
    5659:	b8 72 05 00 00       	mov    $0x572,%eax
    565e:	89 45 e8             	mov    %eax,-0x18(%ebp)
    5661:	8b 45 e0             	mov    -0x20(%ebp),%eax
    5664:	89 44 24 04          	mov    %eax,0x4(%esp)
    5668:	8b 45 e4             	mov    -0x1c(%ebp),%eax
    566b:	89 44 24 08          	mov    %eax,0x8(%esp)
    566f:	8b 45 e8             	mov    -0x18(%ebp),%eax
    5672:	89 44 24 0c          	mov    %eax,0xc(%esp)
    5676:	8b 45 ec             	mov    -0x14(%ebp),%eax
    5679:	89 44 24 10          	mov    %eax,0x10(%esp)
    567d:	c7 04 24 83 00 00 00 	movl   $0x83,(%esp)
    5684:	e8 9d c2 ff ff       	call   1926 <IDT_WriteIDT>
    5689:	b8 78 05 00 00       	mov    $0x578,%eax
    568e:	89 45 e8             	mov    %eax,-0x18(%ebp)
    5691:	8b 45 e0             	mov    -0x20(%ebp),%eax
    5694:	89 44 24 04          	mov    %eax,0x4(%esp)
    5698:	8b 45 e4             	mov    -0x1c(%ebp),%eax
    569b:	89 44 24 08          	mov    %eax,0x8(%esp)
    569f:	8b 45 e8             	mov    -0x18(%ebp),%eax
    56a2:	89 44 24 0c          	mov    %eax,0xc(%esp)
    56a6:	8b 45 ec             	mov    -0x14(%ebp),%eax
    56a9:	89 44 24 10          	mov    %eax,0x10(%esp)
    56ad:	c7 04 24 84 00 00 00 	movl   $0x84,(%esp)
    56b4:	e8 6d c2 ff ff       	call   1926 <IDT_WriteIDT>
    56b9:	b8 7e 05 00 00       	mov    $0x57e,%eax
    56be:	89 45 e8             	mov    %eax,-0x18(%ebp)
    56c1:	8b 45 e0             	mov    -0x20(%ebp),%eax
    56c4:	89 44 24 04          	mov    %eax,0x4(%esp)
    56c8:	8b 45 e4             	mov    -0x1c(%ebp),%eax
    56cb:	89 44 24 08          	mov    %eax,0x8(%esp)
    56cf:	8b 45 e8             	mov    -0x18(%ebp),%eax
    56d2:	89 44 24 0c          	mov    %eax,0xc(%esp)
    56d6:	8b 45 ec             	mov    -0x14(%ebp),%eax
    56d9:	89 44 24 10          	mov    %eax,0x10(%esp)
    56dd:	c7 04 24 85 00 00 00 	movl   $0x85,(%esp)
    56e4:	e8 3d c2 ff ff       	call   1926 <IDT_WriteIDT>
    56e9:	b8 84 05 00 00       	mov    $0x584,%eax
    56ee:	89 45 e8             	mov    %eax,-0x18(%ebp)
    56f1:	8b 45 e0             	mov    -0x20(%ebp),%eax
    56f4:	89 44 24 04          	mov    %eax,0x4(%esp)
    56f8:	8b 45 e4             	mov    -0x1c(%ebp),%eax
    56fb:	89 44 24 08          	mov    %eax,0x8(%esp)
    56ff:	8b 45 e8             	mov    -0x18(%ebp),%eax
    5702:	89 44 24 0c          	mov    %eax,0xc(%esp)
    5706:	8b 45 ec             	mov    -0x14(%ebp),%eax
    5709:	89 44 24 10          	mov    %eax,0x10(%esp)
    570d:	c7 04 24 86 00 00 00 	movl   $0x86,(%esp)
    5714:	e8 0d c2 ff ff       	call   1926 <IDT_WriteIDT>
    5719:	b8 8a 05 00 00       	mov    $0x58a,%eax
    571e:	89 45 e8             	mov    %eax,-0x18(%ebp)
    5721:	8b 45 e0             	mov    -0x20(%ebp),%eax
    5724:	89 44 24 04          	mov    %eax,0x4(%esp)
    5728:	8b 45 e4             	mov    -0x1c(%ebp),%eax
    572b:	89 44 24 08          	mov    %eax,0x8(%esp)
    572f:	8b 45 e8             	mov    -0x18(%ebp),%eax
    5732:	89 44 24 0c          	mov    %eax,0xc(%esp)
    5736:	8b 45 ec             	mov    -0x14(%ebp),%eax
    5739:	89 44 24 10          	mov    %eax,0x10(%esp)
    573d:	c7 04 24 87 00 00 00 	movl   $0x87,(%esp)
    5744:	e8 dd c1 ff ff       	call   1926 <IDT_WriteIDT>
    5749:	b8 90 05 00 00       	mov    $0x590,%eax
    574e:	89 45 e8             	mov    %eax,-0x18(%ebp)
    5751:	8b 45 e0             	mov    -0x20(%ebp),%eax
    5754:	89 44 24 04          	mov    %eax,0x4(%esp)
    5758:	8b 45 e4             	mov    -0x1c(%ebp),%eax
    575b:	89 44 24 08          	mov    %eax,0x8(%esp)
    575f:	8b 45 e8             	mov    -0x18(%ebp),%eax
    5762:	89 44 24 0c          	mov    %eax,0xc(%esp)
    5766:	8b 45 ec             	mov    -0x14(%ebp),%eax
    5769:	89 44 24 10          	mov    %eax,0x10(%esp)
    576d:	c7 04 24 88 00 00 00 	movl   $0x88,(%esp)
    5774:	e8 ad c1 ff ff       	call   1926 <IDT_WriteIDT>
    5779:	b8 96 05 00 00       	mov    $0x596,%eax
    577e:	89 45 e8             	mov    %eax,-0x18(%ebp)
    5781:	8b 45 e0             	mov    -0x20(%ebp),%eax
    5784:	89 44 24 04          	mov    %eax,0x4(%esp)
    5788:	8b 45 e4             	mov    -0x1c(%ebp),%eax
    578b:	89 44 24 08          	mov    %eax,0x8(%esp)
    578f:	8b 45 e8             	mov    -0x18(%ebp),%eax
    5792:	89 44 24 0c          	mov    %eax,0xc(%esp)
    5796:	8b 45 ec             	mov    -0x14(%ebp),%eax
    5799:	89 44 24 10          	mov    %eax,0x10(%esp)
    579d:	c7 04 24 89 00 00 00 	movl   $0x89,(%esp)
    57a4:	e8 7d c1 ff ff       	call   1926 <IDT_WriteIDT>
    57a9:	b8 9c 05 00 00       	mov    $0x59c,%eax
    57ae:	89 45 e8             	mov    %eax,-0x18(%ebp)
    57b1:	8b 45 e0             	mov    -0x20(%ebp),%eax
    57b4:	89 44 24 04          	mov    %eax,0x4(%esp)
    57b8:	8b 45 e4             	mov    -0x1c(%ebp),%eax
    57bb:	89 44 24 08          	mov    %eax,0x8(%esp)
    57bf:	8b 45 e8             	mov    -0x18(%ebp),%eax
    57c2:	89 44 24 0c          	mov    %eax,0xc(%esp)
    57c6:	8b 45 ec             	mov    -0x14(%ebp),%eax
    57c9:	89 44 24 10          	mov    %eax,0x10(%esp)
    57cd:	c7 04 24 8a 00 00 00 	movl   $0x8a,(%esp)
    57d4:	e8 4d c1 ff ff       	call   1926 <IDT_WriteIDT>
    57d9:	b8 a2 05 00 00       	mov    $0x5a2,%eax
    57de:	89 45 e8             	mov    %eax,-0x18(%ebp)
    57e1:	8b 45 e0             	mov    -0x20(%ebp),%eax
    57e4:	89 44 24 04          	mov    %eax,0x4(%esp)
    57e8:	8b 45 e4             	mov    -0x1c(%ebp),%eax
    57eb:	89 44 24 08          	mov    %eax,0x8(%esp)
    57ef:	8b 45 e8             	mov    -0x18(%ebp),%eax
    57f2:	89 44 24 0c          	mov    %eax,0xc(%esp)
    57f6:	8b 45 ec             	mov    -0x14(%ebp),%eax
    57f9:	89 44 24 10          	mov    %eax,0x10(%esp)
    57fd:	c7 04 24 8b 00 00 00 	movl   $0x8b,(%esp)
    5804:	e8 1d c1 ff ff       	call   1926 <IDT_WriteIDT>
    5809:	b8 a8 05 00 00       	mov    $0x5a8,%eax
    580e:	89 45 e8             	mov    %eax,-0x18(%ebp)
    5811:	8b 45 e0             	mov    -0x20(%ebp),%eax
    5814:	89 44 24 04          	mov    %eax,0x4(%esp)
    5818:	8b 45 e4             	mov    -0x1c(%ebp),%eax
    581b:	89 44 24 08          	mov    %eax,0x8(%esp)
    581f:	8b 45 e8             	mov    -0x18(%ebp),%eax
    5822:	89 44 24 0c          	mov    %eax,0xc(%esp)
    5826:	8b 45 ec             	mov    -0x14(%ebp),%eax
    5829:	89 44 24 10          	mov    %eax,0x10(%esp)
    582d:	c7 04 24 8c 00 00 00 	movl   $0x8c,(%esp)
    5834:	e8 ed c0 ff ff       	call   1926 <IDT_WriteIDT>
    5839:	b8 ae 05 00 00       	mov    $0x5ae,%eax
    583e:	89 45 e8             	mov    %eax,-0x18(%ebp)
    5841:	8b 45 e0             	mov    -0x20(%ebp),%eax
    5844:	89 44 24 04          	mov    %eax,0x4(%esp)
    5848:	8b 45 e4             	mov    -0x1c(%ebp),%eax
    584b:	89 44 24 08          	mov    %eax,0x8(%esp)
    584f:	8b 45 e8             	mov    -0x18(%ebp),%eax
    5852:	89 44 24 0c          	mov    %eax,0xc(%esp)
    5856:	8b 45 ec             	mov    -0x14(%ebp),%eax
    5859:	89 44 24 10          	mov    %eax,0x10(%esp)
    585d:	c7 04 24 8d 00 00 00 	movl   $0x8d,(%esp)
    5864:	e8 bd c0 ff ff       	call   1926 <IDT_WriteIDT>
    5869:	b8 b4 05 00 00       	mov    $0x5b4,%eax
    586e:	89 45 e8             	mov    %eax,-0x18(%ebp)
    5871:	8b 45 e0             	mov    -0x20(%ebp),%eax
    5874:	89 44 24 04          	mov    %eax,0x4(%esp)
    5878:	8b 45 e4             	mov    -0x1c(%ebp),%eax
    587b:	89 44 24 08          	mov    %eax,0x8(%esp)
    587f:	8b 45 e8             	mov    -0x18(%ebp),%eax
    5882:	89 44 24 0c          	mov    %eax,0xc(%esp)
    5886:	8b 45 ec             	mov    -0x14(%ebp),%eax
    5889:	89 44 24 10          	mov    %eax,0x10(%esp)
    588d:	c7 04 24 8e 00 00 00 	movl   $0x8e,(%esp)
    5894:	e8 8d c0 ff ff       	call   1926 <IDT_WriteIDT>
    5899:	b8 ba 05 00 00       	mov    $0x5ba,%eax
    589e:	89 45 e8             	mov    %eax,-0x18(%ebp)
    58a1:	8b 45 e0             	mov    -0x20(%ebp),%eax
    58a4:	89 44 24 04          	mov    %eax,0x4(%esp)
    58a8:	8b 45 e4             	mov    -0x1c(%ebp),%eax
    58ab:	89 44 24 08          	mov    %eax,0x8(%esp)
    58af:	8b 45 e8             	mov    -0x18(%ebp),%eax
    58b2:	89 44 24 0c          	mov    %eax,0xc(%esp)
    58b6:	8b 45 ec             	mov    -0x14(%ebp),%eax
    58b9:	89 44 24 10          	mov    %eax,0x10(%esp)
    58bd:	c7 04 24 8f 00 00 00 	movl   $0x8f,(%esp)
    58c4:	e8 5d c0 ff ff       	call   1926 <IDT_WriteIDT>
    58c9:	b8 c0 05 00 00       	mov    $0x5c0,%eax
    58ce:	89 45 e8             	mov    %eax,-0x18(%ebp)
    58d1:	8b 45 e0             	mov    -0x20(%ebp),%eax
    58d4:	89 44 24 04          	mov    %eax,0x4(%esp)
    58d8:	8b 45 e4             	mov    -0x1c(%ebp),%eax
    58db:	89 44 24 08          	mov    %eax,0x8(%esp)
    58df:	8b 45 e8             	mov    -0x18(%ebp),%eax
    58e2:	89 44 24 0c          	mov    %eax,0xc(%esp)
    58e6:	8b 45 ec             	mov    -0x14(%ebp),%eax
    58e9:	89 44 24 10          	mov    %eax,0x10(%esp)
    58ed:	c7 04 24 90 00 00 00 	movl   $0x90,(%esp)
    58f4:	e8 2d c0 ff ff       	call   1926 <IDT_WriteIDT>
    58f9:	b8 c6 05 00 00       	mov    $0x5c6,%eax
    58fe:	89 45 e8             	mov    %eax,-0x18(%ebp)
    5901:	8b 45 e0             	mov    -0x20(%ebp),%eax
    5904:	89 44 24 04          	mov    %eax,0x4(%esp)
    5908:	8b 45 e4             	mov    -0x1c(%ebp),%eax
    590b:	89 44 24 08          	mov    %eax,0x8(%esp)
    590f:	8b 45 e8             	mov    -0x18(%ebp),%eax
    5912:	89 44 24 0c          	mov    %eax,0xc(%esp)
    5916:	8b 45 ec             	mov    -0x14(%ebp),%eax
    5919:	89 44 24 10          	mov    %eax,0x10(%esp)
    591d:	c7 04 24 91 00 00 00 	movl   $0x91,(%esp)
    5924:	e8 fd bf ff ff       	call   1926 <IDT_WriteIDT>
    5929:	b8 cc 05 00 00       	mov    $0x5cc,%eax
    592e:	89 45 e8             	mov    %eax,-0x18(%ebp)
    5931:	8b 45 e0             	mov    -0x20(%ebp),%eax
    5934:	89 44 24 04          	mov    %eax,0x4(%esp)
    5938:	8b 45 e4             	mov    -0x1c(%ebp),%eax
    593b:	89 44 24 08          	mov    %eax,0x8(%esp)
    593f:	8b 45 e8             	mov    -0x18(%ebp),%eax
    5942:	89 44 24 0c          	mov    %eax,0xc(%esp)
    5946:	8b 45 ec             	mov    -0x14(%ebp),%eax
    5949:	89 44 24 10          	mov    %eax,0x10(%esp)
    594d:	c7 04 24 92 00 00 00 	movl   $0x92,(%esp)
    5954:	e8 cd bf ff ff       	call   1926 <IDT_WriteIDT>
    5959:	b8 d2 05 00 00       	mov    $0x5d2,%eax
    595e:	89 45 e8             	mov    %eax,-0x18(%ebp)
    5961:	8b 45 e0             	mov    -0x20(%ebp),%eax
    5964:	89 44 24 04          	mov    %eax,0x4(%esp)
    5968:	8b 45 e4             	mov    -0x1c(%ebp),%eax
    596b:	89 44 24 08          	mov    %eax,0x8(%esp)
    596f:	8b 45 e8             	mov    -0x18(%ebp),%eax
    5972:	89 44 24 0c          	mov    %eax,0xc(%esp)
    5976:	8b 45 ec             	mov    -0x14(%ebp),%eax
    5979:	89 44 24 10          	mov    %eax,0x10(%esp)
    597d:	c7 04 24 93 00 00 00 	movl   $0x93,(%esp)
    5984:	e8 9d bf ff ff       	call   1926 <IDT_WriteIDT>
    5989:	b8 d8 05 00 00       	mov    $0x5d8,%eax
    598e:	89 45 e8             	mov    %eax,-0x18(%ebp)
    5991:	8b 45 e0             	mov    -0x20(%ebp),%eax
    5994:	89 44 24 04          	mov    %eax,0x4(%esp)
    5998:	8b 45 e4             	mov    -0x1c(%ebp),%eax
    599b:	89 44 24 08          	mov    %eax,0x8(%esp)
    599f:	8b 45 e8             	mov    -0x18(%ebp),%eax
    59a2:	89 44 24 0c          	mov    %eax,0xc(%esp)
    59a6:	8b 45 ec             	mov    -0x14(%ebp),%eax
    59a9:	89 44 24 10          	mov    %eax,0x10(%esp)
    59ad:	c7 04 24 94 00 00 00 	movl   $0x94,(%esp)
    59b4:	e8 6d bf ff ff       	call   1926 <IDT_WriteIDT>
    59b9:	b8 de 05 00 00       	mov    $0x5de,%eax
    59be:	89 45 e8             	mov    %eax,-0x18(%ebp)
    59c1:	8b 45 e0             	mov    -0x20(%ebp),%eax
    59c4:	89 44 24 04          	mov    %eax,0x4(%esp)
    59c8:	8b 45 e4             	mov    -0x1c(%ebp),%eax
    59cb:	89 44 24 08          	mov    %eax,0x8(%esp)
    59cf:	8b 45 e8             	mov    -0x18(%ebp),%eax
    59d2:	89 44 24 0c          	mov    %eax,0xc(%esp)
    59d6:	8b 45 ec             	mov    -0x14(%ebp),%eax
    59d9:	89 44 24 10          	mov    %eax,0x10(%esp)
    59dd:	c7 04 24 95 00 00 00 	movl   $0x95,(%esp)
    59e4:	e8 3d bf ff ff       	call   1926 <IDT_WriteIDT>
    59e9:	b8 e4 05 00 00       	mov    $0x5e4,%eax
    59ee:	89 45 e8             	mov    %eax,-0x18(%ebp)
    59f1:	8b 45 e0             	mov    -0x20(%ebp),%eax
    59f4:	89 44 24 04          	mov    %eax,0x4(%esp)
    59f8:	8b 45 e4             	mov    -0x1c(%ebp),%eax
    59fb:	89 44 24 08          	mov    %eax,0x8(%esp)
    59ff:	8b 45 e8             	mov    -0x18(%ebp),%eax
    5a02:	89 44 24 0c          	mov    %eax,0xc(%esp)
    5a06:	8b 45 ec             	mov    -0x14(%ebp),%eax
    5a09:	89 44 24 10          	mov    %eax,0x10(%esp)
    5a0d:	c7 04 24 96 00 00 00 	movl   $0x96,(%esp)
    5a14:	e8 0d bf ff ff       	call   1926 <IDT_WriteIDT>
    5a19:	b8 ea 05 00 00       	mov    $0x5ea,%eax
    5a1e:	89 45 e8             	mov    %eax,-0x18(%ebp)
    5a21:	8b 45 e0             	mov    -0x20(%ebp),%eax
    5a24:	89 44 24 04          	mov    %eax,0x4(%esp)
    5a28:	8b 45 e4             	mov    -0x1c(%ebp),%eax
    5a2b:	89 44 24 08          	mov    %eax,0x8(%esp)
    5a2f:	8b 45 e8             	mov    -0x18(%ebp),%eax
    5a32:	89 44 24 0c          	mov    %eax,0xc(%esp)
    5a36:	8b 45 ec             	mov    -0x14(%ebp),%eax
    5a39:	89 44 24 10          	mov    %eax,0x10(%esp)
    5a3d:	c7 04 24 97 00 00 00 	movl   $0x97,(%esp)
    5a44:	e8 dd be ff ff       	call   1926 <IDT_WriteIDT>
    5a49:	b8 f0 05 00 00       	mov    $0x5f0,%eax
    5a4e:	89 45 e8             	mov    %eax,-0x18(%ebp)
    5a51:	8b 45 e0             	mov    -0x20(%ebp),%eax
    5a54:	89 44 24 04          	mov    %eax,0x4(%esp)
    5a58:	8b 45 e4             	mov    -0x1c(%ebp),%eax
    5a5b:	89 44 24 08          	mov    %eax,0x8(%esp)
    5a5f:	8b 45 e8             	mov    -0x18(%ebp),%eax
    5a62:	89 44 24 0c          	mov    %eax,0xc(%esp)
    5a66:	8b 45 ec             	mov    -0x14(%ebp),%eax
    5a69:	89 44 24 10          	mov    %eax,0x10(%esp)
    5a6d:	c7 04 24 98 00 00 00 	movl   $0x98,(%esp)
    5a74:	e8 ad be ff ff       	call   1926 <IDT_WriteIDT>
    5a79:	b8 f6 05 00 00       	mov    $0x5f6,%eax
    5a7e:	89 45 e8             	mov    %eax,-0x18(%ebp)
    5a81:	8b 45 e0             	mov    -0x20(%ebp),%eax
    5a84:	89 44 24 04          	mov    %eax,0x4(%esp)
    5a88:	8b 45 e4             	mov    -0x1c(%ebp),%eax
    5a8b:	89 44 24 08          	mov    %eax,0x8(%esp)
    5a8f:	8b 45 e8             	mov    -0x18(%ebp),%eax
    5a92:	89 44 24 0c          	mov    %eax,0xc(%esp)
    5a96:	8b 45 ec             	mov    -0x14(%ebp),%eax
    5a99:	89 44 24 10          	mov    %eax,0x10(%esp)
    5a9d:	c7 04 24 99 00 00 00 	movl   $0x99,(%esp)
    5aa4:	e8 7d be ff ff       	call   1926 <IDT_WriteIDT>
    5aa9:	b8 fc 05 00 00       	mov    $0x5fc,%eax
    5aae:	89 45 e8             	mov    %eax,-0x18(%ebp)
    5ab1:	8b 45 e0             	mov    -0x20(%ebp),%eax
    5ab4:	89 44 24 04          	mov    %eax,0x4(%esp)
    5ab8:	8b 45 e4             	mov    -0x1c(%ebp),%eax
    5abb:	89 44 24 08          	mov    %eax,0x8(%esp)
    5abf:	8b 45 e8             	mov    -0x18(%ebp),%eax
    5ac2:	89 44 24 0c          	mov    %eax,0xc(%esp)
    5ac6:	8b 45 ec             	mov    -0x14(%ebp),%eax
    5ac9:	89 44 24 10          	mov    %eax,0x10(%esp)
    5acd:	c7 04 24 9a 00 00 00 	movl   $0x9a,(%esp)
    5ad4:	e8 4d be ff ff       	call   1926 <IDT_WriteIDT>
    5ad9:	b8 02 06 00 00       	mov    $0x602,%eax
    5ade:	89 45 e8             	mov    %eax,-0x18(%ebp)
    5ae1:	8b 45 e0             	mov    -0x20(%ebp),%eax
    5ae4:	89 44 24 04          	mov    %eax,0x4(%esp)
    5ae8:	8b 45 e4             	mov    -0x1c(%ebp),%eax
    5aeb:	89 44 24 08          	mov    %eax,0x8(%esp)
    5aef:	8b 45 e8             	mov    -0x18(%ebp),%eax
    5af2:	89 44 24 0c          	mov    %eax,0xc(%esp)
    5af6:	8b 45 ec             	mov    -0x14(%ebp),%eax
    5af9:	89 44 24 10          	mov    %eax,0x10(%esp)
    5afd:	c7 04 24 9b 00 00 00 	movl   $0x9b,(%esp)
    5b04:	e8 1d be ff ff       	call   1926 <IDT_WriteIDT>
    5b09:	b8 08 06 00 00       	mov    $0x608,%eax
    5b0e:	89 45 e8             	mov    %eax,-0x18(%ebp)
    5b11:	8b 45 e0             	mov    -0x20(%ebp),%eax
    5b14:	89 44 24 04          	mov    %eax,0x4(%esp)
    5b18:	8b 45 e4             	mov    -0x1c(%ebp),%eax
    5b1b:	89 44 24 08          	mov    %eax,0x8(%esp)
    5b1f:	8b 45 e8             	mov    -0x18(%ebp),%eax
    5b22:	89 44 24 0c          	mov    %eax,0xc(%esp)
    5b26:	8b 45 ec             	mov    -0x14(%ebp),%eax
    5b29:	89 44 24 10          	mov    %eax,0x10(%esp)
    5b2d:	c7 04 24 9c 00 00 00 	movl   $0x9c,(%esp)
    5b34:	e8 ed bd ff ff       	call   1926 <IDT_WriteIDT>
    5b39:	b8 0e 06 00 00       	mov    $0x60e,%eax
    5b3e:	89 45 e8             	mov    %eax,-0x18(%ebp)
    5b41:	8b 45 e0             	mov    -0x20(%ebp),%eax
    5b44:	89 44 24 04          	mov    %eax,0x4(%esp)
    5b48:	8b 45 e4             	mov    -0x1c(%ebp),%eax
    5b4b:	89 44 24 08          	mov    %eax,0x8(%esp)
    5b4f:	8b 45 e8             	mov    -0x18(%ebp),%eax
    5b52:	89 44 24 0c          	mov    %eax,0xc(%esp)
    5b56:	8b 45 ec             	mov    -0x14(%ebp),%eax
    5b59:	89 44 24 10          	mov    %eax,0x10(%esp)
    5b5d:	c7 04 24 9d 00 00 00 	movl   $0x9d,(%esp)
    5b64:	e8 bd bd ff ff       	call   1926 <IDT_WriteIDT>
    5b69:	b8 14 06 00 00       	mov    $0x614,%eax
    5b6e:	89 45 e8             	mov    %eax,-0x18(%ebp)
    5b71:	8b 45 e0             	mov    -0x20(%ebp),%eax
    5b74:	89 44 24 04          	mov    %eax,0x4(%esp)
    5b78:	8b 45 e4             	mov    -0x1c(%ebp),%eax
    5b7b:	89 44 24 08          	mov    %eax,0x8(%esp)
    5b7f:	8b 45 e8             	mov    -0x18(%ebp),%eax
    5b82:	89 44 24 0c          	mov    %eax,0xc(%esp)
    5b86:	8b 45 ec             	mov    -0x14(%ebp),%eax
    5b89:	89 44 24 10          	mov    %eax,0x10(%esp)
    5b8d:	c7 04 24 9e 00 00 00 	movl   $0x9e,(%esp)
    5b94:	e8 8d bd ff ff       	call   1926 <IDT_WriteIDT>
    5b99:	b8 1a 06 00 00       	mov    $0x61a,%eax
    5b9e:	89 45 e8             	mov    %eax,-0x18(%ebp)
    5ba1:	8b 45 e0             	mov    -0x20(%ebp),%eax
    5ba4:	89 44 24 04          	mov    %eax,0x4(%esp)
    5ba8:	8b 45 e4             	mov    -0x1c(%ebp),%eax
    5bab:	89 44 24 08          	mov    %eax,0x8(%esp)
    5baf:	8b 45 e8             	mov    -0x18(%ebp),%eax
    5bb2:	89 44 24 0c          	mov    %eax,0xc(%esp)
    5bb6:	8b 45 ec             	mov    -0x14(%ebp),%eax
    5bb9:	89 44 24 10          	mov    %eax,0x10(%esp)
    5bbd:	c7 04 24 9f 00 00 00 	movl   $0x9f,(%esp)
    5bc4:	e8 5d bd ff ff       	call   1926 <IDT_WriteIDT>
    5bc9:	b8 20 06 00 00       	mov    $0x620,%eax
    5bce:	89 45 e8             	mov    %eax,-0x18(%ebp)
    5bd1:	8b 45 e0             	mov    -0x20(%ebp),%eax
    5bd4:	89 44 24 04          	mov    %eax,0x4(%esp)
    5bd8:	8b 45 e4             	mov    -0x1c(%ebp),%eax
    5bdb:	89 44 24 08          	mov    %eax,0x8(%esp)
    5bdf:	8b 45 e8             	mov    -0x18(%ebp),%eax
    5be2:	89 44 24 0c          	mov    %eax,0xc(%esp)
    5be6:	8b 45 ec             	mov    -0x14(%ebp),%eax
    5be9:	89 44 24 10          	mov    %eax,0x10(%esp)
    5bed:	c7 04 24 a0 00 00 00 	movl   $0xa0,(%esp)
    5bf4:	e8 2d bd ff ff       	call   1926 <IDT_WriteIDT>
    5bf9:	b8 26 06 00 00       	mov    $0x626,%eax
    5bfe:	89 45 e8             	mov    %eax,-0x18(%ebp)
    5c01:	8b 45 e0             	mov    -0x20(%ebp),%eax
    5c04:	89 44 24 04          	mov    %eax,0x4(%esp)
    5c08:	8b 45 e4             	mov    -0x1c(%ebp),%eax
    5c0b:	89 44 24 08          	mov    %eax,0x8(%esp)
    5c0f:	8b 45 e8             	mov    -0x18(%ebp),%eax
    5c12:	89 44 24 0c          	mov    %eax,0xc(%esp)
    5c16:	8b 45 ec             	mov    -0x14(%ebp),%eax
    5c19:	89 44 24 10          	mov    %eax,0x10(%esp)
    5c1d:	c7 04 24 a1 00 00 00 	movl   $0xa1,(%esp)
    5c24:	e8 fd bc ff ff       	call   1926 <IDT_WriteIDT>
    5c29:	b8 2c 06 00 00       	mov    $0x62c,%eax
    5c2e:	89 45 e8             	mov    %eax,-0x18(%ebp)
    5c31:	8b 45 e0             	mov    -0x20(%ebp),%eax
    5c34:	89 44 24 04          	mov    %eax,0x4(%esp)
    5c38:	8b 45 e4             	mov    -0x1c(%ebp),%eax
    5c3b:	89 44 24 08          	mov    %eax,0x8(%esp)
    5c3f:	8b 45 e8             	mov    -0x18(%ebp),%eax
    5c42:	89 44 24 0c          	mov    %eax,0xc(%esp)
    5c46:	8b 45 ec             	mov    -0x14(%ebp),%eax
    5c49:	89 44 24 10          	mov    %eax,0x10(%esp)
    5c4d:	c7 04 24 a2 00 00 00 	movl   $0xa2,(%esp)
    5c54:	e8 cd bc ff ff       	call   1926 <IDT_WriteIDT>
    5c59:	b8 32 06 00 00       	mov    $0x632,%eax
    5c5e:	89 45 e8             	mov    %eax,-0x18(%ebp)
    5c61:	8b 45 e0             	mov    -0x20(%ebp),%eax
    5c64:	89 44 24 04          	mov    %eax,0x4(%esp)
    5c68:	8b 45 e4             	mov    -0x1c(%ebp),%eax
    5c6b:	89 44 24 08          	mov    %eax,0x8(%esp)
    5c6f:	8b 45 e8             	mov    -0x18(%ebp),%eax
    5c72:	89 44 24 0c          	mov    %eax,0xc(%esp)
    5c76:	8b 45 ec             	mov    -0x14(%ebp),%eax
    5c79:	89 44 24 10          	mov    %eax,0x10(%esp)
    5c7d:	c7 04 24 a3 00 00 00 	movl   $0xa3,(%esp)
    5c84:	e8 9d bc ff ff       	call   1926 <IDT_WriteIDT>
    5c89:	b8 38 06 00 00       	mov    $0x638,%eax
    5c8e:	89 45 e8             	mov    %eax,-0x18(%ebp)
    5c91:	8b 45 e0             	mov    -0x20(%ebp),%eax
    5c94:	89 44 24 04          	mov    %eax,0x4(%esp)
    5c98:	8b 45 e4             	mov    -0x1c(%ebp),%eax
    5c9b:	89 44 24 08          	mov    %eax,0x8(%esp)
    5c9f:	8b 45 e8             	mov    -0x18(%ebp),%eax
    5ca2:	89 44 24 0c          	mov    %eax,0xc(%esp)
    5ca6:	8b 45 ec             	mov    -0x14(%ebp),%eax
    5ca9:	89 44 24 10          	mov    %eax,0x10(%esp)
    5cad:	c7 04 24 a4 00 00 00 	movl   $0xa4,(%esp)
    5cb4:	e8 6d bc ff ff       	call   1926 <IDT_WriteIDT>
    5cb9:	b8 3e 06 00 00       	mov    $0x63e,%eax
    5cbe:	89 45 e8             	mov    %eax,-0x18(%ebp)
    5cc1:	8b 45 e0             	mov    -0x20(%ebp),%eax
    5cc4:	89 44 24 04          	mov    %eax,0x4(%esp)
    5cc8:	8b 45 e4             	mov    -0x1c(%ebp),%eax
    5ccb:	89 44 24 08          	mov    %eax,0x8(%esp)
    5ccf:	8b 45 e8             	mov    -0x18(%ebp),%eax
    5cd2:	89 44 24 0c          	mov    %eax,0xc(%esp)
    5cd6:	8b 45 ec             	mov    -0x14(%ebp),%eax
    5cd9:	89 44 24 10          	mov    %eax,0x10(%esp)
    5cdd:	c7 04 24 a5 00 00 00 	movl   $0xa5,(%esp)
    5ce4:	e8 3d bc ff ff       	call   1926 <IDT_WriteIDT>
    5ce9:	b8 44 06 00 00       	mov    $0x644,%eax
    5cee:	89 45 e8             	mov    %eax,-0x18(%ebp)
    5cf1:	8b 45 e0             	mov    -0x20(%ebp),%eax
    5cf4:	89 44 24 04          	mov    %eax,0x4(%esp)
    5cf8:	8b 45 e4             	mov    -0x1c(%ebp),%eax
    5cfb:	89 44 24 08          	mov    %eax,0x8(%esp)
    5cff:	8b 45 e8             	mov    -0x18(%ebp),%eax
    5d02:	89 44 24 0c          	mov    %eax,0xc(%esp)
    5d06:	8b 45 ec             	mov    -0x14(%ebp),%eax
    5d09:	89 44 24 10          	mov    %eax,0x10(%esp)
    5d0d:	c7 04 24 a6 00 00 00 	movl   $0xa6,(%esp)
    5d14:	e8 0d bc ff ff       	call   1926 <IDT_WriteIDT>
    5d19:	b8 4a 06 00 00       	mov    $0x64a,%eax
    5d1e:	89 45 e8             	mov    %eax,-0x18(%ebp)
    5d21:	8b 45 e0             	mov    -0x20(%ebp),%eax
    5d24:	89 44 24 04          	mov    %eax,0x4(%esp)
    5d28:	8b 45 e4             	mov    -0x1c(%ebp),%eax
    5d2b:	89 44 24 08          	mov    %eax,0x8(%esp)
    5d2f:	8b 45 e8             	mov    -0x18(%ebp),%eax
    5d32:	89 44 24 0c          	mov    %eax,0xc(%esp)
    5d36:	8b 45 ec             	mov    -0x14(%ebp),%eax
    5d39:	89 44 24 10          	mov    %eax,0x10(%esp)
    5d3d:	c7 04 24 a7 00 00 00 	movl   $0xa7,(%esp)
    5d44:	e8 dd bb ff ff       	call   1926 <IDT_WriteIDT>
    5d49:	b8 50 06 00 00       	mov    $0x650,%eax
    5d4e:	89 45 e8             	mov    %eax,-0x18(%ebp)
    5d51:	8b 45 e0             	mov    -0x20(%ebp),%eax
    5d54:	89 44 24 04          	mov    %eax,0x4(%esp)
    5d58:	8b 45 e4             	mov    -0x1c(%ebp),%eax
    5d5b:	89 44 24 08          	mov    %eax,0x8(%esp)
    5d5f:	8b 45 e8             	mov    -0x18(%ebp),%eax
    5d62:	89 44 24 0c          	mov    %eax,0xc(%esp)
    5d66:	8b 45 ec             	mov    -0x14(%ebp),%eax
    5d69:	89 44 24 10          	mov    %eax,0x10(%esp)
    5d6d:	c7 04 24 a8 00 00 00 	movl   $0xa8,(%esp)
    5d74:	e8 ad bb ff ff       	call   1926 <IDT_WriteIDT>
    5d79:	b8 56 06 00 00       	mov    $0x656,%eax
    5d7e:	89 45 e8             	mov    %eax,-0x18(%ebp)
    5d81:	8b 45 e0             	mov    -0x20(%ebp),%eax
    5d84:	89 44 24 04          	mov    %eax,0x4(%esp)
    5d88:	8b 45 e4             	mov    -0x1c(%ebp),%eax
    5d8b:	89 44 24 08          	mov    %eax,0x8(%esp)
    5d8f:	8b 45 e8             	mov    -0x18(%ebp),%eax
    5d92:	89 44 24 0c          	mov    %eax,0xc(%esp)
    5d96:	8b 45 ec             	mov    -0x14(%ebp),%eax
    5d99:	89 44 24 10          	mov    %eax,0x10(%esp)
    5d9d:	c7 04 24 a9 00 00 00 	movl   $0xa9,(%esp)
    5da4:	e8 7d bb ff ff       	call   1926 <IDT_WriteIDT>
    5da9:	b8 5c 06 00 00       	mov    $0x65c,%eax
    5dae:	89 45 e8             	mov    %eax,-0x18(%ebp)
    5db1:	8b 45 e0             	mov    -0x20(%ebp),%eax
    5db4:	89 44 24 04          	mov    %eax,0x4(%esp)
    5db8:	8b 45 e4             	mov    -0x1c(%ebp),%eax
    5dbb:	89 44 24 08          	mov    %eax,0x8(%esp)
    5dbf:	8b 45 e8             	mov    -0x18(%ebp),%eax
    5dc2:	89 44 24 0c          	mov    %eax,0xc(%esp)
    5dc6:	8b 45 ec             	mov    -0x14(%ebp),%eax
    5dc9:	89 44 24 10          	mov    %eax,0x10(%esp)
    5dcd:	c7 04 24 aa 00 00 00 	movl   $0xaa,(%esp)
    5dd4:	e8 4d bb ff ff       	call   1926 <IDT_WriteIDT>
    5dd9:	b8 62 06 00 00       	mov    $0x662,%eax
    5dde:	89 45 e8             	mov    %eax,-0x18(%ebp)
    5de1:	8b 45 e0             	mov    -0x20(%ebp),%eax
    5de4:	89 44 24 04          	mov    %eax,0x4(%esp)
    5de8:	8b 45 e4             	mov    -0x1c(%ebp),%eax
    5deb:	89 44 24 08          	mov    %eax,0x8(%esp)
    5def:	8b 45 e8             	mov    -0x18(%ebp),%eax
    5df2:	89 44 24 0c          	mov    %eax,0xc(%esp)
    5df6:	8b 45 ec             	mov    -0x14(%ebp),%eax
    5df9:	89 44 24 10          	mov    %eax,0x10(%esp)
    5dfd:	c7 04 24 ab 00 00 00 	movl   $0xab,(%esp)
    5e04:	e8 1d bb ff ff       	call   1926 <IDT_WriteIDT>
    5e09:	b8 68 06 00 00       	mov    $0x668,%eax
    5e0e:	89 45 e8             	mov    %eax,-0x18(%ebp)
    5e11:	8b 45 e0             	mov    -0x20(%ebp),%eax
    5e14:	89 44 24 04          	mov    %eax,0x4(%esp)
    5e18:	8b 45 e4             	mov    -0x1c(%ebp),%eax
    5e1b:	89 44 24 08          	mov    %eax,0x8(%esp)
    5e1f:	8b 45 e8             	mov    -0x18(%ebp),%eax
    5e22:	89 44 24 0c          	mov    %eax,0xc(%esp)
    5e26:	8b 45 ec             	mov    -0x14(%ebp),%eax
    5e29:	89 44 24 10          	mov    %eax,0x10(%esp)
    5e2d:	c7 04 24 ac 00 00 00 	movl   $0xac,(%esp)
    5e34:	e8 ed ba ff ff       	call   1926 <IDT_WriteIDT>
    5e39:	b8 6e 06 00 00       	mov    $0x66e,%eax
    5e3e:	89 45 e8             	mov    %eax,-0x18(%ebp)
    5e41:	8b 45 e0             	mov    -0x20(%ebp),%eax
    5e44:	89 44 24 04          	mov    %eax,0x4(%esp)
    5e48:	8b 45 e4             	mov    -0x1c(%ebp),%eax
    5e4b:	89 44 24 08          	mov    %eax,0x8(%esp)
    5e4f:	8b 45 e8             	mov    -0x18(%ebp),%eax
    5e52:	89 44 24 0c          	mov    %eax,0xc(%esp)
    5e56:	8b 45 ec             	mov    -0x14(%ebp),%eax
    5e59:	89 44 24 10          	mov    %eax,0x10(%esp)
    5e5d:	c7 04 24 ad 00 00 00 	movl   $0xad,(%esp)
    5e64:	e8 bd ba ff ff       	call   1926 <IDT_WriteIDT>
    5e69:	b8 74 06 00 00       	mov    $0x674,%eax
    5e6e:	89 45 e8             	mov    %eax,-0x18(%ebp)
    5e71:	8b 45 e0             	mov    -0x20(%ebp),%eax
    5e74:	89 44 24 04          	mov    %eax,0x4(%esp)
    5e78:	8b 45 e4             	mov    -0x1c(%ebp),%eax
    5e7b:	89 44 24 08          	mov    %eax,0x8(%esp)
    5e7f:	8b 45 e8             	mov    -0x18(%ebp),%eax
    5e82:	89 44 24 0c          	mov    %eax,0xc(%esp)
    5e86:	8b 45 ec             	mov    -0x14(%ebp),%eax
    5e89:	89 44 24 10          	mov    %eax,0x10(%esp)
    5e8d:	c7 04 24 ae 00 00 00 	movl   $0xae,(%esp)
    5e94:	e8 8d ba ff ff       	call   1926 <IDT_WriteIDT>
    5e99:	b8 7a 06 00 00       	mov    $0x67a,%eax
    5e9e:	89 45 e8             	mov    %eax,-0x18(%ebp)
    5ea1:	8b 45 e0             	mov    -0x20(%ebp),%eax
    5ea4:	89 44 24 04          	mov    %eax,0x4(%esp)
    5ea8:	8b 45 e4             	mov    -0x1c(%ebp),%eax
    5eab:	89 44 24 08          	mov    %eax,0x8(%esp)
    5eaf:	8b 45 e8             	mov    -0x18(%ebp),%eax
    5eb2:	89 44 24 0c          	mov    %eax,0xc(%esp)
    5eb6:	8b 45 ec             	mov    -0x14(%ebp),%eax
    5eb9:	89 44 24 10          	mov    %eax,0x10(%esp)
    5ebd:	c7 04 24 af 00 00 00 	movl   $0xaf,(%esp)
    5ec4:	e8 5d ba ff ff       	call   1926 <IDT_WriteIDT>
    5ec9:	b8 80 06 00 00       	mov    $0x680,%eax
    5ece:	89 45 e8             	mov    %eax,-0x18(%ebp)
    5ed1:	8b 45 e0             	mov    -0x20(%ebp),%eax
    5ed4:	89 44 24 04          	mov    %eax,0x4(%esp)
    5ed8:	8b 45 e4             	mov    -0x1c(%ebp),%eax
    5edb:	89 44 24 08          	mov    %eax,0x8(%esp)
    5edf:	8b 45 e8             	mov    -0x18(%ebp),%eax
    5ee2:	89 44 24 0c          	mov    %eax,0xc(%esp)
    5ee6:	8b 45 ec             	mov    -0x14(%ebp),%eax
    5ee9:	89 44 24 10          	mov    %eax,0x10(%esp)
    5eed:	c7 04 24 b0 00 00 00 	movl   $0xb0,(%esp)
    5ef4:	e8 2d ba ff ff       	call   1926 <IDT_WriteIDT>
    5ef9:	b8 86 06 00 00       	mov    $0x686,%eax
    5efe:	89 45 e8             	mov    %eax,-0x18(%ebp)
    5f01:	8b 45 e0             	mov    -0x20(%ebp),%eax
    5f04:	89 44 24 04          	mov    %eax,0x4(%esp)
    5f08:	8b 45 e4             	mov    -0x1c(%ebp),%eax
    5f0b:	89 44 24 08          	mov    %eax,0x8(%esp)
    5f0f:	8b 45 e8             	mov    -0x18(%ebp),%eax
    5f12:	89 44 24 0c          	mov    %eax,0xc(%esp)
    5f16:	8b 45 ec             	mov    -0x14(%ebp),%eax
    5f19:	89 44 24 10          	mov    %eax,0x10(%esp)
    5f1d:	c7 04 24 b1 00 00 00 	movl   $0xb1,(%esp)
    5f24:	e8 fd b9 ff ff       	call   1926 <IDT_WriteIDT>
    5f29:	b8 8c 06 00 00       	mov    $0x68c,%eax
    5f2e:	89 45 e8             	mov    %eax,-0x18(%ebp)
    5f31:	8b 45 e0             	mov    -0x20(%ebp),%eax
    5f34:	89 44 24 04          	mov    %eax,0x4(%esp)
    5f38:	8b 45 e4             	mov    -0x1c(%ebp),%eax
    5f3b:	89 44 24 08          	mov    %eax,0x8(%esp)
    5f3f:	8b 45 e8             	mov    -0x18(%ebp),%eax
    5f42:	89 44 24 0c          	mov    %eax,0xc(%esp)
    5f46:	8b 45 ec             	mov    -0x14(%ebp),%eax
    5f49:	89 44 24 10          	mov    %eax,0x10(%esp)
    5f4d:	c7 04 24 b2 00 00 00 	movl   $0xb2,(%esp)
    5f54:	e8 cd b9 ff ff       	call   1926 <IDT_WriteIDT>
    5f59:	b8 92 06 00 00       	mov    $0x692,%eax
    5f5e:	89 45 e8             	mov    %eax,-0x18(%ebp)
    5f61:	8b 45 e0             	mov    -0x20(%ebp),%eax
    5f64:	89 44 24 04          	mov    %eax,0x4(%esp)
    5f68:	8b 45 e4             	mov    -0x1c(%ebp),%eax
    5f6b:	89 44 24 08          	mov    %eax,0x8(%esp)
    5f6f:	8b 45 e8             	mov    -0x18(%ebp),%eax
    5f72:	89 44 24 0c          	mov    %eax,0xc(%esp)
    5f76:	8b 45 ec             	mov    -0x14(%ebp),%eax
    5f79:	89 44 24 10          	mov    %eax,0x10(%esp)
    5f7d:	c7 04 24 b3 00 00 00 	movl   $0xb3,(%esp)
    5f84:	e8 9d b9 ff ff       	call   1926 <IDT_WriteIDT>
    5f89:	b8 98 06 00 00       	mov    $0x698,%eax
    5f8e:	89 45 e8             	mov    %eax,-0x18(%ebp)
    5f91:	8b 45 e0             	mov    -0x20(%ebp),%eax
    5f94:	89 44 24 04          	mov    %eax,0x4(%esp)
    5f98:	8b 45 e4             	mov    -0x1c(%ebp),%eax
    5f9b:	89 44 24 08          	mov    %eax,0x8(%esp)
    5f9f:	8b 45 e8             	mov    -0x18(%ebp),%eax
    5fa2:	89 44 24 0c          	mov    %eax,0xc(%esp)
    5fa6:	8b 45 ec             	mov    -0x14(%ebp),%eax
    5fa9:	89 44 24 10          	mov    %eax,0x10(%esp)
    5fad:	c7 04 24 b4 00 00 00 	movl   $0xb4,(%esp)
    5fb4:	e8 6d b9 ff ff       	call   1926 <IDT_WriteIDT>
    5fb9:	b8 9e 06 00 00       	mov    $0x69e,%eax
    5fbe:	89 45 e8             	mov    %eax,-0x18(%ebp)
    5fc1:	8b 45 e0             	mov    -0x20(%ebp),%eax
    5fc4:	89 44 24 04          	mov    %eax,0x4(%esp)
    5fc8:	8b 45 e4             	mov    -0x1c(%ebp),%eax
    5fcb:	89 44 24 08          	mov    %eax,0x8(%esp)
    5fcf:	8b 45 e8             	mov    -0x18(%ebp),%eax
    5fd2:	89 44 24 0c          	mov    %eax,0xc(%esp)
    5fd6:	8b 45 ec             	mov    -0x14(%ebp),%eax
    5fd9:	89 44 24 10          	mov    %eax,0x10(%esp)
    5fdd:	c7 04 24 b5 00 00 00 	movl   $0xb5,(%esp)
    5fe4:	e8 3d b9 ff ff       	call   1926 <IDT_WriteIDT>
    5fe9:	b8 a4 06 00 00       	mov    $0x6a4,%eax
    5fee:	89 45 e8             	mov    %eax,-0x18(%ebp)
    5ff1:	8b 45 e0             	mov    -0x20(%ebp),%eax
    5ff4:	89 44 24 04          	mov    %eax,0x4(%esp)
    5ff8:	8b 45 e4             	mov    -0x1c(%ebp),%eax
    5ffb:	89 44 24 08          	mov    %eax,0x8(%esp)
    5fff:	8b 45 e8             	mov    -0x18(%ebp),%eax
    6002:	89 44 24 0c          	mov    %eax,0xc(%esp)
    6006:	8b 45 ec             	mov    -0x14(%ebp),%eax
    6009:	89 44 24 10          	mov    %eax,0x10(%esp)
    600d:	c7 04 24 b6 00 00 00 	movl   $0xb6,(%esp)
    6014:	e8 0d b9 ff ff       	call   1926 <IDT_WriteIDT>
    6019:	b8 aa 06 00 00       	mov    $0x6aa,%eax
    601e:	89 45 e8             	mov    %eax,-0x18(%ebp)
    6021:	8b 45 e0             	mov    -0x20(%ebp),%eax
    6024:	89 44 24 04          	mov    %eax,0x4(%esp)
    6028:	8b 45 e4             	mov    -0x1c(%ebp),%eax
    602b:	89 44 24 08          	mov    %eax,0x8(%esp)
    602f:	8b 45 e8             	mov    -0x18(%ebp),%eax
    6032:	89 44 24 0c          	mov    %eax,0xc(%esp)
    6036:	8b 45 ec             	mov    -0x14(%ebp),%eax
    6039:	89 44 24 10          	mov    %eax,0x10(%esp)
    603d:	c7 04 24 b7 00 00 00 	movl   $0xb7,(%esp)
    6044:	e8 dd b8 ff ff       	call   1926 <IDT_WriteIDT>
    6049:	b8 b0 06 00 00       	mov    $0x6b0,%eax
    604e:	89 45 e8             	mov    %eax,-0x18(%ebp)
    6051:	8b 45 e0             	mov    -0x20(%ebp),%eax
    6054:	89 44 24 04          	mov    %eax,0x4(%esp)
    6058:	8b 45 e4             	mov    -0x1c(%ebp),%eax
    605b:	89 44 24 08          	mov    %eax,0x8(%esp)
    605f:	8b 45 e8             	mov    -0x18(%ebp),%eax
    6062:	89 44 24 0c          	mov    %eax,0xc(%esp)
    6066:	8b 45 ec             	mov    -0x14(%ebp),%eax
    6069:	89 44 24 10          	mov    %eax,0x10(%esp)
    606d:	c7 04 24 b8 00 00 00 	movl   $0xb8,(%esp)
    6074:	e8 ad b8 ff ff       	call   1926 <IDT_WriteIDT>
    6079:	b8 b6 06 00 00       	mov    $0x6b6,%eax
    607e:	89 45 e8             	mov    %eax,-0x18(%ebp)
    6081:	8b 45 e0             	mov    -0x20(%ebp),%eax
    6084:	89 44 24 04          	mov    %eax,0x4(%esp)
    6088:	8b 45 e4             	mov    -0x1c(%ebp),%eax
    608b:	89 44 24 08          	mov    %eax,0x8(%esp)
    608f:	8b 45 e8             	mov    -0x18(%ebp),%eax
    6092:	89 44 24 0c          	mov    %eax,0xc(%esp)
    6096:	8b 45 ec             	mov    -0x14(%ebp),%eax
    6099:	89 44 24 10          	mov    %eax,0x10(%esp)
    609d:	c7 04 24 b9 00 00 00 	movl   $0xb9,(%esp)
    60a4:	e8 7d b8 ff ff       	call   1926 <IDT_WriteIDT>
    60a9:	b8 bc 06 00 00       	mov    $0x6bc,%eax
    60ae:	89 45 e8             	mov    %eax,-0x18(%ebp)
    60b1:	8b 45 e0             	mov    -0x20(%ebp),%eax
    60b4:	89 44 24 04          	mov    %eax,0x4(%esp)
    60b8:	8b 45 e4             	mov    -0x1c(%ebp),%eax
    60bb:	89 44 24 08          	mov    %eax,0x8(%esp)
    60bf:	8b 45 e8             	mov    -0x18(%ebp),%eax
    60c2:	89 44 24 0c          	mov    %eax,0xc(%esp)
    60c6:	8b 45 ec             	mov    -0x14(%ebp),%eax
    60c9:	89 44 24 10          	mov    %eax,0x10(%esp)
    60cd:	c7 04 24 ba 00 00 00 	movl   $0xba,(%esp)
    60d4:	e8 4d b8 ff ff       	call   1926 <IDT_WriteIDT>
    60d9:	b8 c2 06 00 00       	mov    $0x6c2,%eax
    60de:	89 45 e8             	mov    %eax,-0x18(%ebp)
    60e1:	8b 45 e0             	mov    -0x20(%ebp),%eax
    60e4:	89 44 24 04          	mov    %eax,0x4(%esp)
    60e8:	8b 45 e4             	mov    -0x1c(%ebp),%eax
    60eb:	89 44 24 08          	mov    %eax,0x8(%esp)
    60ef:	8b 45 e8             	mov    -0x18(%ebp),%eax
    60f2:	89 44 24 0c          	mov    %eax,0xc(%esp)
    60f6:	8b 45 ec             	mov    -0x14(%ebp),%eax
    60f9:	89 44 24 10          	mov    %eax,0x10(%esp)
    60fd:	c7 04 24 bb 00 00 00 	movl   $0xbb,(%esp)
    6104:	e8 1d b8 ff ff       	call   1926 <IDT_WriteIDT>
    6109:	b8 c8 06 00 00       	mov    $0x6c8,%eax
    610e:	89 45 e8             	mov    %eax,-0x18(%ebp)
    6111:	8b 45 e0             	mov    -0x20(%ebp),%eax
    6114:	89 44 24 04          	mov    %eax,0x4(%esp)
    6118:	8b 45 e4             	mov    -0x1c(%ebp),%eax
    611b:	89 44 24 08          	mov    %eax,0x8(%esp)
    611f:	8b 45 e8             	mov    -0x18(%ebp),%eax
    6122:	89 44 24 0c          	mov    %eax,0xc(%esp)
    6126:	8b 45 ec             	mov    -0x14(%ebp),%eax
    6129:	89 44 24 10          	mov    %eax,0x10(%esp)
    612d:	c7 04 24 bc 00 00 00 	movl   $0xbc,(%esp)
    6134:	e8 ed b7 ff ff       	call   1926 <IDT_WriteIDT>
    6139:	b8 ce 06 00 00       	mov    $0x6ce,%eax
    613e:	89 45 e8             	mov    %eax,-0x18(%ebp)
    6141:	8b 45 e0             	mov    -0x20(%ebp),%eax
    6144:	89 44 24 04          	mov    %eax,0x4(%esp)
    6148:	8b 45 e4             	mov    -0x1c(%ebp),%eax
    614b:	89 44 24 08          	mov    %eax,0x8(%esp)
    614f:	8b 45 e8             	mov    -0x18(%ebp),%eax
    6152:	89 44 24 0c          	mov    %eax,0xc(%esp)
    6156:	8b 45 ec             	mov    -0x14(%ebp),%eax
    6159:	89 44 24 10          	mov    %eax,0x10(%esp)
    615d:	c7 04 24 bd 00 00 00 	movl   $0xbd,(%esp)
    6164:	e8 bd b7 ff ff       	call   1926 <IDT_WriteIDT>
    6169:	b8 d4 06 00 00       	mov    $0x6d4,%eax
    616e:	89 45 e8             	mov    %eax,-0x18(%ebp)
    6171:	8b 45 e0             	mov    -0x20(%ebp),%eax
    6174:	89 44 24 04          	mov    %eax,0x4(%esp)
    6178:	8b 45 e4             	mov    -0x1c(%ebp),%eax
    617b:	89 44 24 08          	mov    %eax,0x8(%esp)
    617f:	8b 45 e8             	mov    -0x18(%ebp),%eax
    6182:	89 44 24 0c          	mov    %eax,0xc(%esp)
    6186:	8b 45 ec             	mov    -0x14(%ebp),%eax
    6189:	89 44 24 10          	mov    %eax,0x10(%esp)
    618d:	c7 04 24 be 00 00 00 	movl   $0xbe,(%esp)
    6194:	e8 8d b7 ff ff       	call   1926 <IDT_WriteIDT>
    6199:	b8 da 06 00 00       	mov    $0x6da,%eax
    619e:	89 45 e8             	mov    %eax,-0x18(%ebp)
    61a1:	8b 45 e0             	mov    -0x20(%ebp),%eax
    61a4:	89 44 24 04          	mov    %eax,0x4(%esp)
    61a8:	8b 45 e4             	mov    -0x1c(%ebp),%eax
    61ab:	89 44 24 08          	mov    %eax,0x8(%esp)
    61af:	8b 45 e8             	mov    -0x18(%ebp),%eax
    61b2:	89 44 24 0c          	mov    %eax,0xc(%esp)
    61b6:	8b 45 ec             	mov    -0x14(%ebp),%eax
    61b9:	89 44 24 10          	mov    %eax,0x10(%esp)
    61bd:	c7 04 24 bf 00 00 00 	movl   $0xbf,(%esp)
    61c4:	e8 5d b7 ff ff       	call   1926 <IDT_WriteIDT>
    61c9:	b8 e0 06 00 00       	mov    $0x6e0,%eax
    61ce:	89 45 e8             	mov    %eax,-0x18(%ebp)
    61d1:	8b 45 e0             	mov    -0x20(%ebp),%eax
    61d4:	89 44 24 04          	mov    %eax,0x4(%esp)
    61d8:	8b 45 e4             	mov    -0x1c(%ebp),%eax
    61db:	89 44 24 08          	mov    %eax,0x8(%esp)
    61df:	8b 45 e8             	mov    -0x18(%ebp),%eax
    61e2:	89 44 24 0c          	mov    %eax,0xc(%esp)
    61e6:	8b 45 ec             	mov    -0x14(%ebp),%eax
    61e9:	89 44 24 10          	mov    %eax,0x10(%esp)
    61ed:	c7 04 24 c0 00 00 00 	movl   $0xc0,(%esp)
    61f4:	e8 2d b7 ff ff       	call   1926 <IDT_WriteIDT>
    61f9:	b8 e6 06 00 00       	mov    $0x6e6,%eax
    61fe:	89 45 e8             	mov    %eax,-0x18(%ebp)
    6201:	8b 45 e0             	mov    -0x20(%ebp),%eax
    6204:	89 44 24 04          	mov    %eax,0x4(%esp)
    6208:	8b 45 e4             	mov    -0x1c(%ebp),%eax
    620b:	89 44 24 08          	mov    %eax,0x8(%esp)
    620f:	8b 45 e8             	mov    -0x18(%ebp),%eax
    6212:	89 44 24 0c          	mov    %eax,0xc(%esp)
    6216:	8b 45 ec             	mov    -0x14(%ebp),%eax
    6219:	89 44 24 10          	mov    %eax,0x10(%esp)
    621d:	c7 04 24 c1 00 00 00 	movl   $0xc1,(%esp)
    6224:	e8 fd b6 ff ff       	call   1926 <IDT_WriteIDT>
    6229:	b8 ec 06 00 00       	mov    $0x6ec,%eax
    622e:	89 45 e8             	mov    %eax,-0x18(%ebp)
    6231:	8b 45 e0             	mov    -0x20(%ebp),%eax
    6234:	89 44 24 04          	mov    %eax,0x4(%esp)
    6238:	8b 45 e4             	mov    -0x1c(%ebp),%eax
    623b:	89 44 24 08          	mov    %eax,0x8(%esp)
    623f:	8b 45 e8             	mov    -0x18(%ebp),%eax
    6242:	89 44 24 0c          	mov    %eax,0xc(%esp)
    6246:	8b 45 ec             	mov    -0x14(%ebp),%eax
    6249:	89 44 24 10          	mov    %eax,0x10(%esp)
    624d:	c7 04 24 c2 00 00 00 	movl   $0xc2,(%esp)
    6254:	e8 cd b6 ff ff       	call   1926 <IDT_WriteIDT>
    6259:	b8 f2 06 00 00       	mov    $0x6f2,%eax
    625e:	89 45 e8             	mov    %eax,-0x18(%ebp)
    6261:	8b 45 e0             	mov    -0x20(%ebp),%eax
    6264:	89 44 24 04          	mov    %eax,0x4(%esp)
    6268:	8b 45 e4             	mov    -0x1c(%ebp),%eax
    626b:	89 44 24 08          	mov    %eax,0x8(%esp)
    626f:	8b 45 e8             	mov    -0x18(%ebp),%eax
    6272:	89 44 24 0c          	mov    %eax,0xc(%esp)
    6276:	8b 45 ec             	mov    -0x14(%ebp),%eax
    6279:	89 44 24 10          	mov    %eax,0x10(%esp)
    627d:	c7 04 24 c3 00 00 00 	movl   $0xc3,(%esp)
    6284:	e8 9d b6 ff ff       	call   1926 <IDT_WriteIDT>
    6289:	b8 f8 06 00 00       	mov    $0x6f8,%eax
    628e:	89 45 e8             	mov    %eax,-0x18(%ebp)
    6291:	8b 45 e0             	mov    -0x20(%ebp),%eax
    6294:	89 44 24 04          	mov    %eax,0x4(%esp)
    6298:	8b 45 e4             	mov    -0x1c(%ebp),%eax
    629b:	89 44 24 08          	mov    %eax,0x8(%esp)
    629f:	8b 45 e8             	mov    -0x18(%ebp),%eax
    62a2:	89 44 24 0c          	mov    %eax,0xc(%esp)
    62a6:	8b 45 ec             	mov    -0x14(%ebp),%eax
    62a9:	89 44 24 10          	mov    %eax,0x10(%esp)
    62ad:	c7 04 24 c4 00 00 00 	movl   $0xc4,(%esp)
    62b4:	e8 6d b6 ff ff       	call   1926 <IDT_WriteIDT>
    62b9:	b8 fe 06 00 00       	mov    $0x6fe,%eax
    62be:	89 45 e8             	mov    %eax,-0x18(%ebp)
    62c1:	8b 45 e0             	mov    -0x20(%ebp),%eax
    62c4:	89 44 24 04          	mov    %eax,0x4(%esp)
    62c8:	8b 45 e4             	mov    -0x1c(%ebp),%eax
    62cb:	89 44 24 08          	mov    %eax,0x8(%esp)
    62cf:	8b 45 e8             	mov    -0x18(%ebp),%eax
    62d2:	89 44 24 0c          	mov    %eax,0xc(%esp)
    62d6:	8b 45 ec             	mov    -0x14(%ebp),%eax
    62d9:	89 44 24 10          	mov    %eax,0x10(%esp)
    62dd:	c7 04 24 c5 00 00 00 	movl   $0xc5,(%esp)
    62e4:	e8 3d b6 ff ff       	call   1926 <IDT_WriteIDT>
    62e9:	b8 04 07 00 00       	mov    $0x704,%eax
    62ee:	89 45 e8             	mov    %eax,-0x18(%ebp)
    62f1:	8b 45 e0             	mov    -0x20(%ebp),%eax
    62f4:	89 44 24 04          	mov    %eax,0x4(%esp)
    62f8:	8b 45 e4             	mov    -0x1c(%ebp),%eax
    62fb:	89 44 24 08          	mov    %eax,0x8(%esp)
    62ff:	8b 45 e8             	mov    -0x18(%ebp),%eax
    6302:	89 44 24 0c          	mov    %eax,0xc(%esp)
    6306:	8b 45 ec             	mov    -0x14(%ebp),%eax
    6309:	89 44 24 10          	mov    %eax,0x10(%esp)
    630d:	c7 04 24 c6 00 00 00 	movl   $0xc6,(%esp)
    6314:	e8 0d b6 ff ff       	call   1926 <IDT_WriteIDT>
    6319:	b8 0a 07 00 00       	mov    $0x70a,%eax
    631e:	89 45 e8             	mov    %eax,-0x18(%ebp)
    6321:	8b 45 e0             	mov    -0x20(%ebp),%eax
    6324:	89 44 24 04          	mov    %eax,0x4(%esp)
    6328:	8b 45 e4             	mov    -0x1c(%ebp),%eax
    632b:	89 44 24 08          	mov    %eax,0x8(%esp)
    632f:	8b 45 e8             	mov    -0x18(%ebp),%eax
    6332:	89 44 24 0c          	mov    %eax,0xc(%esp)
    6336:	8b 45 ec             	mov    -0x14(%ebp),%eax
    6339:	89 44 24 10          	mov    %eax,0x10(%esp)
    633d:	c7 04 24 c7 00 00 00 	movl   $0xc7,(%esp)
    6344:	e8 dd b5 ff ff       	call   1926 <IDT_WriteIDT>
    6349:	b8 10 07 00 00       	mov    $0x710,%eax
    634e:	89 45 e8             	mov    %eax,-0x18(%ebp)
    6351:	8b 45 e0             	mov    -0x20(%ebp),%eax
    6354:	89 44 24 04          	mov    %eax,0x4(%esp)
    6358:	8b 45 e4             	mov    -0x1c(%ebp),%eax
    635b:	89 44 24 08          	mov    %eax,0x8(%esp)
    635f:	8b 45 e8             	mov    -0x18(%ebp),%eax
    6362:	89 44 24 0c          	mov    %eax,0xc(%esp)
    6366:	8b 45 ec             	mov    -0x14(%ebp),%eax
    6369:	89 44 24 10          	mov    %eax,0x10(%esp)
    636d:	c7 04 24 c8 00 00 00 	movl   $0xc8,(%esp)
    6374:	e8 ad b5 ff ff       	call   1926 <IDT_WriteIDT>
    6379:	b8 16 07 00 00       	mov    $0x716,%eax
    637e:	89 45 e8             	mov    %eax,-0x18(%ebp)
    6381:	8b 45 e0             	mov    -0x20(%ebp),%eax
    6384:	89 44 24 04          	mov    %eax,0x4(%esp)
    6388:	8b 45 e4             	mov    -0x1c(%ebp),%eax
    638b:	89 44 24 08          	mov    %eax,0x8(%esp)
    638f:	8b 45 e8             	mov    -0x18(%ebp),%eax
    6392:	89 44 24 0c          	mov    %eax,0xc(%esp)
    6396:	8b 45 ec             	mov    -0x14(%ebp),%eax
    6399:	89 44 24 10          	mov    %eax,0x10(%esp)
    639d:	c7 04 24 c9 00 00 00 	movl   $0xc9,(%esp)
    63a4:	e8 7d b5 ff ff       	call   1926 <IDT_WriteIDT>
    63a9:	b8 1c 07 00 00       	mov    $0x71c,%eax
    63ae:	89 45 e8             	mov    %eax,-0x18(%ebp)
    63b1:	8b 45 e0             	mov    -0x20(%ebp),%eax
    63b4:	89 44 24 04          	mov    %eax,0x4(%esp)
    63b8:	8b 45 e4             	mov    -0x1c(%ebp),%eax
    63bb:	89 44 24 08          	mov    %eax,0x8(%esp)
    63bf:	8b 45 e8             	mov    -0x18(%ebp),%eax
    63c2:	89 44 24 0c          	mov    %eax,0xc(%esp)
    63c6:	8b 45 ec             	mov    -0x14(%ebp),%eax
    63c9:	89 44 24 10          	mov    %eax,0x10(%esp)
    63cd:	c7 04 24 ca 00 00 00 	movl   $0xca,(%esp)
    63d4:	e8 4d b5 ff ff       	call   1926 <IDT_WriteIDT>
    63d9:	b8 22 07 00 00       	mov    $0x722,%eax
    63de:	89 45 e8             	mov    %eax,-0x18(%ebp)
    63e1:	8b 45 e0             	mov    -0x20(%ebp),%eax
    63e4:	89 44 24 04          	mov    %eax,0x4(%esp)
    63e8:	8b 45 e4             	mov    -0x1c(%ebp),%eax
    63eb:	89 44 24 08          	mov    %eax,0x8(%esp)
    63ef:	8b 45 e8             	mov    -0x18(%ebp),%eax
    63f2:	89 44 24 0c          	mov    %eax,0xc(%esp)
    63f6:	8b 45 ec             	mov    -0x14(%ebp),%eax
    63f9:	89 44 24 10          	mov    %eax,0x10(%esp)
    63fd:	c7 04 24 cb 00 00 00 	movl   $0xcb,(%esp)
    6404:	e8 1d b5 ff ff       	call   1926 <IDT_WriteIDT>
    6409:	b8 28 07 00 00       	mov    $0x728,%eax
    640e:	89 45 e8             	mov    %eax,-0x18(%ebp)
    6411:	8b 45 e0             	mov    -0x20(%ebp),%eax
    6414:	89 44 24 04          	mov    %eax,0x4(%esp)
    6418:	8b 45 e4             	mov    -0x1c(%ebp),%eax
    641b:	89 44 24 08          	mov    %eax,0x8(%esp)
    641f:	8b 45 e8             	mov    -0x18(%ebp),%eax
    6422:	89 44 24 0c          	mov    %eax,0xc(%esp)
    6426:	8b 45 ec             	mov    -0x14(%ebp),%eax
    6429:	89 44 24 10          	mov    %eax,0x10(%esp)
    642d:	c7 04 24 cc 00 00 00 	movl   $0xcc,(%esp)
    6434:	e8 ed b4 ff ff       	call   1926 <IDT_WriteIDT>
    6439:	b8 2e 07 00 00       	mov    $0x72e,%eax
    643e:	89 45 e8             	mov    %eax,-0x18(%ebp)
    6441:	8b 45 e0             	mov    -0x20(%ebp),%eax
    6444:	89 44 24 04          	mov    %eax,0x4(%esp)
    6448:	8b 45 e4             	mov    -0x1c(%ebp),%eax
    644b:	89 44 24 08          	mov    %eax,0x8(%esp)
    644f:	8b 45 e8             	mov    -0x18(%ebp),%eax
    6452:	89 44 24 0c          	mov    %eax,0xc(%esp)
    6456:	8b 45 ec             	mov    -0x14(%ebp),%eax
    6459:	89 44 24 10          	mov    %eax,0x10(%esp)
    645d:	c7 04 24 cd 00 00 00 	movl   $0xcd,(%esp)
    6464:	e8 bd b4 ff ff       	call   1926 <IDT_WriteIDT>
    6469:	b8 34 07 00 00       	mov    $0x734,%eax
    646e:	89 45 e8             	mov    %eax,-0x18(%ebp)
    6471:	8b 45 e0             	mov    -0x20(%ebp),%eax
    6474:	89 44 24 04          	mov    %eax,0x4(%esp)
    6478:	8b 45 e4             	mov    -0x1c(%ebp),%eax
    647b:	89 44 24 08          	mov    %eax,0x8(%esp)
    647f:	8b 45 e8             	mov    -0x18(%ebp),%eax
    6482:	89 44 24 0c          	mov    %eax,0xc(%esp)
    6486:	8b 45 ec             	mov    -0x14(%ebp),%eax
    6489:	89 44 24 10          	mov    %eax,0x10(%esp)
    648d:	c7 04 24 ce 00 00 00 	movl   $0xce,(%esp)
    6494:	e8 8d b4 ff ff       	call   1926 <IDT_WriteIDT>
    6499:	b8 3a 07 00 00       	mov    $0x73a,%eax
    649e:	89 45 e8             	mov    %eax,-0x18(%ebp)
    64a1:	8b 45 e0             	mov    -0x20(%ebp),%eax
    64a4:	89 44 24 04          	mov    %eax,0x4(%esp)
    64a8:	8b 45 e4             	mov    -0x1c(%ebp),%eax
    64ab:	89 44 24 08          	mov    %eax,0x8(%esp)
    64af:	8b 45 e8             	mov    -0x18(%ebp),%eax
    64b2:	89 44 24 0c          	mov    %eax,0xc(%esp)
    64b6:	8b 45 ec             	mov    -0x14(%ebp),%eax
    64b9:	89 44 24 10          	mov    %eax,0x10(%esp)
    64bd:	c7 04 24 cf 00 00 00 	movl   $0xcf,(%esp)
    64c4:	e8 5d b4 ff ff       	call   1926 <IDT_WriteIDT>
    64c9:	b8 40 07 00 00       	mov    $0x740,%eax
    64ce:	89 45 e8             	mov    %eax,-0x18(%ebp)
    64d1:	8b 45 e0             	mov    -0x20(%ebp),%eax
    64d4:	89 44 24 04          	mov    %eax,0x4(%esp)
    64d8:	8b 45 e4             	mov    -0x1c(%ebp),%eax
    64db:	89 44 24 08          	mov    %eax,0x8(%esp)
    64df:	8b 45 e8             	mov    -0x18(%ebp),%eax
    64e2:	89 44 24 0c          	mov    %eax,0xc(%esp)
    64e6:	8b 45 ec             	mov    -0x14(%ebp),%eax
    64e9:	89 44 24 10          	mov    %eax,0x10(%esp)
    64ed:	c7 04 24 d0 00 00 00 	movl   $0xd0,(%esp)
    64f4:	e8 2d b4 ff ff       	call   1926 <IDT_WriteIDT>
    64f9:	b8 46 07 00 00       	mov    $0x746,%eax
    64fe:	89 45 e8             	mov    %eax,-0x18(%ebp)
    6501:	8b 45 e0             	mov    -0x20(%ebp),%eax
    6504:	89 44 24 04          	mov    %eax,0x4(%esp)
    6508:	8b 45 e4             	mov    -0x1c(%ebp),%eax
    650b:	89 44 24 08          	mov    %eax,0x8(%esp)
    650f:	8b 45 e8             	mov    -0x18(%ebp),%eax
    6512:	89 44 24 0c          	mov    %eax,0xc(%esp)
    6516:	8b 45 ec             	mov    -0x14(%ebp),%eax
    6519:	89 44 24 10          	mov    %eax,0x10(%esp)
    651d:	c7 04 24 d1 00 00 00 	movl   $0xd1,(%esp)
    6524:	e8 fd b3 ff ff       	call   1926 <IDT_WriteIDT>
    6529:	b8 4c 07 00 00       	mov    $0x74c,%eax
    652e:	89 45 e8             	mov    %eax,-0x18(%ebp)
    6531:	8b 45 e0             	mov    -0x20(%ebp),%eax
    6534:	89 44 24 04          	mov    %eax,0x4(%esp)
    6538:	8b 45 e4             	mov    -0x1c(%ebp),%eax
    653b:	89 44 24 08          	mov    %eax,0x8(%esp)
    653f:	8b 45 e8             	mov    -0x18(%ebp),%eax
    6542:	89 44 24 0c          	mov    %eax,0xc(%esp)
    6546:	8b 45 ec             	mov    -0x14(%ebp),%eax
    6549:	89 44 24 10          	mov    %eax,0x10(%esp)
    654d:	c7 04 24 d2 00 00 00 	movl   $0xd2,(%esp)
    6554:	e8 cd b3 ff ff       	call   1926 <IDT_WriteIDT>
    6559:	b8 52 07 00 00       	mov    $0x752,%eax
    655e:	89 45 e8             	mov    %eax,-0x18(%ebp)
    6561:	8b 45 e0             	mov    -0x20(%ebp),%eax
    6564:	89 44 24 04          	mov    %eax,0x4(%esp)
    6568:	8b 45 e4             	mov    -0x1c(%ebp),%eax
    656b:	89 44 24 08          	mov    %eax,0x8(%esp)
    656f:	8b 45 e8             	mov    -0x18(%ebp),%eax
    6572:	89 44 24 0c          	mov    %eax,0xc(%esp)
    6576:	8b 45 ec             	mov    -0x14(%ebp),%eax
    6579:	89 44 24 10          	mov    %eax,0x10(%esp)
    657d:	c7 04 24 d3 00 00 00 	movl   $0xd3,(%esp)
    6584:	e8 9d b3 ff ff       	call   1926 <IDT_WriteIDT>
    6589:	b8 58 07 00 00       	mov    $0x758,%eax
    658e:	89 45 e8             	mov    %eax,-0x18(%ebp)
    6591:	8b 45 e0             	mov    -0x20(%ebp),%eax
    6594:	89 44 24 04          	mov    %eax,0x4(%esp)
    6598:	8b 45 e4             	mov    -0x1c(%ebp),%eax
    659b:	89 44 24 08          	mov    %eax,0x8(%esp)
    659f:	8b 45 e8             	mov    -0x18(%ebp),%eax
    65a2:	89 44 24 0c          	mov    %eax,0xc(%esp)
    65a6:	8b 45 ec             	mov    -0x14(%ebp),%eax
    65a9:	89 44 24 10          	mov    %eax,0x10(%esp)
    65ad:	c7 04 24 d4 00 00 00 	movl   $0xd4,(%esp)
    65b4:	e8 6d b3 ff ff       	call   1926 <IDT_WriteIDT>
    65b9:	b8 5e 07 00 00       	mov    $0x75e,%eax
    65be:	89 45 e8             	mov    %eax,-0x18(%ebp)
    65c1:	8b 45 e0             	mov    -0x20(%ebp),%eax
    65c4:	89 44 24 04          	mov    %eax,0x4(%esp)
    65c8:	8b 45 e4             	mov    -0x1c(%ebp),%eax
    65cb:	89 44 24 08          	mov    %eax,0x8(%esp)
    65cf:	8b 45 e8             	mov    -0x18(%ebp),%eax
    65d2:	89 44 24 0c          	mov    %eax,0xc(%esp)
    65d6:	8b 45 ec             	mov    -0x14(%ebp),%eax
    65d9:	89 44 24 10          	mov    %eax,0x10(%esp)
    65dd:	c7 04 24 d5 00 00 00 	movl   $0xd5,(%esp)
    65e4:	e8 3d b3 ff ff       	call   1926 <IDT_WriteIDT>
    65e9:	b8 64 07 00 00       	mov    $0x764,%eax
    65ee:	89 45 e8             	mov    %eax,-0x18(%ebp)
    65f1:	8b 45 e0             	mov    -0x20(%ebp),%eax
    65f4:	89 44 24 04          	mov    %eax,0x4(%esp)
    65f8:	8b 45 e4             	mov    -0x1c(%ebp),%eax
    65fb:	89 44 24 08          	mov    %eax,0x8(%esp)
    65ff:	8b 45 e8             	mov    -0x18(%ebp),%eax
    6602:	89 44 24 0c          	mov    %eax,0xc(%esp)
    6606:	8b 45 ec             	mov    -0x14(%ebp),%eax
    6609:	89 44 24 10          	mov    %eax,0x10(%esp)
    660d:	c7 04 24 d6 00 00 00 	movl   $0xd6,(%esp)
    6614:	e8 0d b3 ff ff       	call   1926 <IDT_WriteIDT>
    6619:	b8 6a 07 00 00       	mov    $0x76a,%eax
    661e:	89 45 e8             	mov    %eax,-0x18(%ebp)
    6621:	8b 45 e0             	mov    -0x20(%ebp),%eax
    6624:	89 44 24 04          	mov    %eax,0x4(%esp)
    6628:	8b 45 e4             	mov    -0x1c(%ebp),%eax
    662b:	89 44 24 08          	mov    %eax,0x8(%esp)
    662f:	8b 45 e8             	mov    -0x18(%ebp),%eax
    6632:	89 44 24 0c          	mov    %eax,0xc(%esp)
    6636:	8b 45 ec             	mov    -0x14(%ebp),%eax
    6639:	89 44 24 10          	mov    %eax,0x10(%esp)
    663d:	c7 04 24 d7 00 00 00 	movl   $0xd7,(%esp)
    6644:	e8 dd b2 ff ff       	call   1926 <IDT_WriteIDT>
    6649:	b8 70 07 00 00       	mov    $0x770,%eax
    664e:	89 45 e8             	mov    %eax,-0x18(%ebp)
    6651:	8b 45 e0             	mov    -0x20(%ebp),%eax
    6654:	89 44 24 04          	mov    %eax,0x4(%esp)
    6658:	8b 45 e4             	mov    -0x1c(%ebp),%eax
    665b:	89 44 24 08          	mov    %eax,0x8(%esp)
    665f:	8b 45 e8             	mov    -0x18(%ebp),%eax
    6662:	89 44 24 0c          	mov    %eax,0xc(%esp)
    6666:	8b 45 ec             	mov    -0x14(%ebp),%eax
    6669:	89 44 24 10          	mov    %eax,0x10(%esp)
    666d:	c7 04 24 d8 00 00 00 	movl   $0xd8,(%esp)
    6674:	e8 ad b2 ff ff       	call   1926 <IDT_WriteIDT>
    6679:	b8 76 07 00 00       	mov    $0x776,%eax
    667e:	89 45 e8             	mov    %eax,-0x18(%ebp)
    6681:	8b 45 e0             	mov    -0x20(%ebp),%eax
    6684:	89 44 24 04          	mov    %eax,0x4(%esp)
    6688:	8b 45 e4             	mov    -0x1c(%ebp),%eax
    668b:	89 44 24 08          	mov    %eax,0x8(%esp)
    668f:	8b 45 e8             	mov    -0x18(%ebp),%eax
    6692:	89 44 24 0c          	mov    %eax,0xc(%esp)
    6696:	8b 45 ec             	mov    -0x14(%ebp),%eax
    6699:	89 44 24 10          	mov    %eax,0x10(%esp)
    669d:	c7 04 24 d9 00 00 00 	movl   $0xd9,(%esp)
    66a4:	e8 7d b2 ff ff       	call   1926 <IDT_WriteIDT>
    66a9:	b8 7c 07 00 00       	mov    $0x77c,%eax
    66ae:	89 45 e8             	mov    %eax,-0x18(%ebp)
    66b1:	8b 45 e0             	mov    -0x20(%ebp),%eax
    66b4:	89 44 24 04          	mov    %eax,0x4(%esp)
    66b8:	8b 45 e4             	mov    -0x1c(%ebp),%eax
    66bb:	89 44 24 08          	mov    %eax,0x8(%esp)
    66bf:	8b 45 e8             	mov    -0x18(%ebp),%eax
    66c2:	89 44 24 0c          	mov    %eax,0xc(%esp)
    66c6:	8b 45 ec             	mov    -0x14(%ebp),%eax
    66c9:	89 44 24 10          	mov    %eax,0x10(%esp)
    66cd:	c7 04 24 da 00 00 00 	movl   $0xda,(%esp)
    66d4:	e8 4d b2 ff ff       	call   1926 <IDT_WriteIDT>
    66d9:	b8 82 07 00 00       	mov    $0x782,%eax
    66de:	89 45 e8             	mov    %eax,-0x18(%ebp)
    66e1:	8b 45 e0             	mov    -0x20(%ebp),%eax
    66e4:	89 44 24 04          	mov    %eax,0x4(%esp)
    66e8:	8b 45 e4             	mov    -0x1c(%ebp),%eax
    66eb:	89 44 24 08          	mov    %eax,0x8(%esp)
    66ef:	8b 45 e8             	mov    -0x18(%ebp),%eax
    66f2:	89 44 24 0c          	mov    %eax,0xc(%esp)
    66f6:	8b 45 ec             	mov    -0x14(%ebp),%eax
    66f9:	89 44 24 10          	mov    %eax,0x10(%esp)
    66fd:	c7 04 24 db 00 00 00 	movl   $0xdb,(%esp)
    6704:	e8 1d b2 ff ff       	call   1926 <IDT_WriteIDT>
    6709:	b8 88 07 00 00       	mov    $0x788,%eax
    670e:	89 45 e8             	mov    %eax,-0x18(%ebp)
    6711:	8b 45 e0             	mov    -0x20(%ebp),%eax
    6714:	89 44 24 04          	mov    %eax,0x4(%esp)
    6718:	8b 45 e4             	mov    -0x1c(%ebp),%eax
    671b:	89 44 24 08          	mov    %eax,0x8(%esp)
    671f:	8b 45 e8             	mov    -0x18(%ebp),%eax
    6722:	89 44 24 0c          	mov    %eax,0xc(%esp)
    6726:	8b 45 ec             	mov    -0x14(%ebp),%eax
    6729:	89 44 24 10          	mov    %eax,0x10(%esp)
    672d:	c7 04 24 dc 00 00 00 	movl   $0xdc,(%esp)
    6734:	e8 ed b1 ff ff       	call   1926 <IDT_WriteIDT>
    6739:	b8 8e 07 00 00       	mov    $0x78e,%eax
    673e:	89 45 e8             	mov    %eax,-0x18(%ebp)
    6741:	8b 45 e0             	mov    -0x20(%ebp),%eax
    6744:	89 44 24 04          	mov    %eax,0x4(%esp)
    6748:	8b 45 e4             	mov    -0x1c(%ebp),%eax
    674b:	89 44 24 08          	mov    %eax,0x8(%esp)
    674f:	8b 45 e8             	mov    -0x18(%ebp),%eax
    6752:	89 44 24 0c          	mov    %eax,0xc(%esp)
    6756:	8b 45 ec             	mov    -0x14(%ebp),%eax
    6759:	89 44 24 10          	mov    %eax,0x10(%esp)
    675d:	c7 04 24 dd 00 00 00 	movl   $0xdd,(%esp)
    6764:	e8 bd b1 ff ff       	call   1926 <IDT_WriteIDT>
    6769:	b8 94 07 00 00       	mov    $0x794,%eax
    676e:	89 45 e8             	mov    %eax,-0x18(%ebp)
    6771:	8b 45 e0             	mov    -0x20(%ebp),%eax
    6774:	89 44 24 04          	mov    %eax,0x4(%esp)
    6778:	8b 45 e4             	mov    -0x1c(%ebp),%eax
    677b:	89 44 24 08          	mov    %eax,0x8(%esp)
    677f:	8b 45 e8             	mov    -0x18(%ebp),%eax
    6782:	89 44 24 0c          	mov    %eax,0xc(%esp)
    6786:	8b 45 ec             	mov    -0x14(%ebp),%eax
    6789:	89 44 24 10          	mov    %eax,0x10(%esp)
    678d:	c7 04 24 de 00 00 00 	movl   $0xde,(%esp)
    6794:	e8 8d b1 ff ff       	call   1926 <IDT_WriteIDT>
    6799:	b8 9a 07 00 00       	mov    $0x79a,%eax
    679e:	89 45 e8             	mov    %eax,-0x18(%ebp)
    67a1:	8b 45 e0             	mov    -0x20(%ebp),%eax
    67a4:	89 44 24 04          	mov    %eax,0x4(%esp)
    67a8:	8b 45 e4             	mov    -0x1c(%ebp),%eax
    67ab:	89 44 24 08          	mov    %eax,0x8(%esp)
    67af:	8b 45 e8             	mov    -0x18(%ebp),%eax
    67b2:	89 44 24 0c          	mov    %eax,0xc(%esp)
    67b6:	8b 45 ec             	mov    -0x14(%ebp),%eax
    67b9:	89 44 24 10          	mov    %eax,0x10(%esp)
    67bd:	c7 04 24 df 00 00 00 	movl   $0xdf,(%esp)
    67c4:	e8 5d b1 ff ff       	call   1926 <IDT_WriteIDT>
    67c9:	b8 a0 07 00 00       	mov    $0x7a0,%eax
    67ce:	89 45 e8             	mov    %eax,-0x18(%ebp)
    67d1:	8b 45 e0             	mov    -0x20(%ebp),%eax
    67d4:	89 44 24 04          	mov    %eax,0x4(%esp)
    67d8:	8b 45 e4             	mov    -0x1c(%ebp),%eax
    67db:	89 44 24 08          	mov    %eax,0x8(%esp)
    67df:	8b 45 e8             	mov    -0x18(%ebp),%eax
    67e2:	89 44 24 0c          	mov    %eax,0xc(%esp)
    67e6:	8b 45 ec             	mov    -0x14(%ebp),%eax
    67e9:	89 44 24 10          	mov    %eax,0x10(%esp)
    67ed:	c7 04 24 e0 00 00 00 	movl   $0xe0,(%esp)
    67f4:	e8 2d b1 ff ff       	call   1926 <IDT_WriteIDT>
    67f9:	b8 a6 07 00 00       	mov    $0x7a6,%eax
    67fe:	89 45 e8             	mov    %eax,-0x18(%ebp)
    6801:	8b 45 e0             	mov    -0x20(%ebp),%eax
    6804:	89 44 24 04          	mov    %eax,0x4(%esp)
    6808:	8b 45 e4             	mov    -0x1c(%ebp),%eax
    680b:	89 44 24 08          	mov    %eax,0x8(%esp)
    680f:	8b 45 e8             	mov    -0x18(%ebp),%eax
    6812:	89 44 24 0c          	mov    %eax,0xc(%esp)
    6816:	8b 45 ec             	mov    -0x14(%ebp),%eax
    6819:	89 44 24 10          	mov    %eax,0x10(%esp)
    681d:	c7 04 24 e1 00 00 00 	movl   $0xe1,(%esp)
    6824:	e8 fd b0 ff ff       	call   1926 <IDT_WriteIDT>
    6829:	b8 ac 07 00 00       	mov    $0x7ac,%eax
    682e:	89 45 e8             	mov    %eax,-0x18(%ebp)
    6831:	8b 45 e0             	mov    -0x20(%ebp),%eax
    6834:	89 44 24 04          	mov    %eax,0x4(%esp)
    6838:	8b 45 e4             	mov    -0x1c(%ebp),%eax
    683b:	89 44 24 08          	mov    %eax,0x8(%esp)
    683f:	8b 45 e8             	mov    -0x18(%ebp),%eax
    6842:	89 44 24 0c          	mov    %eax,0xc(%esp)
    6846:	8b 45 ec             	mov    -0x14(%ebp),%eax
    6849:	89 44 24 10          	mov    %eax,0x10(%esp)
    684d:	c7 04 24 e2 00 00 00 	movl   $0xe2,(%esp)
    6854:	e8 cd b0 ff ff       	call   1926 <IDT_WriteIDT>
    6859:	b8 b2 07 00 00       	mov    $0x7b2,%eax
    685e:	89 45 e8             	mov    %eax,-0x18(%ebp)
    6861:	8b 45 e0             	mov    -0x20(%ebp),%eax
    6864:	89 44 24 04          	mov    %eax,0x4(%esp)
    6868:	8b 45 e4             	mov    -0x1c(%ebp),%eax
    686b:	89 44 24 08          	mov    %eax,0x8(%esp)
    686f:	8b 45 e8             	mov    -0x18(%ebp),%eax
    6872:	89 44 24 0c          	mov    %eax,0xc(%esp)
    6876:	8b 45 ec             	mov    -0x14(%ebp),%eax
    6879:	89 44 24 10          	mov    %eax,0x10(%esp)
    687d:	c7 04 24 e3 00 00 00 	movl   $0xe3,(%esp)
    6884:	e8 9d b0 ff ff       	call   1926 <IDT_WriteIDT>
    6889:	b8 b8 07 00 00       	mov    $0x7b8,%eax
    688e:	89 45 e8             	mov    %eax,-0x18(%ebp)
    6891:	8b 45 e0             	mov    -0x20(%ebp),%eax
    6894:	89 44 24 04          	mov    %eax,0x4(%esp)
    6898:	8b 45 e4             	mov    -0x1c(%ebp),%eax
    689b:	89 44 24 08          	mov    %eax,0x8(%esp)
    689f:	8b 45 e8             	mov    -0x18(%ebp),%eax
    68a2:	89 44 24 0c          	mov    %eax,0xc(%esp)
    68a6:	8b 45 ec             	mov    -0x14(%ebp),%eax
    68a9:	89 44 24 10          	mov    %eax,0x10(%esp)
    68ad:	c7 04 24 e4 00 00 00 	movl   $0xe4,(%esp)
    68b4:	e8 6d b0 ff ff       	call   1926 <IDT_WriteIDT>
    68b9:	b8 be 07 00 00       	mov    $0x7be,%eax
    68be:	89 45 e8             	mov    %eax,-0x18(%ebp)
    68c1:	8b 45 e0             	mov    -0x20(%ebp),%eax
    68c4:	89 44 24 04          	mov    %eax,0x4(%esp)
    68c8:	8b 45 e4             	mov    -0x1c(%ebp),%eax
    68cb:	89 44 24 08          	mov    %eax,0x8(%esp)
    68cf:	8b 45 e8             	mov    -0x18(%ebp),%eax
    68d2:	89 44 24 0c          	mov    %eax,0xc(%esp)
    68d6:	8b 45 ec             	mov    -0x14(%ebp),%eax
    68d9:	89 44 24 10          	mov    %eax,0x10(%esp)
    68dd:	c7 04 24 e5 00 00 00 	movl   $0xe5,(%esp)
    68e4:	e8 3d b0 ff ff       	call   1926 <IDT_WriteIDT>
    68e9:	b8 c4 07 00 00       	mov    $0x7c4,%eax
    68ee:	89 45 e8             	mov    %eax,-0x18(%ebp)
    68f1:	8b 45 e0             	mov    -0x20(%ebp),%eax
    68f4:	89 44 24 04          	mov    %eax,0x4(%esp)
    68f8:	8b 45 e4             	mov    -0x1c(%ebp),%eax
    68fb:	89 44 24 08          	mov    %eax,0x8(%esp)
    68ff:	8b 45 e8             	mov    -0x18(%ebp),%eax
    6902:	89 44 24 0c          	mov    %eax,0xc(%esp)
    6906:	8b 45 ec             	mov    -0x14(%ebp),%eax
    6909:	89 44 24 10          	mov    %eax,0x10(%esp)
    690d:	c7 04 24 e6 00 00 00 	movl   $0xe6,(%esp)
    6914:	e8 0d b0 ff ff       	call   1926 <IDT_WriteIDT>
    6919:	b8 ca 07 00 00       	mov    $0x7ca,%eax
    691e:	89 45 e8             	mov    %eax,-0x18(%ebp)
    6921:	8b 45 e0             	mov    -0x20(%ebp),%eax
    6924:	89 44 24 04          	mov    %eax,0x4(%esp)
    6928:	8b 45 e4             	mov    -0x1c(%ebp),%eax
    692b:	89 44 24 08          	mov    %eax,0x8(%esp)
    692f:	8b 45 e8             	mov    -0x18(%ebp),%eax
    6932:	89 44 24 0c          	mov    %eax,0xc(%esp)
    6936:	8b 45 ec             	mov    -0x14(%ebp),%eax
    6939:	89 44 24 10          	mov    %eax,0x10(%esp)
    693d:	c7 04 24 e7 00 00 00 	movl   $0xe7,(%esp)
    6944:	e8 dd af ff ff       	call   1926 <IDT_WriteIDT>
    6949:	b8 d0 07 00 00       	mov    $0x7d0,%eax
    694e:	89 45 e8             	mov    %eax,-0x18(%ebp)
    6951:	8b 45 e0             	mov    -0x20(%ebp),%eax
    6954:	89 44 24 04          	mov    %eax,0x4(%esp)
    6958:	8b 45 e4             	mov    -0x1c(%ebp),%eax
    695b:	89 44 24 08          	mov    %eax,0x8(%esp)
    695f:	8b 45 e8             	mov    -0x18(%ebp),%eax
    6962:	89 44 24 0c          	mov    %eax,0xc(%esp)
    6966:	8b 45 ec             	mov    -0x14(%ebp),%eax
    6969:	89 44 24 10          	mov    %eax,0x10(%esp)
    696d:	c7 04 24 e8 00 00 00 	movl   $0xe8,(%esp)
    6974:	e8 ad af ff ff       	call   1926 <IDT_WriteIDT>
    6979:	b8 d6 07 00 00       	mov    $0x7d6,%eax
    697e:	89 45 e8             	mov    %eax,-0x18(%ebp)
    6981:	8b 45 e0             	mov    -0x20(%ebp),%eax
    6984:	89 44 24 04          	mov    %eax,0x4(%esp)
    6988:	8b 45 e4             	mov    -0x1c(%ebp),%eax
    698b:	89 44 24 08          	mov    %eax,0x8(%esp)
    698f:	8b 45 e8             	mov    -0x18(%ebp),%eax
    6992:	89 44 24 0c          	mov    %eax,0xc(%esp)
    6996:	8b 45 ec             	mov    -0x14(%ebp),%eax
    6999:	89 44 24 10          	mov    %eax,0x10(%esp)
    699d:	c7 04 24 e9 00 00 00 	movl   $0xe9,(%esp)
    69a4:	e8 7d af ff ff       	call   1926 <IDT_WriteIDT>
    69a9:	b8 dc 07 00 00       	mov    $0x7dc,%eax
    69ae:	89 45 e8             	mov    %eax,-0x18(%ebp)
    69b1:	8b 45 e0             	mov    -0x20(%ebp),%eax
    69b4:	89 44 24 04          	mov    %eax,0x4(%esp)
    69b8:	8b 45 e4             	mov    -0x1c(%ebp),%eax
    69bb:	89 44 24 08          	mov    %eax,0x8(%esp)
    69bf:	8b 45 e8             	mov    -0x18(%ebp),%eax
    69c2:	89 44 24 0c          	mov    %eax,0xc(%esp)
    69c6:	8b 45 ec             	mov    -0x14(%ebp),%eax
    69c9:	89 44 24 10          	mov    %eax,0x10(%esp)
    69cd:	c7 04 24 ea 00 00 00 	movl   $0xea,(%esp)
    69d4:	e8 4d af ff ff       	call   1926 <IDT_WriteIDT>
    69d9:	b8 e2 07 00 00       	mov    $0x7e2,%eax
    69de:	89 45 e8             	mov    %eax,-0x18(%ebp)
    69e1:	8b 45 e0             	mov    -0x20(%ebp),%eax
    69e4:	89 44 24 04          	mov    %eax,0x4(%esp)
    69e8:	8b 45 e4             	mov    -0x1c(%ebp),%eax
    69eb:	89 44 24 08          	mov    %eax,0x8(%esp)
    69ef:	8b 45 e8             	mov    -0x18(%ebp),%eax
    69f2:	89 44 24 0c          	mov    %eax,0xc(%esp)
    69f6:	8b 45 ec             	mov    -0x14(%ebp),%eax
    69f9:	89 44 24 10          	mov    %eax,0x10(%esp)
    69fd:	c7 04 24 eb 00 00 00 	movl   $0xeb,(%esp)
    6a04:	e8 1d af ff ff       	call   1926 <IDT_WriteIDT>
    6a09:	b8 e8 07 00 00       	mov    $0x7e8,%eax
    6a0e:	89 45 e8             	mov    %eax,-0x18(%ebp)
    6a11:	8b 45 e0             	mov    -0x20(%ebp),%eax
    6a14:	89 44 24 04          	mov    %eax,0x4(%esp)
    6a18:	8b 45 e4             	mov    -0x1c(%ebp),%eax
    6a1b:	89 44 24 08          	mov    %eax,0x8(%esp)
    6a1f:	8b 45 e8             	mov    -0x18(%ebp),%eax
    6a22:	89 44 24 0c          	mov    %eax,0xc(%esp)
    6a26:	8b 45 ec             	mov    -0x14(%ebp),%eax
    6a29:	89 44 24 10          	mov    %eax,0x10(%esp)
    6a2d:	c7 04 24 ec 00 00 00 	movl   $0xec,(%esp)
    6a34:	e8 ed ae ff ff       	call   1926 <IDT_WriteIDT>
    6a39:	b8 ee 07 00 00       	mov    $0x7ee,%eax
    6a3e:	89 45 e8             	mov    %eax,-0x18(%ebp)
    6a41:	8b 45 e0             	mov    -0x20(%ebp),%eax
    6a44:	89 44 24 04          	mov    %eax,0x4(%esp)
    6a48:	8b 45 e4             	mov    -0x1c(%ebp),%eax
    6a4b:	89 44 24 08          	mov    %eax,0x8(%esp)
    6a4f:	8b 45 e8             	mov    -0x18(%ebp),%eax
    6a52:	89 44 24 0c          	mov    %eax,0xc(%esp)
    6a56:	8b 45 ec             	mov    -0x14(%ebp),%eax
    6a59:	89 44 24 10          	mov    %eax,0x10(%esp)
    6a5d:	c7 04 24 ed 00 00 00 	movl   $0xed,(%esp)
    6a64:	e8 bd ae ff ff       	call   1926 <IDT_WriteIDT>
    6a69:	b8 f4 07 00 00       	mov    $0x7f4,%eax
    6a6e:	89 45 e8             	mov    %eax,-0x18(%ebp)
    6a71:	8b 45 e0             	mov    -0x20(%ebp),%eax
    6a74:	89 44 24 04          	mov    %eax,0x4(%esp)
    6a78:	8b 45 e4             	mov    -0x1c(%ebp),%eax
    6a7b:	89 44 24 08          	mov    %eax,0x8(%esp)
    6a7f:	8b 45 e8             	mov    -0x18(%ebp),%eax
    6a82:	89 44 24 0c          	mov    %eax,0xc(%esp)
    6a86:	8b 45 ec             	mov    -0x14(%ebp),%eax
    6a89:	89 44 24 10          	mov    %eax,0x10(%esp)
    6a8d:	c7 04 24 ee 00 00 00 	movl   $0xee,(%esp)
    6a94:	e8 8d ae ff ff       	call   1926 <IDT_WriteIDT>
    6a99:	b8 fa 07 00 00       	mov    $0x7fa,%eax
    6a9e:	89 45 e8             	mov    %eax,-0x18(%ebp)
    6aa1:	8b 45 e0             	mov    -0x20(%ebp),%eax
    6aa4:	89 44 24 04          	mov    %eax,0x4(%esp)
    6aa8:	8b 45 e4             	mov    -0x1c(%ebp),%eax
    6aab:	89 44 24 08          	mov    %eax,0x8(%esp)
    6aaf:	8b 45 e8             	mov    -0x18(%ebp),%eax
    6ab2:	89 44 24 0c          	mov    %eax,0xc(%esp)
    6ab6:	8b 45 ec             	mov    -0x14(%ebp),%eax
    6ab9:	89 44 24 10          	mov    %eax,0x10(%esp)
    6abd:	c7 04 24 ef 00 00 00 	movl   $0xef,(%esp)
    6ac4:	e8 5d ae ff ff       	call   1926 <IDT_WriteIDT>
    6ac9:	b8 00 08 00 00       	mov    $0x800,%eax
    6ace:	89 45 e8             	mov    %eax,-0x18(%ebp)
    6ad1:	8b 45 e0             	mov    -0x20(%ebp),%eax
    6ad4:	89 44 24 04          	mov    %eax,0x4(%esp)
    6ad8:	8b 45 e4             	mov    -0x1c(%ebp),%eax
    6adb:	89 44 24 08          	mov    %eax,0x8(%esp)
    6adf:	8b 45 e8             	mov    -0x18(%ebp),%eax
    6ae2:	89 44 24 0c          	mov    %eax,0xc(%esp)
    6ae6:	8b 45 ec             	mov    -0x14(%ebp),%eax
    6ae9:	89 44 24 10          	mov    %eax,0x10(%esp)
    6aed:	c7 04 24 f0 00 00 00 	movl   $0xf0,(%esp)
    6af4:	e8 2d ae ff ff       	call   1926 <IDT_WriteIDT>
    6af9:	b8 06 08 00 00       	mov    $0x806,%eax
    6afe:	89 45 e8             	mov    %eax,-0x18(%ebp)
    6b01:	8b 45 e0             	mov    -0x20(%ebp),%eax
    6b04:	89 44 24 04          	mov    %eax,0x4(%esp)
    6b08:	8b 45 e4             	mov    -0x1c(%ebp),%eax
    6b0b:	89 44 24 08          	mov    %eax,0x8(%esp)
    6b0f:	8b 45 e8             	mov    -0x18(%ebp),%eax
    6b12:	89 44 24 0c          	mov    %eax,0xc(%esp)
    6b16:	8b 45 ec             	mov    -0x14(%ebp),%eax
    6b19:	89 44 24 10          	mov    %eax,0x10(%esp)
    6b1d:	c7 04 24 f1 00 00 00 	movl   $0xf1,(%esp)
    6b24:	e8 fd ad ff ff       	call   1926 <IDT_WriteIDT>
    6b29:	b8 0c 08 00 00       	mov    $0x80c,%eax
    6b2e:	89 45 e8             	mov    %eax,-0x18(%ebp)
    6b31:	8b 45 e0             	mov    -0x20(%ebp),%eax
    6b34:	89 44 24 04          	mov    %eax,0x4(%esp)
    6b38:	8b 45 e4             	mov    -0x1c(%ebp),%eax
    6b3b:	89 44 24 08          	mov    %eax,0x8(%esp)
    6b3f:	8b 45 e8             	mov    -0x18(%ebp),%eax
    6b42:	89 44 24 0c          	mov    %eax,0xc(%esp)
    6b46:	8b 45 ec             	mov    -0x14(%ebp),%eax
    6b49:	89 44 24 10          	mov    %eax,0x10(%esp)
    6b4d:	c7 04 24 f2 00 00 00 	movl   $0xf2,(%esp)
    6b54:	e8 cd ad ff ff       	call   1926 <IDT_WriteIDT>
    6b59:	b8 12 08 00 00       	mov    $0x812,%eax
    6b5e:	89 45 e8             	mov    %eax,-0x18(%ebp)
    6b61:	8b 45 e0             	mov    -0x20(%ebp),%eax
    6b64:	89 44 24 04          	mov    %eax,0x4(%esp)
    6b68:	8b 45 e4             	mov    -0x1c(%ebp),%eax
    6b6b:	89 44 24 08          	mov    %eax,0x8(%esp)
    6b6f:	8b 45 e8             	mov    -0x18(%ebp),%eax
    6b72:	89 44 24 0c          	mov    %eax,0xc(%esp)
    6b76:	8b 45 ec             	mov    -0x14(%ebp),%eax
    6b79:	89 44 24 10          	mov    %eax,0x10(%esp)
    6b7d:	c7 04 24 f3 00 00 00 	movl   $0xf3,(%esp)
    6b84:	e8 9d ad ff ff       	call   1926 <IDT_WriteIDT>
    6b89:	b8 18 08 00 00       	mov    $0x818,%eax
    6b8e:	89 45 e8             	mov    %eax,-0x18(%ebp)
    6b91:	8b 45 e0             	mov    -0x20(%ebp),%eax
    6b94:	89 44 24 04          	mov    %eax,0x4(%esp)
    6b98:	8b 45 e4             	mov    -0x1c(%ebp),%eax
    6b9b:	89 44 24 08          	mov    %eax,0x8(%esp)
    6b9f:	8b 45 e8             	mov    -0x18(%ebp),%eax
    6ba2:	89 44 24 0c          	mov    %eax,0xc(%esp)
    6ba6:	8b 45 ec             	mov    -0x14(%ebp),%eax
    6ba9:	89 44 24 10          	mov    %eax,0x10(%esp)
    6bad:	c7 04 24 f4 00 00 00 	movl   $0xf4,(%esp)
    6bb4:	e8 6d ad ff ff       	call   1926 <IDT_WriteIDT>
    6bb9:	b8 1e 08 00 00       	mov    $0x81e,%eax
    6bbe:	89 45 e8             	mov    %eax,-0x18(%ebp)
    6bc1:	8b 45 e0             	mov    -0x20(%ebp),%eax
    6bc4:	89 44 24 04          	mov    %eax,0x4(%esp)
    6bc8:	8b 45 e4             	mov    -0x1c(%ebp),%eax
    6bcb:	89 44 24 08          	mov    %eax,0x8(%esp)
    6bcf:	8b 45 e8             	mov    -0x18(%ebp),%eax
    6bd2:	89 44 24 0c          	mov    %eax,0xc(%esp)
    6bd6:	8b 45 ec             	mov    -0x14(%ebp),%eax
    6bd9:	89 44 24 10          	mov    %eax,0x10(%esp)
    6bdd:	c7 04 24 f5 00 00 00 	movl   $0xf5,(%esp)
    6be4:	e8 3d ad ff ff       	call   1926 <IDT_WriteIDT>
    6be9:	b8 24 08 00 00       	mov    $0x824,%eax
    6bee:	89 45 e8             	mov    %eax,-0x18(%ebp)
    6bf1:	8b 45 e0             	mov    -0x20(%ebp),%eax
    6bf4:	89 44 24 04          	mov    %eax,0x4(%esp)
    6bf8:	8b 45 e4             	mov    -0x1c(%ebp),%eax
    6bfb:	89 44 24 08          	mov    %eax,0x8(%esp)
    6bff:	8b 45 e8             	mov    -0x18(%ebp),%eax
    6c02:	89 44 24 0c          	mov    %eax,0xc(%esp)
    6c06:	8b 45 ec             	mov    -0x14(%ebp),%eax
    6c09:	89 44 24 10          	mov    %eax,0x10(%esp)
    6c0d:	c7 04 24 f6 00 00 00 	movl   $0xf6,(%esp)
    6c14:	e8 0d ad ff ff       	call   1926 <IDT_WriteIDT>
    6c19:	b8 2a 08 00 00       	mov    $0x82a,%eax
    6c1e:	89 45 e8             	mov    %eax,-0x18(%ebp)
    6c21:	8b 45 e0             	mov    -0x20(%ebp),%eax
    6c24:	89 44 24 04          	mov    %eax,0x4(%esp)
    6c28:	8b 45 e4             	mov    -0x1c(%ebp),%eax
    6c2b:	89 44 24 08          	mov    %eax,0x8(%esp)
    6c2f:	8b 45 e8             	mov    -0x18(%ebp),%eax
    6c32:	89 44 24 0c          	mov    %eax,0xc(%esp)
    6c36:	8b 45 ec             	mov    -0x14(%ebp),%eax
    6c39:	89 44 24 10          	mov    %eax,0x10(%esp)
    6c3d:	c7 04 24 f7 00 00 00 	movl   $0xf7,(%esp)
    6c44:	e8 dd ac ff ff       	call   1926 <IDT_WriteIDT>
    6c49:	b8 30 08 00 00       	mov    $0x830,%eax
    6c4e:	89 45 e8             	mov    %eax,-0x18(%ebp)
    6c51:	8b 45 e0             	mov    -0x20(%ebp),%eax
    6c54:	89 44 24 04          	mov    %eax,0x4(%esp)
    6c58:	8b 45 e4             	mov    -0x1c(%ebp),%eax
    6c5b:	89 44 24 08          	mov    %eax,0x8(%esp)
    6c5f:	8b 45 e8             	mov    -0x18(%ebp),%eax
    6c62:	89 44 24 0c          	mov    %eax,0xc(%esp)
    6c66:	8b 45 ec             	mov    -0x14(%ebp),%eax
    6c69:	89 44 24 10          	mov    %eax,0x10(%esp)
    6c6d:	c7 04 24 f8 00 00 00 	movl   $0xf8,(%esp)
    6c74:	e8 ad ac ff ff       	call   1926 <IDT_WriteIDT>
    6c79:	b8 36 08 00 00       	mov    $0x836,%eax
    6c7e:	89 45 e8             	mov    %eax,-0x18(%ebp)
    6c81:	8b 45 e0             	mov    -0x20(%ebp),%eax
    6c84:	89 44 24 04          	mov    %eax,0x4(%esp)
    6c88:	8b 45 e4             	mov    -0x1c(%ebp),%eax
    6c8b:	89 44 24 08          	mov    %eax,0x8(%esp)
    6c8f:	8b 45 e8             	mov    -0x18(%ebp),%eax
    6c92:	89 44 24 0c          	mov    %eax,0xc(%esp)
    6c96:	8b 45 ec             	mov    -0x14(%ebp),%eax
    6c99:	89 44 24 10          	mov    %eax,0x10(%esp)
    6c9d:	c7 04 24 f9 00 00 00 	movl   $0xf9,(%esp)
    6ca4:	e8 7d ac ff ff       	call   1926 <IDT_WriteIDT>
    6ca9:	b8 3c 08 00 00       	mov    $0x83c,%eax
    6cae:	89 45 e8             	mov    %eax,-0x18(%ebp)
    6cb1:	8b 45 e0             	mov    -0x20(%ebp),%eax
    6cb4:	89 44 24 04          	mov    %eax,0x4(%esp)
    6cb8:	8b 45 e4             	mov    -0x1c(%ebp),%eax
    6cbb:	89 44 24 08          	mov    %eax,0x8(%esp)
    6cbf:	8b 45 e8             	mov    -0x18(%ebp),%eax
    6cc2:	89 44 24 0c          	mov    %eax,0xc(%esp)
    6cc6:	8b 45 ec             	mov    -0x14(%ebp),%eax
    6cc9:	89 44 24 10          	mov    %eax,0x10(%esp)
    6ccd:	c7 04 24 fa 00 00 00 	movl   $0xfa,(%esp)
    6cd4:	e8 4d ac ff ff       	call   1926 <IDT_WriteIDT>
    6cd9:	b8 42 08 00 00       	mov    $0x842,%eax
    6cde:	89 45 e8             	mov    %eax,-0x18(%ebp)
    6ce1:	8b 45 e0             	mov    -0x20(%ebp),%eax
    6ce4:	89 44 24 04          	mov    %eax,0x4(%esp)
    6ce8:	8b 45 e4             	mov    -0x1c(%ebp),%eax
    6ceb:	89 44 24 08          	mov    %eax,0x8(%esp)
    6cef:	8b 45 e8             	mov    -0x18(%ebp),%eax
    6cf2:	89 44 24 0c          	mov    %eax,0xc(%esp)
    6cf6:	8b 45 ec             	mov    -0x14(%ebp),%eax
    6cf9:	89 44 24 10          	mov    %eax,0x10(%esp)
    6cfd:	c7 04 24 fb 00 00 00 	movl   $0xfb,(%esp)
    6d04:	e8 1d ac ff ff       	call   1926 <IDT_WriteIDT>
    6d09:	b8 48 08 00 00       	mov    $0x848,%eax
    6d0e:	89 45 e8             	mov    %eax,-0x18(%ebp)
    6d11:	8b 45 e0             	mov    -0x20(%ebp),%eax
    6d14:	89 44 24 04          	mov    %eax,0x4(%esp)
    6d18:	8b 45 e4             	mov    -0x1c(%ebp),%eax
    6d1b:	89 44 24 08          	mov    %eax,0x8(%esp)
    6d1f:	8b 45 e8             	mov    -0x18(%ebp),%eax
    6d22:	89 44 24 0c          	mov    %eax,0xc(%esp)
    6d26:	8b 45 ec             	mov    -0x14(%ebp),%eax
    6d29:	89 44 24 10          	mov    %eax,0x10(%esp)
    6d2d:	c7 04 24 fc 00 00 00 	movl   $0xfc,(%esp)
    6d34:	e8 ed ab ff ff       	call   1926 <IDT_WriteIDT>
    6d39:	b8 4e 08 00 00       	mov    $0x84e,%eax
    6d3e:	89 45 e8             	mov    %eax,-0x18(%ebp)
    6d41:	8b 45 e0             	mov    -0x20(%ebp),%eax
    6d44:	89 44 24 04          	mov    %eax,0x4(%esp)
    6d48:	8b 45 e4             	mov    -0x1c(%ebp),%eax
    6d4b:	89 44 24 08          	mov    %eax,0x8(%esp)
    6d4f:	8b 45 e8             	mov    -0x18(%ebp),%eax
    6d52:	89 44 24 0c          	mov    %eax,0xc(%esp)
    6d56:	8b 45 ec             	mov    -0x14(%ebp),%eax
    6d59:	89 44 24 10          	mov    %eax,0x10(%esp)
    6d5d:	c7 04 24 fd 00 00 00 	movl   $0xfd,(%esp)
    6d64:	e8 bd ab ff ff       	call   1926 <IDT_WriteIDT>
    6d69:	b8 54 08 00 00       	mov    $0x854,%eax
    6d6e:	89 45 e8             	mov    %eax,-0x18(%ebp)
    6d71:	8b 45 e0             	mov    -0x20(%ebp),%eax
    6d74:	89 44 24 04          	mov    %eax,0x4(%esp)
    6d78:	8b 45 e4             	mov    -0x1c(%ebp),%eax
    6d7b:	89 44 24 08          	mov    %eax,0x8(%esp)
    6d7f:	8b 45 e8             	mov    -0x18(%ebp),%eax
    6d82:	89 44 24 0c          	mov    %eax,0xc(%esp)
    6d86:	8b 45 ec             	mov    -0x14(%ebp),%eax
    6d89:	89 44 24 10          	mov    %eax,0x10(%esp)
    6d8d:	c7 04 24 fe 00 00 00 	movl   $0xfe,(%esp)
    6d94:	e8 8d ab ff ff       	call   1926 <IDT_WriteIDT>
    6d99:	b8 5a 08 00 00       	mov    $0x85a,%eax
    6d9e:	89 45 e8             	mov    %eax,-0x18(%ebp)
    6da1:	8b 45 e0             	mov    -0x20(%ebp),%eax
    6da4:	89 44 24 04          	mov    %eax,0x4(%esp)
    6da8:	8b 45 e4             	mov    -0x1c(%ebp),%eax
    6dab:	89 44 24 08          	mov    %eax,0x8(%esp)
    6daf:	8b 45 e8             	mov    -0x18(%ebp),%eax
    6db2:	89 44 24 0c          	mov    %eax,0xc(%esp)
    6db6:	8b 45 ec             	mov    -0x14(%ebp),%eax
    6db9:	89 44 24 10          	mov    %eax,0x10(%esp)
    6dbd:	c7 04 24 ff 00 00 00 	movl   $0xff,(%esp)
    6dc4:	e8 5d ab ff ff       	call   1926 <IDT_WriteIDT>
    6dc9:	c9                   	leave  
    6dca:	c3                   	ret    

00006dcb <APIC_Init>:
    6dcb:	55                   	push   %ebp
    6dcc:	89 e5                	mov    %esp,%ebp
    6dce:	5d                   	pop    %ebp
    6dcf:	c3                   	ret    

00006dd0 <ICH7_8259_Init>:
    6dd0:	55                   	push   %ebp
    6dd1:	89 e5                	mov    %esp,%ebp
    6dd3:	83 ec 18             	sub    $0x18,%esp
    6dd6:	c6 05 c0 b9 00 00 00 	movb   $0x0,0xb9c0
    6ddd:	c6 05 c1 b9 00 00 1f 	movb   $0x1f,0xb9c1
    6de4:	c6 05 c2 b9 00 00 00 	movb   $0x0,0xb9c2
    6deb:	c7 44 24 04 11 00 00 	movl   $0x11,0x4(%esp)
    6df2:	00 
    6df3:	c7 04 24 20 00 00 00 	movl   $0x20,(%esp)
    6dfa:	e8 78 92 ff ff       	call   77 <IO_Out8>
    6dff:	c7 44 24 04 08 00 00 	movl   $0x8,0x4(%esp)
    6e06:	00 
    6e07:	c7 04 24 21 00 00 00 	movl   $0x21,(%esp)
    6e0e:	e8 64 92 ff ff       	call   77 <IO_Out8>
    6e13:	c7 44 24 04 04 00 00 	movl   $0x4,0x4(%esp)
    6e1a:	00 
    6e1b:	c7 04 24 21 00 00 00 	movl   $0x21,(%esp)
    6e22:	e8 50 92 ff ff       	call   77 <IO_Out8>
    6e27:	c7 44 24 04 01 00 00 	movl   $0x1,0x4(%esp)
    6e2e:	00 
    6e2f:	c7 04 24 21 00 00 00 	movl   $0x21,(%esp)
    6e36:	e8 3c 92 ff ff       	call   77 <IO_Out8>
    6e3b:	c7 44 24 04 11 00 00 	movl   $0x11,0x4(%esp)
    6e42:	00 
    6e43:	c7 04 24 a0 00 00 00 	movl   $0xa0,(%esp)
    6e4a:	e8 28 92 ff ff       	call   77 <IO_Out8>
    6e4f:	c7 44 24 04 70 00 00 	movl   $0x70,0x4(%esp)
    6e56:	00 
    6e57:	c7 04 24 a1 00 00 00 	movl   $0xa1,(%esp)
    6e5e:	e8 14 92 ff ff       	call   77 <IO_Out8>
    6e63:	c7 44 24 04 02 00 00 	movl   $0x2,0x4(%esp)
    6e6a:	00 
    6e6b:	c7 04 24 a1 00 00 00 	movl   $0xa1,(%esp)
    6e72:	e8 00 92 ff ff       	call   77 <IO_Out8>
    6e77:	c7 44 24 04 01 00 00 	movl   $0x1,0x4(%esp)
    6e7e:	00 
    6e7f:	c7 04 24 a1 00 00 00 	movl   $0xa1,(%esp)
    6e86:	e8 ec 91 ff ff       	call   77 <IO_Out8>
    6e8b:	c7 44 24 04 fe 00 00 	movl   $0xfe,0x4(%esp)
    6e92:	00 
    6e93:	c7 04 24 21 00 00 00 	movl   $0x21,(%esp)
    6e9a:	e8 d8 91 ff ff       	call   77 <IO_Out8>
    6e9f:	c7 44 24 04 20 00 00 	movl   $0x20,0x4(%esp)
    6ea6:	00 
    6ea7:	c7 04 24 20 00 00 00 	movl   $0x20,(%esp)
    6eae:	e8 c4 91 ff ff       	call   77 <IO_Out8>
    6eb3:	c7 44 24 04 ff 00 00 	movl   $0xff,0x4(%esp)
    6eba:	00 
    6ebb:	c7 04 24 a1 00 00 00 	movl   $0xa1,(%esp)
    6ec2:	e8 b0 91 ff ff       	call   77 <IO_Out8>
    6ec7:	c7 44 24 04 20 00 00 	movl   $0x20,0x4(%esp)
    6ece:	00 
    6ecf:	c7 04 24 a0 00 00 00 	movl   $0xa0,(%esp)
    6ed6:	e8 9c 91 ff ff       	call   77 <IO_Out8>
    6edb:	c9                   	leave  
    6edc:	c3                   	ret    

00006edd <ICH7_8259_Master_Handler_End>:
    6edd:	55                   	push   %ebp
    6ede:	89 e5                	mov    %esp,%ebp
    6ee0:	83 ec 18             	sub    $0x18,%esp
    6ee3:	c7 44 24 04 20 00 00 	movl   $0x20,0x4(%esp)
    6eea:	00 
    6eeb:	c7 04 24 20 00 00 00 	movl   $0x20,(%esp)
    6ef2:	e8 80 91 ff ff       	call   77 <IO_Out8>
    6ef7:	c9                   	leave  
    6ef8:	c3                   	ret    

00006ef9 <ICH7_8259_Slave_Handler_End>:
    6ef9:	55                   	push   %ebp
    6efa:	89 e5                	mov    %esp,%ebp
    6efc:	83 ec 18             	sub    $0x18,%esp
    6eff:	c7 44 24 04 20 00 00 	movl   $0x20,0x4(%esp)
    6f06:	00 
    6f07:	c7 04 24 a0 00 00 00 	movl   $0xa0,(%esp)
    6f0e:	e8 64 91 ff ff       	call   77 <IO_Out8>
    6f13:	c9                   	leave  
    6f14:	c3                   	ret    

Disassembly of section .rodata:

00006f18 <.rodata>:
    6f18:	42                   	inc    %edx
    6f19:	6f                   	outsl  %ds:(%esi),(%dx)
    6f1a:	6f                   	outsl  %ds:(%esi),(%dx)
    6f1b:	74 4c                	je     6f69 <ICH7_8259_Slave_Handler_End+0x70>
    6f1d:	6f                   	outsl  %ds:(%esi),(%dx)
    6f1e:	61                   	popa   
    6f1f:	64                   	fs
    6f20:	65                   	gs
    6f21:	72 33                	jb     6f56 <ICH7_8259_Slave_Handler_End+0x5d>
    6f23:	32 20                	xor    (%eax),%ah
    6f25:	56                   	push   %esi
    6f26:	65                   	gs
    6f27:	72 20                	jb     6f49 <ICH7_8259_Slave_Handler_End+0x50>
    6f29:	31 2e                	xor    %ebp,(%esi)
    6f2b:	30 20                	xor    %ah,(%eax)
    6f2d:	42                   	inc    %edx
    6f2e:	79 20                	jns    6f50 <ICH7_8259_Slave_Handler_End+0x57>
    6f30:	4c                   	dec    %esp
    6f31:	69 5a 68 69 72 75 69 	imul   $0x69757269,0x68(%edx),%ebx
    6f38:	20 32                	and    %dh,(%edx)
    6f3a:	30 31                	xor    %dh,(%ecx)
    6f3c:	36 30 33             	xor    %dh,%ss:(%ebx)
    6f3f:	32 30                	xor    (%eax),%dh
    6f41:	0a 00                	or     (%eax),%al
    6f43:	38 32                	cmp    %dh,(%edx)
    6f45:	35 39 5f 49 6e       	xor    $0x6e495f39,%eax
    6f4a:	69 74 2e 2e 2e 0a 00 	imul   $0x49000a2e,0x2e(%esi,%ebp,1),%esi
    6f51:	49 
    6f52:	6e                   	outsb  %ds:(%esi),(%dx)
    6f53:	74 65                	je     6fba <ICH7_8259_Slave_Handler_End+0xc1>
    6f55:	72 72                	jb     6fc9 <ICH7_8259_Slave_Handler_End+0xd0>
    6f57:	75 70                	jne    6fc9 <ICH7_8259_Slave_Handler_End+0xd0>
    6f59:	74 5f                	je     6fba <ICH7_8259_Slave_Handler_End+0xc1>
    6f5b:	49                   	dec    %ecx
    6f5c:	6e                   	outsb  %ds:(%esi),(%dx)
    6f5d:	69 74 2e 2e 2e 0a 00 	imul   $0x43000a2e,0x2e(%esi,%ebp,1),%esi
    6f64:	43 
    6f65:	50                   	push   %eax
    6f66:	55                   	push   %ebp
    6f67:	5f                   	pop    %edi
    6f68:	49                   	dec    %ecx
    6f69:	6e                   	outsb  %ds:(%esi),(%dx)
    6f6a:	69 74 2e 2e 2e 0a 00 	imul   $0xa2e,0x2e(%esi,%ebp,1),%esi
    6f71:	00 
    6f72:	00 00                	add    %al,(%eax)
    6f74:	43                   	inc    %ebx
    6f75:	50                   	push   %eax
    6f76:	55                   	push   %ebp
    6f77:	20 46 72             	and    %al,0x72(%esi)
    6f7a:	65                   	gs
    6f7b:	71 3a                	jno    6fb7 <ICH7_8259_Slave_Handler_End+0xbe>
    6f7d:	25 6c 20 46 72       	and    $0x7246206c,%eax
    6f82:	65                   	gs
    6f83:	71 4b                	jno    6fd0 <ICH7_8259_Slave_Handler_End+0xd7>
    6f85:	3a 25 6c 20 46 72    	cmp    0x7246206c,%ah
    6f8b:	65                   	gs
    6f8c:	71 4d                	jno    6fdb <ICH7_8259_Slave_Handler_End+0xe2>
    6f8e:	3a 25 6c 20 46 72    	cmp    0x7246206c,%ah
    6f94:	65                   	gs
    6f95:	71 47                	jno    6fde <ICH7_8259_Slave_Handler_End+0xe5>
    6f97:	3a 25 6c 20 0a 00    	cmp    0xa206c,%ah
    6f9d:	41                   	inc    %ecx
    6f9e:	50                   	push   %eax
    6f9f:	49                   	dec    %ecx
    6fa0:	43                   	inc    %ebx
    6fa1:	20 56 65             	and    %dl,0x65(%esi)
    6fa4:	72 73                	jb     7019 <ICH7_8259_Slave_Handler_End+0x120>
    6fa6:	69 6f 6e 3a 25 78 0a 	imul   $0xa78253a,0x6e(%edi),%ebp
    6fad:	00 0a                	add    %cl,(%edx)
    6faf:	25 75 00 49 6e       	and    $0x6e490075,%eax
    6fb4:	76 61                	jbe    7017 <ICH7_8259_Slave_Handler_End+0x11e>
    6fb6:	6c                   	insb   (%dx),%es:(%edi)
    6fb7:	69 64 20 4c 69 6e 65 	imul   $0x20656e69,0x4c(%eax,%eiz,1),%esp
    6fbe:	20 
    6fbf:	6f                   	outsl  %ds:(%esi),(%dx)
    6fc0:	72 20                	jb     6fe2 <ICH7_8259_Slave_Handler_End+0xe9>
    6fc2:	43                   	inc    %ebx
    6fc3:	6f                   	outsl  %ds:(%esi),(%dx)
    6fc4:	6c                   	insb   (%dx),%es:(%edi)
    6fc5:	75 6d                	jne    7034 <ICH7_8259_Slave_Handler_End+0x13b>
    6fc7:	6e                   	outsb  %ds:(%esi),(%dx)
    6fc8:	00 56 69             	add    %dl,0x69(%esi)
    6fcb:	64 65 6f             	fs outsl %fs:%gs:(%esi),(%dx)
    6fce:	5f                   	pop    %edi
    6fcf:	57                   	push   %edi
    6fd0:	72 69                	jb     703b <ICH7_8259_Slave_Handler_End+0x142>
    6fd2:	74 65                	je     7039 <ICH7_8259_Slave_Handler_End+0x140>
    6fd4:	53                   	push   %ebx
    6fd5:	74 72                	je     7049 <ICH7_8259_Slave_Handler_End+0x150>
    6fd7:	00 56 69             	add    %dl,0x69(%esi)
    6fda:	64 65 6f             	fs outsl %fs:%gs:(%esi),(%dx)
    6fdd:	5f                   	pop    %edi
    6fde:	44                   	inc    %esp
    6fdf:	69 73 70 53 74 72 00 	imul   $0x727453,0x70(%ebx),%esi
    6fe6:	00 00                	add    %al,(%eax)
    6fe8:	bf 12 00 00 6b       	mov    $0x6b000012,%edi
    6fed:	15 00 00 6b 15       	adc    $0x156b0000,%eax
    6ff2:	00 00                	add    %al,(%eax)
    6ff4:	6b 15 00 00 6b 15 00 	imul   $0x0,0x156b0000,%edx
    6ffb:	00 6b 15             	add    %ch,0x15(%ebx)
    6ffe:	00 00                	add    %al,(%eax)
    7000:	6b 15 00 00 6b 15 00 	imul   $0x0,0x156b0000,%edx
    7007:	00 6b 15             	add    %ch,0x15(%ebx)
    700a:	00 00                	add    %al,(%eax)
    700c:	6b 15 00 00 6b 15 00 	imul   $0x0,0x156b0000,%edx
    7013:	00 6b 15             	add    %ch,0x15(%ebx)
    7016:	00 00                	add    %al,(%eax)
    7018:	6b 15 00 00 6b 15 00 	imul   $0x0,0x156b0000,%edx
    701f:	00 6b 15             	add    %ch,0x15(%ebx)
    7022:	00 00                	add    %al,(%eax)
    7024:	6b 15 00 00 6b 15 00 	imul   $0x0,0x156b0000,%edx
    702b:	00 6b 15             	add    %ch,0x15(%ebx)
    702e:	00 00                	add    %al,(%eax)
    7030:	6b 15 00 00 6b 15 00 	imul   $0x0,0x156b0000,%edx
    7037:	00 6b 15             	add    %ch,0x15(%ebx)
    703a:	00 00                	add    %al,(%eax)
    703c:	6b 15 00 00 6b 15 00 	imul   $0x0,0x156b0000,%edx
    7043:	00 6b 15             	add    %ch,0x15(%ebx)
    7046:	00 00                	add    %al,(%eax)
    7048:	6b 15 00 00 6b 15 00 	imul   $0x0,0x156b0000,%edx
    704f:	00 6b 15             	add    %ch,0x15(%ebx)
    7052:	00 00                	add    %al,(%eax)
    7054:	6b 15 00 00 6b 15 00 	imul   $0x0,0x156b0000,%edx
    705b:	00 6b 15             	add    %ch,0x15(%ebx)
    705e:	00 00                	add    %al,(%eax)
    7060:	6b 15 00 00 6b 15 00 	imul   $0x0,0x156b0000,%edx
    7067:	00 6b 15             	add    %ch,0x15(%ebx)
    706a:	00 00                	add    %al,(%eax)
    706c:	6b 15 00 00 6b 15 00 	imul   $0x0,0x156b0000,%edx
    7073:	00 6b 15             	add    %ch,0x15(%ebx)
    7076:	00 00                	add    %al,(%eax)
    7078:	6b 15 00 00 6b 15 00 	imul   $0x0,0x156b0000,%edx
    707f:	00 6b 15             	add    %ch,0x15(%ebx)
    7082:	00 00                	add    %al,(%eax)
    7084:	6b 15 00 00 6b 15 00 	imul   $0x0,0x156b0000,%edx
    708b:	00 6b 15             	add    %ch,0x15(%ebx)
    708e:	00 00                	add    %al,(%eax)
    7090:	6b 15 00 00 6b 15 00 	imul   $0x0,0x156b0000,%edx
    7097:	00 6b 15             	add    %ch,0x15(%ebx)
    709a:	00 00                	add    %al,(%eax)
    709c:	6b 15 00 00 6b 15 00 	imul   $0x0,0x156b0000,%edx
    70a3:	00 6b 15             	add    %ch,0x15(%ebx)
    70a6:	00 00                	add    %al,(%eax)
    70a8:	6b 15 00 00 6b 15 00 	imul   $0x0,0x156b0000,%edx
    70af:	00 6b 15             	add    %ch,0x15(%ebx)
    70b2:	00 00                	add    %al,(%eax)
    70b4:	6b 15 00 00 6b 15 00 	imul   $0x0,0x156b0000,%edx
    70bb:	00 6b 15             	add    %ch,0x15(%ebx)
    70be:	00 00                	add    %al,(%eax)
    70c0:	6b 15 00 00 6b 15 00 	imul   $0x0,0x156b0000,%edx
    70c7:	00 6b 15             	add    %ch,0x15(%ebx)
    70ca:	00 00                	add    %al,(%eax)
    70cc:	6b 15 00 00 6b 15 00 	imul   $0x0,0x156b0000,%edx
    70d3:	00 6b 15             	add    %ch,0x15(%ebx)
    70d6:	00 00                	add    %al,(%eax)
    70d8:	6b 15 00 00 3b 14 00 	imul   $0x0,0x143b0000,%edx
    70df:	00 e7                	add    %ah,%bh
    70e1:	13 00                	adc    (%eax),%eax
    70e3:	00 d7                	add    %dl,%bh
    70e5:	12 00                	adc    (%eax),%al
    70e7:	00 6b 15             	add    %ch,0x15(%ebx)
    70ea:	00 00                	add    %al,(%eax)
    70ec:	6b 15 00 00 6b 15 00 	imul   $0x0,0x156b0000,%edx
    70f3:	00 6b 15             	add    %ch,0x15(%ebx)
    70f6:	00 00                	add    %al,(%eax)
    70f8:	6b 15 00 00 6b 15 00 	imul   $0x0,0x156b0000,%edx
    70ff:	00 6b 15             	add    %ch,0x15(%ebx)
    7102:	00 00                	add    %al,(%eax)
    7104:	e9 14 00 00 6b       	jmp    6b00711d <_end+0x6affb495>
    7109:	15 00 00 b6 12       	adc    $0x12b60000,%eax
    710e:	00 00                	add    %al,(%eax)
    7110:	6b 15 00 00 6b 15 00 	imul   $0x0,0x156b0000,%edx
    7117:	00 6b 15             	add    %ch,0x15(%ebx)
    711a:	00 00                	add    %al,(%eax)
    711c:	6b 15 00 00 14 14 00 	imul   $0x0,0x14140000,%edx
    7123:	00 6b 15             	add    %ch,0x15(%ebx)
    7126:	00 00                	add    %al,(%eax)
    7128:	10 13                	adc    %dl,(%ebx)
    712a:	00 00                	add    %al,(%eax)
    712c:	6b 15 00 00 77 14 00 	imul   $0x0,0x14770000,%edx
    7133:	00 b0 14 00 00 56    	add    %dh,0x56000014(%eax)
    7139:	69 64 65 6f 5f 53 65 	imul   $0x7465535f,0x6f(%ebp,%eiz,2),%esp
    7140:	74 
    7141:	43                   	inc    %ebx
    7142:	75 72                	jne    71b6 <ICH7_8259_Slave_Handler_End+0x2bd>
    7144:	50                   	push   %eax
    7145:	6f                   	outsl  %ds:(%esi),(%dx)
    7146:	73 69                	jae    71b1 <ICH7_8259_Slave_Handler_End+0x2b8>
    7148:	74 69                	je     71b3 <ICH7_8259_Slave_Handler_End+0x2ba>
    714a:	6f                   	outsl  %ds:(%esi),(%dx)
    714b:	6e                   	outsb  %ds:(%esi),(%dx)
    714c:	00 45 72             	add    %al,0x72(%ebp)
    714f:	72 6f                	jb     71c0 <ICH7_8259_Slave_Handler_End+0x2c7>
    7151:	72 28                	jb     717b <ICH7_8259_Slave_Handler_End+0x282>
    7153:	00 29                	add    %ch,(%ecx)
    7155:	3a 00                	cmp    (%eax),%al
    7157:	0a 00                	or     (%eax),%al
    7159:	64                   	fs
    715a:	65                   	gs
    715b:	6c                   	insb   (%dx),%es:(%edi)
    715c:	61                   	popa   
    715d:	79 73                	jns    71d2 <ICH7_8259_Slave_Handler_End+0x2d9>
    715f:	3a 25 75 6c 0a 00    	cmp    0xa6c75,%ah
    7165:	52                   	push   %edx
    7166:	44                   	inc    %esp
    7167:	54                   	push   %esp
    7168:	53                   	push   %ebx
    7169:	43                   	inc    %ebx
    716a:	53                   	push   %ebx
    716b:	74 61                	je     71ce <ICH7_8259_Slave_Handler_End+0x2d5>
    716d:	72 74                	jb     71e3 <ICH7_8259_Slave_Handler_End+0x2ea>
    716f:	3a 25 75 6c 0a 00    	cmp    0xa6c75,%ah
    7175:	52                   	push   %edx
    7176:	44                   	inc    %esp
    7177:	54                   	push   %esp
    7178:	53                   	push   %ebx
    7179:	43                   	inc    %ebx
    717a:	45                   	inc    %ebp
    717b:	6e                   	outsb  %ds:(%esi),(%dx)
    717c:	64 3a 25 75 6c 0a 00 	cmp    %fs:0xa6c75,%ah
    7183:	78 2c                	js     71b1 <ICH7_8259_Slave_Handler_End+0x2b8>
    7185:	79 2c                	jns    71b3 <ICH7_8259_Slave_Handler_End+0x2ba>
    7187:	7a 3a                	jp     71c3 <ICH7_8259_Slave_Handler_End+0x2ca>
    7189:	25 75 6c 2c 25       	and    $0x252c6c75,%eax
    718e:	75 6c                	jne    71fc <ICH7_8259_Slave_Handler_End+0x303>
    7190:	2c 25                	sub    $0x25,%al
    7192:	75 6c                	jne    7200 <ICH7_8259_Slave_Handler_End+0x307>
    7194:	0a 00                	or     (%eax),%al
    7196:	6d                   	insl   (%dx),%es:(%edi)
    7197:	6d                   	insl   (%dx),%es:(%edi)
    7198:	6d                   	insl   (%dx),%es:(%edi)
    7199:	6d                   	insl   (%dx),%es:(%edi)
    719a:	0a 00                	or     (%eax),%al
    719c:	6e                   	outsb  %ds:(%esi),(%dx)
    719d:	6e                   	outsb  %ds:(%esi),(%dx)
    719e:	6e                   	outsb  %ds:(%esi),(%dx)
    719f:	6e                   	outsb  %ds:(%esi),(%dx)
    71a0:	0a 00                	or     (%eax),%al
    71a2:	00 00                	add    %al,(%eax)
    71a4:	49                   	dec    %ecx
    71a5:	6e                   	outsb  %ds:(%esi),(%dx)
    71a6:	74 65                	je     720d <ICH7_8259_Slave_Handler_End+0x314>
    71a8:	72 72                	jb     721c <ICH7_8259_Slave_Handler_End+0x323>
    71aa:	75 70                	jne    721c <ICH7_8259_Slave_Handler_End+0x323>
    71ac:	74 5f                	je     720d <ICH7_8259_Slave_Handler_End+0x314>
    71ae:	48                   	dec    %eax
    71af:	61                   	popa   
    71b0:	6e                   	outsb  %ds:(%esi),(%dx)
    71b1:	64                   	fs
    71b2:	6c                   	insb   (%dx),%es:(%edi)
    71b3:	65                   	gs
    71b4:	72 5f                	jb     7215 <ICH7_8259_Slave_Handler_End+0x31c>
    71b6:	30 3a                	xor    %bh,(%edx)
    71b8:	44                   	inc    %esp
    71b9:	6f                   	outsl  %ds:(%esi),(%dx)
    71ba:	6e                   	outsb  %ds:(%esi),(%dx)
    71bb:	27                   	daa    
    71bc:	74 20                	je     71de <ICH7_8259_Slave_Handler_End+0x2e5>
    71be:	64 69 76 20 30 21 0a 	imul   $0xa2130,%fs:0x20(%esi),%esi
    71c5:	00 
    71c6:	49                   	dec    %ecx
    71c7:	6e                   	outsb  %ds:(%esi),(%dx)
    71c8:	74 65                	je     722f <ICH7_8259_Slave_Handler_End+0x336>
    71ca:	72 72                	jb     723e <ICH7_8259_Slave_Handler_End+0x345>
    71cc:	75 70                	jne    723e <ICH7_8259_Slave_Handler_End+0x345>
    71ce:	74 5f                	je     722f <ICH7_8259_Slave_Handler_End+0x336>
    71d0:	48                   	dec    %eax
    71d1:	61                   	popa   
    71d2:	6e                   	outsb  %ds:(%esi),(%dx)
    71d3:	64                   	fs
    71d4:	6c                   	insb   (%dx),%es:(%edi)
    71d5:	65                   	gs
    71d6:	72 5f                	jb     7237 <ICH7_8259_Slave_Handler_End+0x33e>
    71d8:	31 3a                	xor    %edi,(%edx)
    71da:	0a 00                	or     (%eax),%al
    71dc:	49                   	dec    %ecx
    71dd:	6e                   	outsb  %ds:(%esi),(%dx)
    71de:	74 65                	je     7245 <ICH7_8259_Slave_Handler_End+0x34c>
    71e0:	72 72                	jb     7254 <ICH7_8259_Slave_Handler_End+0x35b>
    71e2:	75 70                	jne    7254 <ICH7_8259_Slave_Handler_End+0x35b>
    71e4:	74 5f                	je     7245 <ICH7_8259_Slave_Handler_End+0x34c>
    71e6:	48                   	dec    %eax
    71e7:	61                   	popa   
    71e8:	6e                   	outsb  %ds:(%esi),(%dx)
    71e9:	64                   	fs
    71ea:	6c                   	insb   (%dx),%es:(%edi)
    71eb:	65                   	gs
    71ec:	72 5f                	jb     724d <ICH7_8259_Slave_Handler_End+0x354>
    71ee:	32 3a                	xor    (%edx),%bh
    71f0:	0a 00                	or     (%eax),%al
    71f2:	49                   	dec    %ecx
    71f3:	6e                   	outsb  %ds:(%esi),(%dx)
    71f4:	74 65                	je     725b <ICH7_8259_Slave_Handler_End+0x362>
    71f6:	72 72                	jb     726a <ICH7_8259_Slave_Handler_End+0x371>
    71f8:	75 70                	jne    726a <ICH7_8259_Slave_Handler_End+0x371>
    71fa:	74 5f                	je     725b <ICH7_8259_Slave_Handler_End+0x362>
    71fc:	48                   	dec    %eax
    71fd:	61                   	popa   
    71fe:	6e                   	outsb  %ds:(%esi),(%dx)
    71ff:	64                   	fs
    7200:	6c                   	insb   (%dx),%es:(%edi)
    7201:	65                   	gs
    7202:	72 5f                	jb     7263 <ICH7_8259_Slave_Handler_End+0x36a>
    7204:	33 3a                	xor    (%edx),%edi
    7206:	0a 00                	or     (%eax),%al
    7208:	49                   	dec    %ecx
    7209:	6e                   	outsb  %ds:(%esi),(%dx)
    720a:	74 65                	je     7271 <ICH7_8259_Slave_Handler_End+0x378>
    720c:	72 72                	jb     7280 <ICH7_8259_Slave_Handler_End+0x387>
    720e:	75 70                	jne    7280 <ICH7_8259_Slave_Handler_End+0x387>
    7210:	74 5f                	je     7271 <ICH7_8259_Slave_Handler_End+0x378>
    7212:	48                   	dec    %eax
    7213:	61                   	popa   
    7214:	6e                   	outsb  %ds:(%esi),(%dx)
    7215:	64                   	fs
    7216:	6c                   	insb   (%dx),%es:(%edi)
    7217:	65                   	gs
    7218:	72 5f                	jb     7279 <ICH7_8259_Slave_Handler_End+0x380>
    721a:	34 3a                	xor    $0x3a,%al
    721c:	0a 00                	or     (%eax),%al
    721e:	49                   	dec    %ecx
    721f:	6e                   	outsb  %ds:(%esi),(%dx)
    7220:	74 65                	je     7287 <ICH7_8259_Slave_Handler_End+0x38e>
    7222:	72 72                	jb     7296 <ICH7_8259_Slave_Handler_End+0x39d>
    7224:	75 70                	jne    7296 <ICH7_8259_Slave_Handler_End+0x39d>
    7226:	74 5f                	je     7287 <ICH7_8259_Slave_Handler_End+0x38e>
    7228:	48                   	dec    %eax
    7229:	61                   	popa   
    722a:	6e                   	outsb  %ds:(%esi),(%dx)
    722b:	64                   	fs
    722c:	6c                   	insb   (%dx),%es:(%edi)
    722d:	65                   	gs
    722e:	72 5f                	jb     728f <ICH7_8259_Slave_Handler_End+0x396>
    7230:	35 3a 0a 00 49       	xor    $0x49000a3a,%eax
    7235:	6e                   	outsb  %ds:(%esi),(%dx)
    7236:	74 65                	je     729d <ICH7_8259_Slave_Handler_End+0x3a4>
    7238:	72 72                	jb     72ac <ICH7_8259_Slave_Handler_End+0x3b3>
    723a:	75 70                	jne    72ac <ICH7_8259_Slave_Handler_End+0x3b3>
    723c:	74 5f                	je     729d <ICH7_8259_Slave_Handler_End+0x3a4>
    723e:	48                   	dec    %eax
    723f:	61                   	popa   
    7240:	6e                   	outsb  %ds:(%esi),(%dx)
    7241:	64                   	fs
    7242:	6c                   	insb   (%dx),%es:(%edi)
    7243:	65                   	gs
    7244:	72 5f                	jb     72a5 <ICH7_8259_Slave_Handler_End+0x3ac>
    7246:	36 3a 46 61          	cmp    %ss:0x61(%esi),%al
    724a:	75 6c                	jne    72b8 <ICH7_8259_Slave_Handler_End+0x3bf>
    724c:	74 3a                	je     7288 <ICH7_8259_Slave_Handler_End+0x38f>
    724e:	49                   	dec    %ecx
    724f:	6e                   	outsb  %ds:(%esi),(%dx)
    7250:	76 61                	jbe    72b3 <ICH7_8259_Slave_Handler_End+0x3ba>
    7252:	6c                   	insb   (%dx),%es:(%edi)
    7253:	69 64 20 4f 70 63 6f 	imul   $0x646f6370,0x4f(%eax,%eiz,1),%esp
    725a:	64 
    725b:	65 21 0a             	and    %ecx,%gs:(%edx)
    725e:	00 49 6e             	add    %cl,0x6e(%ecx)
    7261:	74 65                	je     72c8 <ICH7_8259_Slave_Handler_End+0x3cf>
    7263:	72 72                	jb     72d7 <ICH7_8259_Slave_Handler_End+0x3de>
    7265:	75 70                	jne    72d7 <ICH7_8259_Slave_Handler_End+0x3de>
    7267:	74 5f                	je     72c8 <ICH7_8259_Slave_Handler_End+0x3cf>
    7269:	48                   	dec    %eax
    726a:	61                   	popa   
    726b:	6e                   	outsb  %ds:(%esi),(%dx)
    726c:	64                   	fs
    726d:	6c                   	insb   (%dx),%es:(%edi)
    726e:	65                   	gs
    726f:	72 5f                	jb     72d0 <ICH7_8259_Slave_Handler_End+0x3d7>
    7271:	37                   	aaa    
    7272:	3a 0a                	cmp    (%edx),%cl
    7274:	00 49 6e             	add    %cl,0x6e(%ecx)
    7277:	74 65                	je     72de <ICH7_8259_Slave_Handler_End+0x3e5>
    7279:	72 72                	jb     72ed <ICH7_8259_Slave_Handler_End+0x3f4>
    727b:	75 70                	jne    72ed <ICH7_8259_Slave_Handler_End+0x3f4>
    727d:	74 5f                	je     72de <ICH7_8259_Slave_Handler_End+0x3e5>
    727f:	48                   	dec    %eax
    7280:	61                   	popa   
    7281:	6e                   	outsb  %ds:(%esi),(%dx)
    7282:	64                   	fs
    7283:	6c                   	insb   (%dx),%es:(%edi)
    7284:	65                   	gs
    7285:	72 5f                	jb     72e6 <ICH7_8259_Slave_Handler_End+0x3ed>
    7287:	39 3a                	cmp    %edi,(%edx)
    7289:	0a 00                	or     (%eax),%al
    728b:	49                   	dec    %ecx
    728c:	6e                   	outsb  %ds:(%esi),(%dx)
    728d:	74 65                	je     72f4 <ICH7_8259_Slave_Handler_End+0x3fb>
    728f:	72 72                	jb     7303 <ICH7_8259_Slave_Handler_End+0x40a>
    7291:	75 70                	jne    7303 <ICH7_8259_Slave_Handler_End+0x40a>
    7293:	74 5f                	je     72f4 <ICH7_8259_Slave_Handler_End+0x3fb>
    7295:	48                   	dec    %eax
    7296:	61                   	popa   
    7297:	6e                   	outsb  %ds:(%esi),(%dx)
    7298:	64                   	fs
    7299:	6c                   	insb   (%dx),%es:(%edi)
    729a:	65                   	gs
    729b:	72 5f                	jb     72fc <ICH7_8259_Slave_Handler_End+0x403>
    729d:	31 30                	xor    %esi,(%eax)
    729f:	3a 0a                	cmp    (%edx),%cl
    72a1:	00 49 6e             	add    %cl,0x6e(%ecx)
    72a4:	74 65                	je     730b <ICH7_8259_Slave_Handler_End+0x412>
    72a6:	72 72                	jb     731a <ICH7_8259_Slave_Handler_End+0x421>
    72a8:	75 70                	jne    731a <ICH7_8259_Slave_Handler_End+0x421>
    72aa:	74 5f                	je     730b <ICH7_8259_Slave_Handler_End+0x412>
    72ac:	48                   	dec    %eax
    72ad:	61                   	popa   
    72ae:	6e                   	outsb  %ds:(%esi),(%dx)
    72af:	64                   	fs
    72b0:	6c                   	insb   (%dx),%es:(%edi)
    72b1:	65                   	gs
    72b2:	72 5f                	jb     7313 <ICH7_8259_Slave_Handler_End+0x41a>
    72b4:	31 31                	xor    %esi,(%ecx)
    72b6:	3a 0a                	cmp    (%edx),%cl
    72b8:	00 49 6e             	add    %cl,0x6e(%ecx)
    72bb:	74 65                	je     7322 <ICH7_8259_Slave_Handler_End+0x429>
    72bd:	72 72                	jb     7331 <ICH7_8259_Slave_Handler_End+0x438>
    72bf:	75 70                	jne    7331 <ICH7_8259_Slave_Handler_End+0x438>
    72c1:	74 5f                	je     7322 <ICH7_8259_Slave_Handler_End+0x429>
    72c3:	48                   	dec    %eax
    72c4:	61                   	popa   
    72c5:	6e                   	outsb  %ds:(%esi),(%dx)
    72c6:	64                   	fs
    72c7:	6c                   	insb   (%dx),%es:(%edi)
    72c8:	65                   	gs
    72c9:	72 5f                	jb     732a <ICH7_8259_Slave_Handler_End+0x431>
    72cb:	31 32                	xor    %esi,(%edx)
    72cd:	3a 0a                	cmp    (%edx),%cl
    72cf:	00 49 6e             	add    %cl,0x6e(%ecx)
    72d2:	74 65                	je     7339 <ICH7_8259_Slave_Handler_End+0x440>
    72d4:	72 72                	jb     7348 <ICH7_8259_Slave_Handler_End+0x44f>
    72d6:	75 70                	jne    7348 <ICH7_8259_Slave_Handler_End+0x44f>
    72d8:	74 5f                	je     7339 <ICH7_8259_Slave_Handler_End+0x440>
    72da:	48                   	dec    %eax
    72db:	61                   	popa   
    72dc:	6e                   	outsb  %ds:(%esi),(%dx)
    72dd:	64                   	fs
    72de:	6c                   	insb   (%dx),%es:(%edi)
    72df:	65                   	gs
    72e0:	72 5f                	jb     7341 <ICH7_8259_Slave_Handler_End+0x448>
    72e2:	31 33                	xor    %esi,(%ebx)
    72e4:	3a 0a                	cmp    (%edx),%cl
    72e6:	00 49 6e             	add    %cl,0x6e(%ecx)
    72e9:	74 65                	je     7350 <ICH7_8259_Slave_Handler_End+0x457>
    72eb:	72 72                	jb     735f <ICH7_8259_Slave_Handler_End+0x466>
    72ed:	75 70                	jne    735f <ICH7_8259_Slave_Handler_End+0x466>
    72ef:	74 5f                	je     7350 <ICH7_8259_Slave_Handler_End+0x457>
    72f1:	48                   	dec    %eax
    72f2:	61                   	popa   
    72f3:	6e                   	outsb  %ds:(%esi),(%dx)
    72f4:	64                   	fs
    72f5:	6c                   	insb   (%dx),%es:(%edi)
    72f6:	65                   	gs
    72f7:	72 5f                	jb     7358 <ICH7_8259_Slave_Handler_End+0x45f>
    72f9:	31 34 3a             	xor    %esi,(%edx,%edi,1)
    72fc:	0a 00                	or     (%eax),%al
    72fe:	49                   	dec    %ecx
    72ff:	6e                   	outsb  %ds:(%esi),(%dx)
    7300:	74 65                	je     7367 <ICH7_8259_Slave_Handler_End+0x46e>
    7302:	72 72                	jb     7376 <ICH7_8259_Slave_Handler_End+0x47d>
    7304:	75 70                	jne    7376 <ICH7_8259_Slave_Handler_End+0x47d>
    7306:	74 5f                	je     7367 <ICH7_8259_Slave_Handler_End+0x46e>
    7308:	48                   	dec    %eax
    7309:	61                   	popa   
    730a:	6e                   	outsb  %ds:(%esi),(%dx)
    730b:	64                   	fs
    730c:	6c                   	insb   (%dx),%es:(%edi)
    730d:	65                   	gs
    730e:	72 5f                	jb     736f <ICH7_8259_Slave_Handler_End+0x476>
    7310:	31 35 3a 0a 00 49    	xor    %esi,0x49000a3a
    7316:	6e                   	outsb  %ds:(%esi),(%dx)
    7317:	74 65                	je     737e <ICH7_8259_Slave_Handler_End+0x485>
    7319:	72 72                	jb     738d <ICH7_8259_Slave_Handler_End+0x494>
    731b:	75 70                	jne    738d <ICH7_8259_Slave_Handler_End+0x494>
    731d:	74 5f                	je     737e <ICH7_8259_Slave_Handler_End+0x485>
    731f:	48                   	dec    %eax
    7320:	61                   	popa   
    7321:	6e                   	outsb  %ds:(%esi),(%dx)
    7322:	64                   	fs
    7323:	6c                   	insb   (%dx),%es:(%edi)
    7324:	65                   	gs
    7325:	72 5f                	jb     7386 <ICH7_8259_Slave_Handler_End+0x48d>
    7327:	31 36                	xor    %esi,(%esi)
    7329:	3a 0a                	cmp    (%edx),%cl
    732b:	00 49 6e             	add    %cl,0x6e(%ecx)
    732e:	74 65                	je     7395 <ICH7_8259_Slave_Handler_End+0x49c>
    7330:	72 72                	jb     73a4 <ICH7_8259_Slave_Handler_End+0x4ab>
    7332:	75 70                	jne    73a4 <ICH7_8259_Slave_Handler_End+0x4ab>
    7334:	74 5f                	je     7395 <ICH7_8259_Slave_Handler_End+0x49c>
    7336:	48                   	dec    %eax
    7337:	61                   	popa   
    7338:	6e                   	outsb  %ds:(%esi),(%dx)
    7339:	64                   	fs
    733a:	6c                   	insb   (%dx),%es:(%edi)
    733b:	65                   	gs
    733c:	72 5f                	jb     739d <ICH7_8259_Slave_Handler_End+0x4a4>
    733e:	31 37                	xor    %esi,(%edi)
    7340:	3a 0a                	cmp    (%edx),%cl
    7342:	00 49 6e             	add    %cl,0x6e(%ecx)
    7345:	74 65                	je     73ac <ICH7_8259_Slave_Handler_End+0x4b3>
    7347:	72 72                	jb     73bb <ICH7_8259_Slave_Handler_End+0x4c2>
    7349:	75 70                	jne    73bb <ICH7_8259_Slave_Handler_End+0x4c2>
    734b:	74 5f                	je     73ac <ICH7_8259_Slave_Handler_End+0x4b3>
    734d:	48                   	dec    %eax
    734e:	61                   	popa   
    734f:	6e                   	outsb  %ds:(%esi),(%dx)
    7350:	64                   	fs
    7351:	6c                   	insb   (%dx),%es:(%edi)
    7352:	65                   	gs
    7353:	72 5f                	jb     73b4 <ICH7_8259_Slave_Handler_End+0x4bb>
    7355:	31 38                	xor    %edi,(%eax)
    7357:	3a 0a                	cmp    (%edx),%cl
    7359:	00 49 6e             	add    %cl,0x6e(%ecx)
    735c:	74 65                	je     73c3 <ICH7_8259_Slave_Handler_End+0x4ca>
    735e:	72 72                	jb     73d2 <ICH7_8259_Slave_Handler_End+0x4d9>
    7360:	75 70                	jne    73d2 <ICH7_8259_Slave_Handler_End+0x4d9>
    7362:	74 5f                	je     73c3 <ICH7_8259_Slave_Handler_End+0x4ca>
    7364:	48                   	dec    %eax
    7365:	61                   	popa   
    7366:	6e                   	outsb  %ds:(%esi),(%dx)
    7367:	64                   	fs
    7368:	6c                   	insb   (%dx),%es:(%edi)
    7369:	65                   	gs
    736a:	72 5f                	jb     73cb <ICH7_8259_Slave_Handler_End+0x4d2>
    736c:	31 39                	xor    %edi,(%ecx)
    736e:	3a 0a                	cmp    (%edx),%cl
    7370:	00 49 6e             	add    %cl,0x6e(%ecx)
    7373:	74 65                	je     73da <ICH7_8259_Slave_Handler_End+0x4e1>
    7375:	72 72                	jb     73e9 <ICH7_8259_Slave_Handler_End+0x4f0>
    7377:	75 70                	jne    73e9 <ICH7_8259_Slave_Handler_End+0x4f0>
    7379:	74 5f                	je     73da <ICH7_8259_Slave_Handler_End+0x4e1>
    737b:	48                   	dec    %eax
    737c:	61                   	popa   
    737d:	6e                   	outsb  %ds:(%esi),(%dx)
    737e:	64                   	fs
    737f:	6c                   	insb   (%dx),%es:(%edi)
    7380:	65                   	gs
    7381:	72 5f                	jb     73e2 <ICH7_8259_Slave_Handler_End+0x4e9>
    7383:	32 30                	xor    (%eax),%dh
    7385:	3a 0a                	cmp    (%edx),%cl
    7387:	00 49 6e             	add    %cl,0x6e(%ecx)
    738a:	74 65                	je     73f1 <ICH7_8259_Slave_Handler_End+0x4f8>
    738c:	72 72                	jb     7400 <ICH7_8259_Slave_Handler_End+0x507>
    738e:	75 70                	jne    7400 <ICH7_8259_Slave_Handler_End+0x507>
    7390:	74 5f                	je     73f1 <ICH7_8259_Slave_Handler_End+0x4f8>
    7392:	48                   	dec    %eax
    7393:	61                   	popa   
    7394:	6e                   	outsb  %ds:(%esi),(%dx)
    7395:	64                   	fs
    7396:	6c                   	insb   (%dx),%es:(%edi)
    7397:	65                   	gs
    7398:	72 5f                	jb     73f9 <ICH7_8259_Slave_Handler_End+0x500>
    739a:	32 31                	xor    (%ecx),%dh
    739c:	3a 0a                	cmp    (%edx),%cl
    739e:	00 49 6e             	add    %cl,0x6e(%ecx)
    73a1:	74 65                	je     7408 <ICH7_8259_Slave_Handler_End+0x50f>
    73a3:	72 72                	jb     7417 <ICH7_8259_Slave_Handler_End+0x51e>
    73a5:	75 70                	jne    7417 <ICH7_8259_Slave_Handler_End+0x51e>
    73a7:	74 5f                	je     7408 <ICH7_8259_Slave_Handler_End+0x50f>
    73a9:	48                   	dec    %eax
    73aa:	61                   	popa   
    73ab:	6e                   	outsb  %ds:(%esi),(%dx)
    73ac:	64                   	fs
    73ad:	6c                   	insb   (%dx),%es:(%edi)
    73ae:	65                   	gs
    73af:	72 5f                	jb     7410 <ICH7_8259_Slave_Handler_End+0x517>
    73b1:	32 32                	xor    (%edx),%dh
    73b3:	3a 0a                	cmp    (%edx),%cl
    73b5:	00 49 6e             	add    %cl,0x6e(%ecx)
    73b8:	74 65                	je     741f <ICH7_8259_Slave_Handler_End+0x526>
    73ba:	72 72                	jb     742e <ICH7_8259_Slave_Handler_End+0x535>
    73bc:	75 70                	jne    742e <ICH7_8259_Slave_Handler_End+0x535>
    73be:	74 5f                	je     741f <ICH7_8259_Slave_Handler_End+0x526>
    73c0:	48                   	dec    %eax
    73c1:	61                   	popa   
    73c2:	6e                   	outsb  %ds:(%esi),(%dx)
    73c3:	64                   	fs
    73c4:	6c                   	insb   (%dx),%es:(%edi)
    73c5:	65                   	gs
    73c6:	72 5f                	jb     7427 <ICH7_8259_Slave_Handler_End+0x52e>
    73c8:	32 33                	xor    (%ebx),%dh
    73ca:	3a 0a                	cmp    (%edx),%cl
    73cc:	00 49 6e             	add    %cl,0x6e(%ecx)
    73cf:	74 65                	je     7436 <ICH7_8259_Slave_Handler_End+0x53d>
    73d1:	72 72                	jb     7445 <ICH7_8259_Slave_Handler_End+0x54c>
    73d3:	75 70                	jne    7445 <ICH7_8259_Slave_Handler_End+0x54c>
    73d5:	74 5f                	je     7436 <ICH7_8259_Slave_Handler_End+0x53d>
    73d7:	48                   	dec    %eax
    73d8:	61                   	popa   
    73d9:	6e                   	outsb  %ds:(%esi),(%dx)
    73da:	64                   	fs
    73db:	6c                   	insb   (%dx),%es:(%edi)
    73dc:	65                   	gs
    73dd:	72 5f                	jb     743e <ICH7_8259_Slave_Handler_End+0x545>
    73df:	32 34 3a             	xor    (%edx,%edi,1),%dh
    73e2:	0a 00                	or     (%eax),%al
    73e4:	49                   	dec    %ecx
    73e5:	6e                   	outsb  %ds:(%esi),(%dx)
    73e6:	74 65                	je     744d <ICH7_8259_Slave_Handler_End+0x554>
    73e8:	72 72                	jb     745c <ICH7_8259_Slave_Handler_End+0x563>
    73ea:	75 70                	jne    745c <ICH7_8259_Slave_Handler_End+0x563>
    73ec:	74 5f                	je     744d <ICH7_8259_Slave_Handler_End+0x554>
    73ee:	48                   	dec    %eax
    73ef:	61                   	popa   
    73f0:	6e                   	outsb  %ds:(%esi),(%dx)
    73f1:	64                   	fs
    73f2:	6c                   	insb   (%dx),%es:(%edi)
    73f3:	65                   	gs
    73f4:	72 5f                	jb     7455 <ICH7_8259_Slave_Handler_End+0x55c>
    73f6:	32 35 3a 0a 00 49    	xor    0x49000a3a,%dh
    73fc:	6e                   	outsb  %ds:(%esi),(%dx)
    73fd:	74 65                	je     7464 <ICH7_8259_Slave_Handler_End+0x56b>
    73ff:	72 72                	jb     7473 <ICH7_8259_Slave_Handler_End+0x57a>
    7401:	75 70                	jne    7473 <ICH7_8259_Slave_Handler_End+0x57a>
    7403:	74 5f                	je     7464 <ICH7_8259_Slave_Handler_End+0x56b>
    7405:	48                   	dec    %eax
    7406:	61                   	popa   
    7407:	6e                   	outsb  %ds:(%esi),(%dx)
    7408:	64                   	fs
    7409:	6c                   	insb   (%dx),%es:(%edi)
    740a:	65                   	gs
    740b:	72 5f                	jb     746c <ICH7_8259_Slave_Handler_End+0x573>
    740d:	32 36                	xor    (%esi),%dh
    740f:	3a 0a                	cmp    (%edx),%cl
    7411:	00 49 6e             	add    %cl,0x6e(%ecx)
    7414:	74 65                	je     747b <ICH7_8259_Slave_Handler_End+0x582>
    7416:	72 72                	jb     748a <ICH7_8259_Slave_Handler_End+0x591>
    7418:	75 70                	jne    748a <ICH7_8259_Slave_Handler_End+0x591>
    741a:	74 5f                	je     747b <ICH7_8259_Slave_Handler_End+0x582>
    741c:	48                   	dec    %eax
    741d:	61                   	popa   
    741e:	6e                   	outsb  %ds:(%esi),(%dx)
    741f:	64                   	fs
    7420:	6c                   	insb   (%dx),%es:(%edi)
    7421:	65                   	gs
    7422:	72 5f                	jb     7483 <ICH7_8259_Slave_Handler_End+0x58a>
    7424:	32 37                	xor    (%edi),%dh
    7426:	3a 0a                	cmp    (%edx),%cl
    7428:	00 49 6e             	add    %cl,0x6e(%ecx)
    742b:	74 65                	je     7492 <ICH7_8259_Slave_Handler_End+0x599>
    742d:	72 72                	jb     74a1 <ICH7_8259_Slave_Handler_End+0x5a8>
    742f:	75 70                	jne    74a1 <ICH7_8259_Slave_Handler_End+0x5a8>
    7431:	74 5f                	je     7492 <ICH7_8259_Slave_Handler_End+0x599>
    7433:	48                   	dec    %eax
    7434:	61                   	popa   
    7435:	6e                   	outsb  %ds:(%esi),(%dx)
    7436:	64                   	fs
    7437:	6c                   	insb   (%dx),%es:(%edi)
    7438:	65                   	gs
    7439:	72 5f                	jb     749a <ICH7_8259_Slave_Handler_End+0x5a1>
    743b:	32 38                	xor    (%eax),%bh
    743d:	3a 0a                	cmp    (%edx),%cl
    743f:	00 49 6e             	add    %cl,0x6e(%ecx)
    7442:	74 65                	je     74a9 <ICH7_8259_Slave_Handler_End+0x5b0>
    7444:	72 72                	jb     74b8 <ICH7_8259_Slave_Handler_End+0x5bf>
    7446:	75 70                	jne    74b8 <ICH7_8259_Slave_Handler_End+0x5bf>
    7448:	74 5f                	je     74a9 <ICH7_8259_Slave_Handler_End+0x5b0>
    744a:	48                   	dec    %eax
    744b:	61                   	popa   
    744c:	6e                   	outsb  %ds:(%esi),(%dx)
    744d:	64                   	fs
    744e:	6c                   	insb   (%dx),%es:(%edi)
    744f:	65                   	gs
    7450:	72 5f                	jb     74b1 <ICH7_8259_Slave_Handler_End+0x5b8>
    7452:	32 39                	xor    (%ecx),%bh
    7454:	3a 0a                	cmp    (%edx),%cl
    7456:	00 49 6e             	add    %cl,0x6e(%ecx)
    7459:	74 65                	je     74c0 <ICH7_8259_Slave_Handler_End+0x5c7>
    745b:	72 72                	jb     74cf <ICH7_8259_Slave_Handler_End+0x5d6>
    745d:	75 70                	jne    74cf <ICH7_8259_Slave_Handler_End+0x5d6>
    745f:	74 5f                	je     74c0 <ICH7_8259_Slave_Handler_End+0x5c7>
    7461:	48                   	dec    %eax
    7462:	61                   	popa   
    7463:	6e                   	outsb  %ds:(%esi),(%dx)
    7464:	64                   	fs
    7465:	6c                   	insb   (%dx),%es:(%edi)
    7466:	65                   	gs
    7467:	72 5f                	jb     74c8 <ICH7_8259_Slave_Handler_End+0x5cf>
    7469:	33 30                	xor    (%eax),%esi
    746b:	3a 0a                	cmp    (%edx),%cl
    746d:	00 49 6e             	add    %cl,0x6e(%ecx)
    7470:	74 65                	je     74d7 <ICH7_8259_Slave_Handler_End+0x5de>
    7472:	72 72                	jb     74e6 <ICH7_8259_Slave_Handler_End+0x5ed>
    7474:	75 70                	jne    74e6 <ICH7_8259_Slave_Handler_End+0x5ed>
    7476:	74 5f                	je     74d7 <ICH7_8259_Slave_Handler_End+0x5de>
    7478:	48                   	dec    %eax
    7479:	61                   	popa   
    747a:	6e                   	outsb  %ds:(%esi),(%dx)
    747b:	64                   	fs
    747c:	6c                   	insb   (%dx),%es:(%edi)
    747d:	65                   	gs
    747e:	72 5f                	jb     74df <ICH7_8259_Slave_Handler_End+0x5e6>
    7480:	33 31                	xor    (%ecx),%esi
    7482:	3a 0a                	cmp    (%edx),%cl
    7484:	00 49 6e             	add    %cl,0x6e(%ecx)
    7487:	74 65                	je     74ee <ICH7_8259_Slave_Handler_End+0x5f5>
    7489:	72 72                	jb     74fd <ICH7_8259_Slave_Handler_End+0x604>
    748b:	75 70                	jne    74fd <ICH7_8259_Slave_Handler_End+0x604>
    748d:	74 5f                	je     74ee <ICH7_8259_Slave_Handler_End+0x5f5>
    748f:	48                   	dec    %eax
    7490:	61                   	popa   
    7491:	6e                   	outsb  %ds:(%esi),(%dx)
    7492:	64                   	fs
    7493:	6c                   	insb   (%dx),%es:(%edi)
    7494:	65                   	gs
    7495:	72 5f                	jb     74f6 <ICH7_8259_Slave_Handler_End+0x5fd>
    7497:	33 32                	xor    (%edx),%esi
    7499:	3a 0a                	cmp    (%edx),%cl
    749b:	00 49 6e             	add    %cl,0x6e(%ecx)
    749e:	74 65                	je     7505 <ICH7_8259_Slave_Handler_End+0x60c>
    74a0:	72 72                	jb     7514 <ICH7_8259_Slave_Handler_End+0x61b>
    74a2:	75 70                	jne    7514 <ICH7_8259_Slave_Handler_End+0x61b>
    74a4:	74 5f                	je     7505 <ICH7_8259_Slave_Handler_End+0x60c>
    74a6:	48                   	dec    %eax
    74a7:	61                   	popa   
    74a8:	6e                   	outsb  %ds:(%esi),(%dx)
    74a9:	64                   	fs
    74aa:	6c                   	insb   (%dx),%es:(%edi)
    74ab:	65                   	gs
    74ac:	72 5f                	jb     750d <ICH7_8259_Slave_Handler_End+0x614>
    74ae:	33 33                	xor    (%ebx),%esi
    74b0:	3a 0a                	cmp    (%edx),%cl
    74b2:	00 49 6e             	add    %cl,0x6e(%ecx)
    74b5:	74 65                	je     751c <ICH7_8259_Slave_Handler_End+0x623>
    74b7:	72 72                	jb     752b <ICH7_8259_Slave_Handler_End+0x632>
    74b9:	75 70                	jne    752b <ICH7_8259_Slave_Handler_End+0x632>
    74bb:	74 5f                	je     751c <ICH7_8259_Slave_Handler_End+0x623>
    74bd:	48                   	dec    %eax
    74be:	61                   	popa   
    74bf:	6e                   	outsb  %ds:(%esi),(%dx)
    74c0:	64                   	fs
    74c1:	6c                   	insb   (%dx),%es:(%edi)
    74c2:	65                   	gs
    74c3:	72 5f                	jb     7524 <ICH7_8259_Slave_Handler_End+0x62b>
    74c5:	33 34 3a             	xor    (%edx,%edi,1),%esi
    74c8:	0a 00                	or     (%eax),%al
    74ca:	49                   	dec    %ecx
    74cb:	6e                   	outsb  %ds:(%esi),(%dx)
    74cc:	74 65                	je     7533 <ICH7_8259_Slave_Handler_End+0x63a>
    74ce:	72 72                	jb     7542 <ICH7_8259_Slave_Handler_End+0x649>
    74d0:	75 70                	jne    7542 <ICH7_8259_Slave_Handler_End+0x649>
    74d2:	74 5f                	je     7533 <ICH7_8259_Slave_Handler_End+0x63a>
    74d4:	48                   	dec    %eax
    74d5:	61                   	popa   
    74d6:	6e                   	outsb  %ds:(%esi),(%dx)
    74d7:	64                   	fs
    74d8:	6c                   	insb   (%dx),%es:(%edi)
    74d9:	65                   	gs
    74da:	72 5f                	jb     753b <ICH7_8259_Slave_Handler_End+0x642>
    74dc:	33 35 3a 0a 00 49    	xor    0x49000a3a,%esi
    74e2:	6e                   	outsb  %ds:(%esi),(%dx)
    74e3:	74 65                	je     754a <ICH7_8259_Slave_Handler_End+0x651>
    74e5:	72 72                	jb     7559 <ICH7_8259_Slave_Handler_End+0x660>
    74e7:	75 70                	jne    7559 <ICH7_8259_Slave_Handler_End+0x660>
    74e9:	74 5f                	je     754a <ICH7_8259_Slave_Handler_End+0x651>
    74eb:	48                   	dec    %eax
    74ec:	61                   	popa   
    74ed:	6e                   	outsb  %ds:(%esi),(%dx)
    74ee:	64                   	fs
    74ef:	6c                   	insb   (%dx),%es:(%edi)
    74f0:	65                   	gs
    74f1:	72 5f                	jb     7552 <ICH7_8259_Slave_Handler_End+0x659>
    74f3:	33 36                	xor    (%esi),%esi
    74f5:	3a 0a                	cmp    (%edx),%cl
    74f7:	00 49 6e             	add    %cl,0x6e(%ecx)
    74fa:	74 65                	je     7561 <ICH7_8259_Slave_Handler_End+0x668>
    74fc:	72 72                	jb     7570 <ICH7_8259_Slave_Handler_End+0x677>
    74fe:	75 70                	jne    7570 <ICH7_8259_Slave_Handler_End+0x677>
    7500:	74 5f                	je     7561 <ICH7_8259_Slave_Handler_End+0x668>
    7502:	48                   	dec    %eax
    7503:	61                   	popa   
    7504:	6e                   	outsb  %ds:(%esi),(%dx)
    7505:	64                   	fs
    7506:	6c                   	insb   (%dx),%es:(%edi)
    7507:	65                   	gs
    7508:	72 5f                	jb     7569 <ICH7_8259_Slave_Handler_End+0x670>
    750a:	33 37                	xor    (%edi),%esi
    750c:	3a 0a                	cmp    (%edx),%cl
    750e:	00 49 6e             	add    %cl,0x6e(%ecx)
    7511:	74 65                	je     7578 <ICH7_8259_Slave_Handler_End+0x67f>
    7513:	72 72                	jb     7587 <ICH7_8259_Slave_Handler_End+0x68e>
    7515:	75 70                	jne    7587 <ICH7_8259_Slave_Handler_End+0x68e>
    7517:	74 5f                	je     7578 <ICH7_8259_Slave_Handler_End+0x67f>
    7519:	48                   	dec    %eax
    751a:	61                   	popa   
    751b:	6e                   	outsb  %ds:(%esi),(%dx)
    751c:	64                   	fs
    751d:	6c                   	insb   (%dx),%es:(%edi)
    751e:	65                   	gs
    751f:	72 5f                	jb     7580 <ICH7_8259_Slave_Handler_End+0x687>
    7521:	33 38                	xor    (%eax),%edi
    7523:	3a 0a                	cmp    (%edx),%cl
    7525:	00 49 6e             	add    %cl,0x6e(%ecx)
    7528:	74 65                	je     758f <ICH7_8259_Slave_Handler_End+0x696>
    752a:	72 72                	jb     759e <ICH7_8259_Slave_Handler_End+0x6a5>
    752c:	75 70                	jne    759e <ICH7_8259_Slave_Handler_End+0x6a5>
    752e:	74 5f                	je     758f <ICH7_8259_Slave_Handler_End+0x696>
    7530:	48                   	dec    %eax
    7531:	61                   	popa   
    7532:	6e                   	outsb  %ds:(%esi),(%dx)
    7533:	64                   	fs
    7534:	6c                   	insb   (%dx),%es:(%edi)
    7535:	65                   	gs
    7536:	72 5f                	jb     7597 <ICH7_8259_Slave_Handler_End+0x69e>
    7538:	33 39                	xor    (%ecx),%edi
    753a:	3a 0a                	cmp    (%edx),%cl
    753c:	00 49 6e             	add    %cl,0x6e(%ecx)
    753f:	74 65                	je     75a6 <ICH7_8259_Slave_Handler_End+0x6ad>
    7541:	72 72                	jb     75b5 <ICH7_8259_Slave_Handler_End+0x6bc>
    7543:	75 70                	jne    75b5 <ICH7_8259_Slave_Handler_End+0x6bc>
    7545:	74 5f                	je     75a6 <ICH7_8259_Slave_Handler_End+0x6ad>
    7547:	48                   	dec    %eax
    7548:	61                   	popa   
    7549:	6e                   	outsb  %ds:(%esi),(%dx)
    754a:	64                   	fs
    754b:	6c                   	insb   (%dx),%es:(%edi)
    754c:	65                   	gs
    754d:	72 5f                	jb     75ae <ICH7_8259_Slave_Handler_End+0x6b5>
    754f:	34 30                	xor    $0x30,%al
    7551:	3a 0a                	cmp    (%edx),%cl
    7553:	00 49 6e             	add    %cl,0x6e(%ecx)
    7556:	74 65                	je     75bd <ICH7_8259_Slave_Handler_End+0x6c4>
    7558:	72 72                	jb     75cc <ICH7_8259_Slave_Handler_End+0x6d3>
    755a:	75 70                	jne    75cc <ICH7_8259_Slave_Handler_End+0x6d3>
    755c:	74 5f                	je     75bd <ICH7_8259_Slave_Handler_End+0x6c4>
    755e:	48                   	dec    %eax
    755f:	61                   	popa   
    7560:	6e                   	outsb  %ds:(%esi),(%dx)
    7561:	64                   	fs
    7562:	6c                   	insb   (%dx),%es:(%edi)
    7563:	65                   	gs
    7564:	72 5f                	jb     75c5 <ICH7_8259_Slave_Handler_End+0x6cc>
    7566:	34 31                	xor    $0x31,%al
    7568:	3a 0a                	cmp    (%edx),%cl
    756a:	00 49 6e             	add    %cl,0x6e(%ecx)
    756d:	74 65                	je     75d4 <ICH7_8259_Slave_Handler_End+0x6db>
    756f:	72 72                	jb     75e3 <ICH7_8259_Slave_Handler_End+0x6ea>
    7571:	75 70                	jne    75e3 <ICH7_8259_Slave_Handler_End+0x6ea>
    7573:	74 5f                	je     75d4 <ICH7_8259_Slave_Handler_End+0x6db>
    7575:	48                   	dec    %eax
    7576:	61                   	popa   
    7577:	6e                   	outsb  %ds:(%esi),(%dx)
    7578:	64                   	fs
    7579:	6c                   	insb   (%dx),%es:(%edi)
    757a:	65                   	gs
    757b:	72 5f                	jb     75dc <ICH7_8259_Slave_Handler_End+0x6e3>
    757d:	34 32                	xor    $0x32,%al
    757f:	3a 0a                	cmp    (%edx),%cl
    7581:	00 49 6e             	add    %cl,0x6e(%ecx)
    7584:	74 65                	je     75eb <ICH7_8259_Slave_Handler_End+0x6f2>
    7586:	72 72                	jb     75fa <ICH7_8259_Slave_Handler_End+0x701>
    7588:	75 70                	jne    75fa <ICH7_8259_Slave_Handler_End+0x701>
    758a:	74 5f                	je     75eb <ICH7_8259_Slave_Handler_End+0x6f2>
    758c:	48                   	dec    %eax
    758d:	61                   	popa   
    758e:	6e                   	outsb  %ds:(%esi),(%dx)
    758f:	64                   	fs
    7590:	6c                   	insb   (%dx),%es:(%edi)
    7591:	65                   	gs
    7592:	72 5f                	jb     75f3 <ICH7_8259_Slave_Handler_End+0x6fa>
    7594:	34 33                	xor    $0x33,%al
    7596:	3a 0a                	cmp    (%edx),%cl
    7598:	00 49 6e             	add    %cl,0x6e(%ecx)
    759b:	74 65                	je     7602 <ICH7_8259_Slave_Handler_End+0x709>
    759d:	72 72                	jb     7611 <ICH7_8259_Slave_Handler_End+0x718>
    759f:	75 70                	jne    7611 <ICH7_8259_Slave_Handler_End+0x718>
    75a1:	74 5f                	je     7602 <ICH7_8259_Slave_Handler_End+0x709>
    75a3:	48                   	dec    %eax
    75a4:	61                   	popa   
    75a5:	6e                   	outsb  %ds:(%esi),(%dx)
    75a6:	64                   	fs
    75a7:	6c                   	insb   (%dx),%es:(%edi)
    75a8:	65                   	gs
    75a9:	72 5f                	jb     760a <ICH7_8259_Slave_Handler_End+0x711>
    75ab:	34 34                	xor    $0x34,%al
    75ad:	3a 0a                	cmp    (%edx),%cl
    75af:	00 49 6e             	add    %cl,0x6e(%ecx)
    75b2:	74 65                	je     7619 <ICH7_8259_Slave_Handler_End+0x720>
    75b4:	72 72                	jb     7628 <ICH7_8259_Slave_Handler_End+0x72f>
    75b6:	75 70                	jne    7628 <ICH7_8259_Slave_Handler_End+0x72f>
    75b8:	74 5f                	je     7619 <ICH7_8259_Slave_Handler_End+0x720>
    75ba:	48                   	dec    %eax
    75bb:	61                   	popa   
    75bc:	6e                   	outsb  %ds:(%esi),(%dx)
    75bd:	64                   	fs
    75be:	6c                   	insb   (%dx),%es:(%edi)
    75bf:	65                   	gs
    75c0:	72 5f                	jb     7621 <ICH7_8259_Slave_Handler_End+0x728>
    75c2:	34 35                	xor    $0x35,%al
    75c4:	3a 0a                	cmp    (%edx),%cl
    75c6:	00 49 6e             	add    %cl,0x6e(%ecx)
    75c9:	74 65                	je     7630 <ICH7_8259_Slave_Handler_End+0x737>
    75cb:	72 72                	jb     763f <ICH7_8259_Slave_Handler_End+0x746>
    75cd:	75 70                	jne    763f <ICH7_8259_Slave_Handler_End+0x746>
    75cf:	74 5f                	je     7630 <ICH7_8259_Slave_Handler_End+0x737>
    75d1:	48                   	dec    %eax
    75d2:	61                   	popa   
    75d3:	6e                   	outsb  %ds:(%esi),(%dx)
    75d4:	64                   	fs
    75d5:	6c                   	insb   (%dx),%es:(%edi)
    75d6:	65                   	gs
    75d7:	72 5f                	jb     7638 <ICH7_8259_Slave_Handler_End+0x73f>
    75d9:	34 36                	xor    $0x36,%al
    75db:	3a 0a                	cmp    (%edx),%cl
    75dd:	00 49 6e             	add    %cl,0x6e(%ecx)
    75e0:	74 65                	je     7647 <ICH7_8259_Slave_Handler_End+0x74e>
    75e2:	72 72                	jb     7656 <ICH7_8259_Slave_Handler_End+0x75d>
    75e4:	75 70                	jne    7656 <ICH7_8259_Slave_Handler_End+0x75d>
    75e6:	74 5f                	je     7647 <ICH7_8259_Slave_Handler_End+0x74e>
    75e8:	48                   	dec    %eax
    75e9:	61                   	popa   
    75ea:	6e                   	outsb  %ds:(%esi),(%dx)
    75eb:	64                   	fs
    75ec:	6c                   	insb   (%dx),%es:(%edi)
    75ed:	65                   	gs
    75ee:	72 5f                	jb     764f <ICH7_8259_Slave_Handler_End+0x756>
    75f0:	34 37                	xor    $0x37,%al
    75f2:	3a 0a                	cmp    (%edx),%cl
    75f4:	00 49 6e             	add    %cl,0x6e(%ecx)
    75f7:	74 65                	je     765e <ICH7_8259_Slave_Handler_End+0x765>
    75f9:	72 72                	jb     766d <ICH7_8259_Slave_Handler_End+0x774>
    75fb:	75 70                	jne    766d <ICH7_8259_Slave_Handler_End+0x774>
    75fd:	74 5f                	je     765e <ICH7_8259_Slave_Handler_End+0x765>
    75ff:	48                   	dec    %eax
    7600:	61                   	popa   
    7601:	6e                   	outsb  %ds:(%esi),(%dx)
    7602:	64                   	fs
    7603:	6c                   	insb   (%dx),%es:(%edi)
    7604:	65                   	gs
    7605:	72 5f                	jb     7666 <ICH7_8259_Slave_Handler_End+0x76d>
    7607:	34 38                	xor    $0x38,%al
    7609:	3a 0a                	cmp    (%edx),%cl
    760b:	00 49 6e             	add    %cl,0x6e(%ecx)
    760e:	74 65                	je     7675 <ICH7_8259_Slave_Handler_End+0x77c>
    7610:	72 72                	jb     7684 <ICH7_8259_Slave_Handler_End+0x78b>
    7612:	75 70                	jne    7684 <ICH7_8259_Slave_Handler_End+0x78b>
    7614:	74 5f                	je     7675 <ICH7_8259_Slave_Handler_End+0x77c>
    7616:	48                   	dec    %eax
    7617:	61                   	popa   
    7618:	6e                   	outsb  %ds:(%esi),(%dx)
    7619:	64                   	fs
    761a:	6c                   	insb   (%dx),%es:(%edi)
    761b:	65                   	gs
    761c:	72 5f                	jb     767d <ICH7_8259_Slave_Handler_End+0x784>
    761e:	34 39                	xor    $0x39,%al
    7620:	3a 0a                	cmp    (%edx),%cl
    7622:	00 49 6e             	add    %cl,0x6e(%ecx)
    7625:	74 65                	je     768c <ICH7_8259_Slave_Handler_End+0x793>
    7627:	72 72                	jb     769b <ICH7_8259_Slave_Handler_End+0x7a2>
    7629:	75 70                	jne    769b <ICH7_8259_Slave_Handler_End+0x7a2>
    762b:	74 5f                	je     768c <ICH7_8259_Slave_Handler_End+0x793>
    762d:	48                   	dec    %eax
    762e:	61                   	popa   
    762f:	6e                   	outsb  %ds:(%esi),(%dx)
    7630:	64                   	fs
    7631:	6c                   	insb   (%dx),%es:(%edi)
    7632:	65                   	gs
    7633:	72 5f                	jb     7694 <ICH7_8259_Slave_Handler_End+0x79b>
    7635:	35 30 3a 0a 00       	xor    $0xa3a30,%eax
    763a:	49                   	dec    %ecx
    763b:	6e                   	outsb  %ds:(%esi),(%dx)
    763c:	74 65                	je     76a3 <ICH7_8259_Slave_Handler_End+0x7aa>
    763e:	72 72                	jb     76b2 <ICH7_8259_Slave_Handler_End+0x7b9>
    7640:	75 70                	jne    76b2 <ICH7_8259_Slave_Handler_End+0x7b9>
    7642:	74 5f                	je     76a3 <ICH7_8259_Slave_Handler_End+0x7aa>
    7644:	48                   	dec    %eax
    7645:	61                   	popa   
    7646:	6e                   	outsb  %ds:(%esi),(%dx)
    7647:	64                   	fs
    7648:	6c                   	insb   (%dx),%es:(%edi)
    7649:	65                   	gs
    764a:	72 5f                	jb     76ab <ICH7_8259_Slave_Handler_End+0x7b2>
    764c:	35 31 3a 0a 00       	xor    $0xa3a31,%eax
    7651:	49                   	dec    %ecx
    7652:	6e                   	outsb  %ds:(%esi),(%dx)
    7653:	74 65                	je     76ba <ICH7_8259_Slave_Handler_End+0x7c1>
    7655:	72 72                	jb     76c9 <ICH7_8259_Slave_Handler_End+0x7d0>
    7657:	75 70                	jne    76c9 <ICH7_8259_Slave_Handler_End+0x7d0>
    7659:	74 5f                	je     76ba <ICH7_8259_Slave_Handler_End+0x7c1>
    765b:	48                   	dec    %eax
    765c:	61                   	popa   
    765d:	6e                   	outsb  %ds:(%esi),(%dx)
    765e:	64                   	fs
    765f:	6c                   	insb   (%dx),%es:(%edi)
    7660:	65                   	gs
    7661:	72 5f                	jb     76c2 <ICH7_8259_Slave_Handler_End+0x7c9>
    7663:	35 32 3a 0a 00       	xor    $0xa3a32,%eax
    7668:	49                   	dec    %ecx
    7669:	6e                   	outsb  %ds:(%esi),(%dx)
    766a:	74 65                	je     76d1 <ICH7_8259_Slave_Handler_End+0x7d8>
    766c:	72 72                	jb     76e0 <ICH7_8259_Slave_Handler_End+0x7e7>
    766e:	75 70                	jne    76e0 <ICH7_8259_Slave_Handler_End+0x7e7>
    7670:	74 5f                	je     76d1 <ICH7_8259_Slave_Handler_End+0x7d8>
    7672:	48                   	dec    %eax
    7673:	61                   	popa   
    7674:	6e                   	outsb  %ds:(%esi),(%dx)
    7675:	64                   	fs
    7676:	6c                   	insb   (%dx),%es:(%edi)
    7677:	65                   	gs
    7678:	72 5f                	jb     76d9 <ICH7_8259_Slave_Handler_End+0x7e0>
    767a:	35 33 3a 0a 00       	xor    $0xa3a33,%eax
    767f:	49                   	dec    %ecx
    7680:	6e                   	outsb  %ds:(%esi),(%dx)
    7681:	74 65                	je     76e8 <ICH7_8259_Slave_Handler_End+0x7ef>
    7683:	72 72                	jb     76f7 <ICH7_8259_Slave_Handler_End+0x7fe>
    7685:	75 70                	jne    76f7 <ICH7_8259_Slave_Handler_End+0x7fe>
    7687:	74 5f                	je     76e8 <ICH7_8259_Slave_Handler_End+0x7ef>
    7689:	48                   	dec    %eax
    768a:	61                   	popa   
    768b:	6e                   	outsb  %ds:(%esi),(%dx)
    768c:	64                   	fs
    768d:	6c                   	insb   (%dx),%es:(%edi)
    768e:	65                   	gs
    768f:	72 5f                	jb     76f0 <ICH7_8259_Slave_Handler_End+0x7f7>
    7691:	35 34 3a 0a 00       	xor    $0xa3a34,%eax
    7696:	49                   	dec    %ecx
    7697:	6e                   	outsb  %ds:(%esi),(%dx)
    7698:	74 65                	je     76ff <ICH7_8259_Slave_Handler_End+0x806>
    769a:	72 72                	jb     770e <ICH7_8259_Slave_Handler_End+0x815>
    769c:	75 70                	jne    770e <ICH7_8259_Slave_Handler_End+0x815>
    769e:	74 5f                	je     76ff <ICH7_8259_Slave_Handler_End+0x806>
    76a0:	48                   	dec    %eax
    76a1:	61                   	popa   
    76a2:	6e                   	outsb  %ds:(%esi),(%dx)
    76a3:	64                   	fs
    76a4:	6c                   	insb   (%dx),%es:(%edi)
    76a5:	65                   	gs
    76a6:	72 5f                	jb     7707 <ICH7_8259_Slave_Handler_End+0x80e>
    76a8:	35 35 3a 0a 00       	xor    $0xa3a35,%eax
    76ad:	49                   	dec    %ecx
    76ae:	6e                   	outsb  %ds:(%esi),(%dx)
    76af:	74 65                	je     7716 <ICH7_8259_Slave_Handler_End+0x81d>
    76b1:	72 72                	jb     7725 <ICH7_8259_Slave_Handler_End+0x82c>
    76b3:	75 70                	jne    7725 <ICH7_8259_Slave_Handler_End+0x82c>
    76b5:	74 5f                	je     7716 <ICH7_8259_Slave_Handler_End+0x81d>
    76b7:	48                   	dec    %eax
    76b8:	61                   	popa   
    76b9:	6e                   	outsb  %ds:(%esi),(%dx)
    76ba:	64                   	fs
    76bb:	6c                   	insb   (%dx),%es:(%edi)
    76bc:	65                   	gs
    76bd:	72 5f                	jb     771e <ICH7_8259_Slave_Handler_End+0x825>
    76bf:	35 36 3a 0a 00       	xor    $0xa3a36,%eax
    76c4:	49                   	dec    %ecx
    76c5:	6e                   	outsb  %ds:(%esi),(%dx)
    76c6:	74 65                	je     772d <ICH7_8259_Slave_Handler_End+0x834>
    76c8:	72 72                	jb     773c <ICH7_8259_Slave_Handler_End+0x843>
    76ca:	75 70                	jne    773c <ICH7_8259_Slave_Handler_End+0x843>
    76cc:	74 5f                	je     772d <ICH7_8259_Slave_Handler_End+0x834>
    76ce:	48                   	dec    %eax
    76cf:	61                   	popa   
    76d0:	6e                   	outsb  %ds:(%esi),(%dx)
    76d1:	64                   	fs
    76d2:	6c                   	insb   (%dx),%es:(%edi)
    76d3:	65                   	gs
    76d4:	72 5f                	jb     7735 <ICH7_8259_Slave_Handler_End+0x83c>
    76d6:	35 37 3a 0a 00       	xor    $0xa3a37,%eax
    76db:	49                   	dec    %ecx
    76dc:	6e                   	outsb  %ds:(%esi),(%dx)
    76dd:	74 65                	je     7744 <ICH7_8259_Slave_Handler_End+0x84b>
    76df:	72 72                	jb     7753 <ICH7_8259_Slave_Handler_End+0x85a>
    76e1:	75 70                	jne    7753 <ICH7_8259_Slave_Handler_End+0x85a>
    76e3:	74 5f                	je     7744 <ICH7_8259_Slave_Handler_End+0x84b>
    76e5:	48                   	dec    %eax
    76e6:	61                   	popa   
    76e7:	6e                   	outsb  %ds:(%esi),(%dx)
    76e8:	64                   	fs
    76e9:	6c                   	insb   (%dx),%es:(%edi)
    76ea:	65                   	gs
    76eb:	72 5f                	jb     774c <ICH7_8259_Slave_Handler_End+0x853>
    76ed:	35 38 3a 0a 00       	xor    $0xa3a38,%eax
    76f2:	49                   	dec    %ecx
    76f3:	6e                   	outsb  %ds:(%esi),(%dx)
    76f4:	74 65                	je     775b <ICH7_8259_Slave_Handler_End+0x862>
    76f6:	72 72                	jb     776a <ICH7_8259_Slave_Handler_End+0x871>
    76f8:	75 70                	jne    776a <ICH7_8259_Slave_Handler_End+0x871>
    76fa:	74 5f                	je     775b <ICH7_8259_Slave_Handler_End+0x862>
    76fc:	48                   	dec    %eax
    76fd:	61                   	popa   
    76fe:	6e                   	outsb  %ds:(%esi),(%dx)
    76ff:	64                   	fs
    7700:	6c                   	insb   (%dx),%es:(%edi)
    7701:	65                   	gs
    7702:	72 5f                	jb     7763 <ICH7_8259_Slave_Handler_End+0x86a>
    7704:	35 39 3a 0a 00       	xor    $0xa3a39,%eax
    7709:	49                   	dec    %ecx
    770a:	6e                   	outsb  %ds:(%esi),(%dx)
    770b:	74 65                	je     7772 <ICH7_8259_Slave_Handler_End+0x879>
    770d:	72 72                	jb     7781 <ICH7_8259_Slave_Handler_End+0x888>
    770f:	75 70                	jne    7781 <ICH7_8259_Slave_Handler_End+0x888>
    7711:	74 5f                	je     7772 <ICH7_8259_Slave_Handler_End+0x879>
    7713:	48                   	dec    %eax
    7714:	61                   	popa   
    7715:	6e                   	outsb  %ds:(%esi),(%dx)
    7716:	64                   	fs
    7717:	6c                   	insb   (%dx),%es:(%edi)
    7718:	65                   	gs
    7719:	72 5f                	jb     777a <ICH7_8259_Slave_Handler_End+0x881>
    771b:	36 30 3a             	xor    %bh,%ss:(%edx)
    771e:	0a 00                	or     (%eax),%al
    7720:	49                   	dec    %ecx
    7721:	6e                   	outsb  %ds:(%esi),(%dx)
    7722:	74 65                	je     7789 <ICH7_8259_Slave_Handler_End+0x890>
    7724:	72 72                	jb     7798 <ICH7_8259_Slave_Handler_End+0x89f>
    7726:	75 70                	jne    7798 <ICH7_8259_Slave_Handler_End+0x89f>
    7728:	74 5f                	je     7789 <ICH7_8259_Slave_Handler_End+0x890>
    772a:	48                   	dec    %eax
    772b:	61                   	popa   
    772c:	6e                   	outsb  %ds:(%esi),(%dx)
    772d:	64                   	fs
    772e:	6c                   	insb   (%dx),%es:(%edi)
    772f:	65                   	gs
    7730:	72 5f                	jb     7791 <ICH7_8259_Slave_Handler_End+0x898>
    7732:	36 31 3a             	xor    %edi,%ss:(%edx)
    7735:	0a 00                	or     (%eax),%al
    7737:	49                   	dec    %ecx
    7738:	6e                   	outsb  %ds:(%esi),(%dx)
    7739:	74 65                	je     77a0 <ICH7_8259_Slave_Handler_End+0x8a7>
    773b:	72 72                	jb     77af <ICH7_8259_Slave_Handler_End+0x8b6>
    773d:	75 70                	jne    77af <ICH7_8259_Slave_Handler_End+0x8b6>
    773f:	74 5f                	je     77a0 <ICH7_8259_Slave_Handler_End+0x8a7>
    7741:	48                   	dec    %eax
    7742:	61                   	popa   
    7743:	6e                   	outsb  %ds:(%esi),(%dx)
    7744:	64                   	fs
    7745:	6c                   	insb   (%dx),%es:(%edi)
    7746:	65                   	gs
    7747:	72 5f                	jb     77a8 <ICH7_8259_Slave_Handler_End+0x8af>
    7749:	36 32 3a             	xor    %ss:(%edx),%bh
    774c:	0a 00                	or     (%eax),%al
    774e:	49                   	dec    %ecx
    774f:	6e                   	outsb  %ds:(%esi),(%dx)
    7750:	74 65                	je     77b7 <ICH7_8259_Slave_Handler_End+0x8be>
    7752:	72 72                	jb     77c6 <ICH7_8259_Slave_Handler_End+0x8cd>
    7754:	75 70                	jne    77c6 <ICH7_8259_Slave_Handler_End+0x8cd>
    7756:	74 5f                	je     77b7 <ICH7_8259_Slave_Handler_End+0x8be>
    7758:	48                   	dec    %eax
    7759:	61                   	popa   
    775a:	6e                   	outsb  %ds:(%esi),(%dx)
    775b:	64                   	fs
    775c:	6c                   	insb   (%dx),%es:(%edi)
    775d:	65                   	gs
    775e:	72 5f                	jb     77bf <ICH7_8259_Slave_Handler_End+0x8c6>
    7760:	36 33 3a             	xor    %ss:(%edx),%edi
    7763:	0a 00                	or     (%eax),%al
    7765:	49                   	dec    %ecx
    7766:	6e                   	outsb  %ds:(%esi),(%dx)
    7767:	74 65                	je     77ce <ICH7_8259_Slave_Handler_End+0x8d5>
    7769:	72 72                	jb     77dd <ICH7_8259_Slave_Handler_End+0x8e4>
    776b:	75 70                	jne    77dd <ICH7_8259_Slave_Handler_End+0x8e4>
    776d:	74 5f                	je     77ce <ICH7_8259_Slave_Handler_End+0x8d5>
    776f:	48                   	dec    %eax
    7770:	61                   	popa   
    7771:	6e                   	outsb  %ds:(%esi),(%dx)
    7772:	64                   	fs
    7773:	6c                   	insb   (%dx),%es:(%edi)
    7774:	65                   	gs
    7775:	72 5f                	jb     77d6 <ICH7_8259_Slave_Handler_End+0x8dd>
    7777:	36                   	ss
    7778:	34 3a                	xor    $0x3a,%al
    777a:	0a 00                	or     (%eax),%al
    777c:	49                   	dec    %ecx
    777d:	6e                   	outsb  %ds:(%esi),(%dx)
    777e:	74 65                	je     77e5 <ICH7_8259_Slave_Handler_End+0x8ec>
    7780:	72 72                	jb     77f4 <ICH7_8259_Slave_Handler_End+0x8fb>
    7782:	75 70                	jne    77f4 <ICH7_8259_Slave_Handler_End+0x8fb>
    7784:	74 5f                	je     77e5 <ICH7_8259_Slave_Handler_End+0x8ec>
    7786:	48                   	dec    %eax
    7787:	61                   	popa   
    7788:	6e                   	outsb  %ds:(%esi),(%dx)
    7789:	64                   	fs
    778a:	6c                   	insb   (%dx),%es:(%edi)
    778b:	65                   	gs
    778c:	72 5f                	jb     77ed <ICH7_8259_Slave_Handler_End+0x8f4>
    778e:	36                   	ss
    778f:	35 3a 0a 00 49       	xor    $0x49000a3a,%eax
    7794:	6e                   	outsb  %ds:(%esi),(%dx)
    7795:	74 65                	je     77fc <ICH7_8259_Slave_Handler_End+0x903>
    7797:	72 72                	jb     780b <ICH7_8259_Slave_Handler_End+0x912>
    7799:	75 70                	jne    780b <ICH7_8259_Slave_Handler_End+0x912>
    779b:	74 5f                	je     77fc <ICH7_8259_Slave_Handler_End+0x903>
    779d:	48                   	dec    %eax
    779e:	61                   	popa   
    779f:	6e                   	outsb  %ds:(%esi),(%dx)
    77a0:	64                   	fs
    77a1:	6c                   	insb   (%dx),%es:(%edi)
    77a2:	65                   	gs
    77a3:	72 5f                	jb     7804 <ICH7_8259_Slave_Handler_End+0x90b>
    77a5:	36 36 3a 0a          	ss cmp %ss:(%edx),%cl
    77a9:	00 49 6e             	add    %cl,0x6e(%ecx)
    77ac:	74 65                	je     7813 <ICH7_8259_Slave_Handler_End+0x91a>
    77ae:	72 72                	jb     7822 <ICH7_8259_Slave_Handler_End+0x929>
    77b0:	75 70                	jne    7822 <ICH7_8259_Slave_Handler_End+0x929>
    77b2:	74 5f                	je     7813 <ICH7_8259_Slave_Handler_End+0x91a>
    77b4:	48                   	dec    %eax
    77b5:	61                   	popa   
    77b6:	6e                   	outsb  %ds:(%esi),(%dx)
    77b7:	64                   	fs
    77b8:	6c                   	insb   (%dx),%es:(%edi)
    77b9:	65                   	gs
    77ba:	72 5f                	jb     781b <ICH7_8259_Slave_Handler_End+0x922>
    77bc:	36                   	ss
    77bd:	37                   	aaa    
    77be:	3a 0a                	cmp    (%edx),%cl
    77c0:	00 49 6e             	add    %cl,0x6e(%ecx)
    77c3:	74 65                	je     782a <ICH7_8259_Slave_Handler_End+0x931>
    77c5:	72 72                	jb     7839 <ICH7_8259_Slave_Handler_End+0x940>
    77c7:	75 70                	jne    7839 <ICH7_8259_Slave_Handler_End+0x940>
    77c9:	74 5f                	je     782a <ICH7_8259_Slave_Handler_End+0x931>
    77cb:	48                   	dec    %eax
    77cc:	61                   	popa   
    77cd:	6e                   	outsb  %ds:(%esi),(%dx)
    77ce:	64                   	fs
    77cf:	6c                   	insb   (%dx),%es:(%edi)
    77d0:	65                   	gs
    77d1:	72 5f                	jb     7832 <ICH7_8259_Slave_Handler_End+0x939>
    77d3:	36 38 3a             	cmp    %bh,%ss:(%edx)
    77d6:	0a 00                	or     (%eax),%al
    77d8:	49                   	dec    %ecx
    77d9:	6e                   	outsb  %ds:(%esi),(%dx)
    77da:	74 65                	je     7841 <ICH7_8259_Slave_Handler_End+0x948>
    77dc:	72 72                	jb     7850 <ICH7_8259_Slave_Handler_End+0x957>
    77de:	75 70                	jne    7850 <ICH7_8259_Slave_Handler_End+0x957>
    77e0:	74 5f                	je     7841 <ICH7_8259_Slave_Handler_End+0x948>
    77e2:	48                   	dec    %eax
    77e3:	61                   	popa   
    77e4:	6e                   	outsb  %ds:(%esi),(%dx)
    77e5:	64                   	fs
    77e6:	6c                   	insb   (%dx),%es:(%edi)
    77e7:	65                   	gs
    77e8:	72 5f                	jb     7849 <ICH7_8259_Slave_Handler_End+0x950>
    77ea:	36 39 3a             	cmp    %edi,%ss:(%edx)
    77ed:	0a 00                	or     (%eax),%al
    77ef:	49                   	dec    %ecx
    77f0:	6e                   	outsb  %ds:(%esi),(%dx)
    77f1:	74 65                	je     7858 <ICH7_8259_Slave_Handler_End+0x95f>
    77f3:	72 72                	jb     7867 <ICH7_8259_Slave_Handler_End+0x96e>
    77f5:	75 70                	jne    7867 <ICH7_8259_Slave_Handler_End+0x96e>
    77f7:	74 5f                	je     7858 <ICH7_8259_Slave_Handler_End+0x95f>
    77f9:	48                   	dec    %eax
    77fa:	61                   	popa   
    77fb:	6e                   	outsb  %ds:(%esi),(%dx)
    77fc:	64                   	fs
    77fd:	6c                   	insb   (%dx),%es:(%edi)
    77fe:	65                   	gs
    77ff:	72 5f                	jb     7860 <ICH7_8259_Slave_Handler_End+0x967>
    7801:	37                   	aaa    
    7802:	30 3a                	xor    %bh,(%edx)
    7804:	0a 00                	or     (%eax),%al
    7806:	49                   	dec    %ecx
    7807:	6e                   	outsb  %ds:(%esi),(%dx)
    7808:	74 65                	je     786f <ICH7_8259_Slave_Handler_End+0x976>
    780a:	72 72                	jb     787e <ICH7_8259_Slave_Handler_End+0x985>
    780c:	75 70                	jne    787e <ICH7_8259_Slave_Handler_End+0x985>
    780e:	74 5f                	je     786f <ICH7_8259_Slave_Handler_End+0x976>
    7810:	48                   	dec    %eax
    7811:	61                   	popa   
    7812:	6e                   	outsb  %ds:(%esi),(%dx)
    7813:	64                   	fs
    7814:	6c                   	insb   (%dx),%es:(%edi)
    7815:	65                   	gs
    7816:	72 5f                	jb     7877 <ICH7_8259_Slave_Handler_End+0x97e>
    7818:	37                   	aaa    
    7819:	31 3a                	xor    %edi,(%edx)
    781b:	0a 00                	or     (%eax),%al
    781d:	49                   	dec    %ecx
    781e:	6e                   	outsb  %ds:(%esi),(%dx)
    781f:	74 65                	je     7886 <ICH7_8259_Slave_Handler_End+0x98d>
    7821:	72 72                	jb     7895 <ICH7_8259_Slave_Handler_End+0x99c>
    7823:	75 70                	jne    7895 <ICH7_8259_Slave_Handler_End+0x99c>
    7825:	74 5f                	je     7886 <ICH7_8259_Slave_Handler_End+0x98d>
    7827:	48                   	dec    %eax
    7828:	61                   	popa   
    7829:	6e                   	outsb  %ds:(%esi),(%dx)
    782a:	64                   	fs
    782b:	6c                   	insb   (%dx),%es:(%edi)
    782c:	65                   	gs
    782d:	72 5f                	jb     788e <ICH7_8259_Slave_Handler_End+0x995>
    782f:	37                   	aaa    
    7830:	32 3a                	xor    (%edx),%bh
    7832:	0a 00                	or     (%eax),%al
    7834:	49                   	dec    %ecx
    7835:	6e                   	outsb  %ds:(%esi),(%dx)
    7836:	74 65                	je     789d <ICH7_8259_Slave_Handler_End+0x9a4>
    7838:	72 72                	jb     78ac <ICH7_8259_Slave_Handler_End+0x9b3>
    783a:	75 70                	jne    78ac <ICH7_8259_Slave_Handler_End+0x9b3>
    783c:	74 5f                	je     789d <ICH7_8259_Slave_Handler_End+0x9a4>
    783e:	48                   	dec    %eax
    783f:	61                   	popa   
    7840:	6e                   	outsb  %ds:(%esi),(%dx)
    7841:	64                   	fs
    7842:	6c                   	insb   (%dx),%es:(%edi)
    7843:	65                   	gs
    7844:	72 5f                	jb     78a5 <ICH7_8259_Slave_Handler_End+0x9ac>
    7846:	37                   	aaa    
    7847:	33 3a                	xor    (%edx),%edi
    7849:	0a 00                	or     (%eax),%al
    784b:	49                   	dec    %ecx
    784c:	6e                   	outsb  %ds:(%esi),(%dx)
    784d:	74 65                	je     78b4 <ICH7_8259_Slave_Handler_End+0x9bb>
    784f:	72 72                	jb     78c3 <ICH7_8259_Slave_Handler_End+0x9ca>
    7851:	75 70                	jne    78c3 <ICH7_8259_Slave_Handler_End+0x9ca>
    7853:	74 5f                	je     78b4 <ICH7_8259_Slave_Handler_End+0x9bb>
    7855:	48                   	dec    %eax
    7856:	61                   	popa   
    7857:	6e                   	outsb  %ds:(%esi),(%dx)
    7858:	64                   	fs
    7859:	6c                   	insb   (%dx),%es:(%edi)
    785a:	65                   	gs
    785b:	72 5f                	jb     78bc <ICH7_8259_Slave_Handler_End+0x9c3>
    785d:	37                   	aaa    
    785e:	34 3a                	xor    $0x3a,%al
    7860:	0a 00                	or     (%eax),%al
    7862:	49                   	dec    %ecx
    7863:	6e                   	outsb  %ds:(%esi),(%dx)
    7864:	74 65                	je     78cb <ICH7_8259_Slave_Handler_End+0x9d2>
    7866:	72 72                	jb     78da <ICH7_8259_Slave_Handler_End+0x9e1>
    7868:	75 70                	jne    78da <ICH7_8259_Slave_Handler_End+0x9e1>
    786a:	74 5f                	je     78cb <ICH7_8259_Slave_Handler_End+0x9d2>
    786c:	48                   	dec    %eax
    786d:	61                   	popa   
    786e:	6e                   	outsb  %ds:(%esi),(%dx)
    786f:	64                   	fs
    7870:	6c                   	insb   (%dx),%es:(%edi)
    7871:	65                   	gs
    7872:	72 5f                	jb     78d3 <ICH7_8259_Slave_Handler_End+0x9da>
    7874:	37                   	aaa    
    7875:	35 3a 0a 00 49       	xor    $0x49000a3a,%eax
    787a:	6e                   	outsb  %ds:(%esi),(%dx)
    787b:	74 65                	je     78e2 <ICH7_8259_Slave_Handler_End+0x9e9>
    787d:	72 72                	jb     78f1 <ICH7_8259_Slave_Handler_End+0x9f8>
    787f:	75 70                	jne    78f1 <ICH7_8259_Slave_Handler_End+0x9f8>
    7881:	74 5f                	je     78e2 <ICH7_8259_Slave_Handler_End+0x9e9>
    7883:	48                   	dec    %eax
    7884:	61                   	popa   
    7885:	6e                   	outsb  %ds:(%esi),(%dx)
    7886:	64                   	fs
    7887:	6c                   	insb   (%dx),%es:(%edi)
    7888:	65                   	gs
    7889:	72 5f                	jb     78ea <ICH7_8259_Slave_Handler_End+0x9f1>
    788b:	37                   	aaa    
    788c:	36 3a 0a             	cmp    %ss:(%edx),%cl
    788f:	00 49 6e             	add    %cl,0x6e(%ecx)
    7892:	74 65                	je     78f9 <ICH7_8259_Slave_Handler_End+0xa00>
    7894:	72 72                	jb     7908 <ICH7_8259_Slave_Handler_End+0xa0f>
    7896:	75 70                	jne    7908 <ICH7_8259_Slave_Handler_End+0xa0f>
    7898:	74 5f                	je     78f9 <ICH7_8259_Slave_Handler_End+0xa00>
    789a:	48                   	dec    %eax
    789b:	61                   	popa   
    789c:	6e                   	outsb  %ds:(%esi),(%dx)
    789d:	64                   	fs
    789e:	6c                   	insb   (%dx),%es:(%edi)
    789f:	65                   	gs
    78a0:	72 5f                	jb     7901 <ICH7_8259_Slave_Handler_End+0xa08>
    78a2:	37                   	aaa    
    78a3:	37                   	aaa    
    78a4:	3a 0a                	cmp    (%edx),%cl
    78a6:	00 49 6e             	add    %cl,0x6e(%ecx)
    78a9:	74 65                	je     7910 <ICH7_8259_Slave_Handler_End+0xa17>
    78ab:	72 72                	jb     791f <ICH7_8259_Slave_Handler_End+0xa26>
    78ad:	75 70                	jne    791f <ICH7_8259_Slave_Handler_End+0xa26>
    78af:	74 5f                	je     7910 <ICH7_8259_Slave_Handler_End+0xa17>
    78b1:	48                   	dec    %eax
    78b2:	61                   	popa   
    78b3:	6e                   	outsb  %ds:(%esi),(%dx)
    78b4:	64                   	fs
    78b5:	6c                   	insb   (%dx),%es:(%edi)
    78b6:	65                   	gs
    78b7:	72 5f                	jb     7918 <ICH7_8259_Slave_Handler_End+0xa1f>
    78b9:	37                   	aaa    
    78ba:	38 3a                	cmp    %bh,(%edx)
    78bc:	0a 00                	or     (%eax),%al
    78be:	49                   	dec    %ecx
    78bf:	6e                   	outsb  %ds:(%esi),(%dx)
    78c0:	74 65                	je     7927 <ICH7_8259_Slave_Handler_End+0xa2e>
    78c2:	72 72                	jb     7936 <ICH7_8259_Slave_Handler_End+0xa3d>
    78c4:	75 70                	jne    7936 <ICH7_8259_Slave_Handler_End+0xa3d>
    78c6:	74 5f                	je     7927 <ICH7_8259_Slave_Handler_End+0xa2e>
    78c8:	48                   	dec    %eax
    78c9:	61                   	popa   
    78ca:	6e                   	outsb  %ds:(%esi),(%dx)
    78cb:	64                   	fs
    78cc:	6c                   	insb   (%dx),%es:(%edi)
    78cd:	65                   	gs
    78ce:	72 5f                	jb     792f <ICH7_8259_Slave_Handler_End+0xa36>
    78d0:	37                   	aaa    
    78d1:	39 3a                	cmp    %edi,(%edx)
    78d3:	0a 00                	or     (%eax),%al
    78d5:	49                   	dec    %ecx
    78d6:	6e                   	outsb  %ds:(%esi),(%dx)
    78d7:	74 65                	je     793e <ICH7_8259_Slave_Handler_End+0xa45>
    78d9:	72 72                	jb     794d <ICH7_8259_Slave_Handler_End+0xa54>
    78db:	75 70                	jne    794d <ICH7_8259_Slave_Handler_End+0xa54>
    78dd:	74 5f                	je     793e <ICH7_8259_Slave_Handler_End+0xa45>
    78df:	48                   	dec    %eax
    78e0:	61                   	popa   
    78e1:	6e                   	outsb  %ds:(%esi),(%dx)
    78e2:	64                   	fs
    78e3:	6c                   	insb   (%dx),%es:(%edi)
    78e4:	65                   	gs
    78e5:	72 5f                	jb     7946 <ICH7_8259_Slave_Handler_End+0xa4d>
    78e7:	38 30                	cmp    %dh,(%eax)
    78e9:	3a 0a                	cmp    (%edx),%cl
    78eb:	00 49 6e             	add    %cl,0x6e(%ecx)
    78ee:	74 65                	je     7955 <ICH7_8259_Slave_Handler_End+0xa5c>
    78f0:	72 72                	jb     7964 <ICH7_8259_Slave_Handler_End+0xa6b>
    78f2:	75 70                	jne    7964 <ICH7_8259_Slave_Handler_End+0xa6b>
    78f4:	74 5f                	je     7955 <ICH7_8259_Slave_Handler_End+0xa5c>
    78f6:	48                   	dec    %eax
    78f7:	61                   	popa   
    78f8:	6e                   	outsb  %ds:(%esi),(%dx)
    78f9:	64                   	fs
    78fa:	6c                   	insb   (%dx),%es:(%edi)
    78fb:	65                   	gs
    78fc:	72 5f                	jb     795d <ICH7_8259_Slave_Handler_End+0xa64>
    78fe:	38 31                	cmp    %dh,(%ecx)
    7900:	3a 0a                	cmp    (%edx),%cl
    7902:	00 49 6e             	add    %cl,0x6e(%ecx)
    7905:	74 65                	je     796c <ICH7_8259_Slave_Handler_End+0xa73>
    7907:	72 72                	jb     797b <ICH7_8259_Slave_Handler_End+0xa82>
    7909:	75 70                	jne    797b <ICH7_8259_Slave_Handler_End+0xa82>
    790b:	74 5f                	je     796c <ICH7_8259_Slave_Handler_End+0xa73>
    790d:	48                   	dec    %eax
    790e:	61                   	popa   
    790f:	6e                   	outsb  %ds:(%esi),(%dx)
    7910:	64                   	fs
    7911:	6c                   	insb   (%dx),%es:(%edi)
    7912:	65                   	gs
    7913:	72 5f                	jb     7974 <ICH7_8259_Slave_Handler_End+0xa7b>
    7915:	38 32                	cmp    %dh,(%edx)
    7917:	3a 0a                	cmp    (%edx),%cl
    7919:	00 49 6e             	add    %cl,0x6e(%ecx)
    791c:	74 65                	je     7983 <ICH7_8259_Slave_Handler_End+0xa8a>
    791e:	72 72                	jb     7992 <ICH7_8259_Slave_Handler_End+0xa99>
    7920:	75 70                	jne    7992 <ICH7_8259_Slave_Handler_End+0xa99>
    7922:	74 5f                	je     7983 <ICH7_8259_Slave_Handler_End+0xa8a>
    7924:	48                   	dec    %eax
    7925:	61                   	popa   
    7926:	6e                   	outsb  %ds:(%esi),(%dx)
    7927:	64                   	fs
    7928:	6c                   	insb   (%dx),%es:(%edi)
    7929:	65                   	gs
    792a:	72 5f                	jb     798b <ICH7_8259_Slave_Handler_End+0xa92>
    792c:	38 33                	cmp    %dh,(%ebx)
    792e:	3a 0a                	cmp    (%edx),%cl
    7930:	00 49 6e             	add    %cl,0x6e(%ecx)
    7933:	74 65                	je     799a <ICH7_8259_Slave_Handler_End+0xaa1>
    7935:	72 72                	jb     79a9 <ICH7_8259_Slave_Handler_End+0xab0>
    7937:	75 70                	jne    79a9 <ICH7_8259_Slave_Handler_End+0xab0>
    7939:	74 5f                	je     799a <ICH7_8259_Slave_Handler_End+0xaa1>
    793b:	48                   	dec    %eax
    793c:	61                   	popa   
    793d:	6e                   	outsb  %ds:(%esi),(%dx)
    793e:	64                   	fs
    793f:	6c                   	insb   (%dx),%es:(%edi)
    7940:	65                   	gs
    7941:	72 5f                	jb     79a2 <ICH7_8259_Slave_Handler_End+0xaa9>
    7943:	38 34 3a             	cmp    %dh,(%edx,%edi,1)
    7946:	0a 00                	or     (%eax),%al
    7948:	49                   	dec    %ecx
    7949:	6e                   	outsb  %ds:(%esi),(%dx)
    794a:	74 65                	je     79b1 <ICH7_8259_Slave_Handler_End+0xab8>
    794c:	72 72                	jb     79c0 <ICH7_8259_Slave_Handler_End+0xac7>
    794e:	75 70                	jne    79c0 <ICH7_8259_Slave_Handler_End+0xac7>
    7950:	74 5f                	je     79b1 <ICH7_8259_Slave_Handler_End+0xab8>
    7952:	48                   	dec    %eax
    7953:	61                   	popa   
    7954:	6e                   	outsb  %ds:(%esi),(%dx)
    7955:	64                   	fs
    7956:	6c                   	insb   (%dx),%es:(%edi)
    7957:	65                   	gs
    7958:	72 5f                	jb     79b9 <ICH7_8259_Slave_Handler_End+0xac0>
    795a:	38 35 3a 0a 00 49    	cmp    %dh,0x49000a3a
    7960:	6e                   	outsb  %ds:(%esi),(%dx)
    7961:	74 65                	je     79c8 <ICH7_8259_Slave_Handler_End+0xacf>
    7963:	72 72                	jb     79d7 <ICH7_8259_Slave_Handler_End+0xade>
    7965:	75 70                	jne    79d7 <ICH7_8259_Slave_Handler_End+0xade>
    7967:	74 5f                	je     79c8 <ICH7_8259_Slave_Handler_End+0xacf>
    7969:	48                   	dec    %eax
    796a:	61                   	popa   
    796b:	6e                   	outsb  %ds:(%esi),(%dx)
    796c:	64                   	fs
    796d:	6c                   	insb   (%dx),%es:(%edi)
    796e:	65                   	gs
    796f:	72 5f                	jb     79d0 <ICH7_8259_Slave_Handler_End+0xad7>
    7971:	38 36                	cmp    %dh,(%esi)
    7973:	3a 0a                	cmp    (%edx),%cl
    7975:	00 49 6e             	add    %cl,0x6e(%ecx)
    7978:	74 65                	je     79df <ICH7_8259_Slave_Handler_End+0xae6>
    797a:	72 72                	jb     79ee <ICH7_8259_Slave_Handler_End+0xaf5>
    797c:	75 70                	jne    79ee <ICH7_8259_Slave_Handler_End+0xaf5>
    797e:	74 5f                	je     79df <ICH7_8259_Slave_Handler_End+0xae6>
    7980:	48                   	dec    %eax
    7981:	61                   	popa   
    7982:	6e                   	outsb  %ds:(%esi),(%dx)
    7983:	64                   	fs
    7984:	6c                   	insb   (%dx),%es:(%edi)
    7985:	65                   	gs
    7986:	72 5f                	jb     79e7 <ICH7_8259_Slave_Handler_End+0xaee>
    7988:	38 37                	cmp    %dh,(%edi)
    798a:	3a 0a                	cmp    (%edx),%cl
    798c:	00 49 6e             	add    %cl,0x6e(%ecx)
    798f:	74 65                	je     79f6 <ICH7_8259_Slave_Handler_End+0xafd>
    7991:	72 72                	jb     7a05 <ICH7_8259_Slave_Handler_End+0xb0c>
    7993:	75 70                	jne    7a05 <ICH7_8259_Slave_Handler_End+0xb0c>
    7995:	74 5f                	je     79f6 <ICH7_8259_Slave_Handler_End+0xafd>
    7997:	48                   	dec    %eax
    7998:	61                   	popa   
    7999:	6e                   	outsb  %ds:(%esi),(%dx)
    799a:	64                   	fs
    799b:	6c                   	insb   (%dx),%es:(%edi)
    799c:	65                   	gs
    799d:	72 5f                	jb     79fe <ICH7_8259_Slave_Handler_End+0xb05>
    799f:	38 38                	cmp    %bh,(%eax)
    79a1:	3a 0a                	cmp    (%edx),%cl
    79a3:	00 49 6e             	add    %cl,0x6e(%ecx)
    79a6:	74 65                	je     7a0d <ICH7_8259_Slave_Handler_End+0xb14>
    79a8:	72 72                	jb     7a1c <ICH7_8259_Slave_Handler_End+0xb23>
    79aa:	75 70                	jne    7a1c <ICH7_8259_Slave_Handler_End+0xb23>
    79ac:	74 5f                	je     7a0d <ICH7_8259_Slave_Handler_End+0xb14>
    79ae:	48                   	dec    %eax
    79af:	61                   	popa   
    79b0:	6e                   	outsb  %ds:(%esi),(%dx)
    79b1:	64                   	fs
    79b2:	6c                   	insb   (%dx),%es:(%edi)
    79b3:	65                   	gs
    79b4:	72 5f                	jb     7a15 <ICH7_8259_Slave_Handler_End+0xb1c>
    79b6:	38 39                	cmp    %bh,(%ecx)
    79b8:	3a 0a                	cmp    (%edx),%cl
    79ba:	00 49 6e             	add    %cl,0x6e(%ecx)
    79bd:	74 65                	je     7a24 <ICH7_8259_Slave_Handler_End+0xb2b>
    79bf:	72 72                	jb     7a33 <ICH7_8259_Slave_Handler_End+0xb3a>
    79c1:	75 70                	jne    7a33 <ICH7_8259_Slave_Handler_End+0xb3a>
    79c3:	74 5f                	je     7a24 <ICH7_8259_Slave_Handler_End+0xb2b>
    79c5:	48                   	dec    %eax
    79c6:	61                   	popa   
    79c7:	6e                   	outsb  %ds:(%esi),(%dx)
    79c8:	64                   	fs
    79c9:	6c                   	insb   (%dx),%es:(%edi)
    79ca:	65                   	gs
    79cb:	72 5f                	jb     7a2c <ICH7_8259_Slave_Handler_End+0xb33>
    79cd:	39 30                	cmp    %esi,(%eax)
    79cf:	3a 0a                	cmp    (%edx),%cl
    79d1:	00 49 6e             	add    %cl,0x6e(%ecx)
    79d4:	74 65                	je     7a3b <ICH7_8259_Slave_Handler_End+0xb42>
    79d6:	72 72                	jb     7a4a <ICH7_8259_Slave_Handler_End+0xb51>
    79d8:	75 70                	jne    7a4a <ICH7_8259_Slave_Handler_End+0xb51>
    79da:	74 5f                	je     7a3b <ICH7_8259_Slave_Handler_End+0xb42>
    79dc:	48                   	dec    %eax
    79dd:	61                   	popa   
    79de:	6e                   	outsb  %ds:(%esi),(%dx)
    79df:	64                   	fs
    79e0:	6c                   	insb   (%dx),%es:(%edi)
    79e1:	65                   	gs
    79e2:	72 5f                	jb     7a43 <ICH7_8259_Slave_Handler_End+0xb4a>
    79e4:	39 31                	cmp    %esi,(%ecx)
    79e6:	3a 0a                	cmp    (%edx),%cl
    79e8:	00 49 6e             	add    %cl,0x6e(%ecx)
    79eb:	74 65                	je     7a52 <ICH7_8259_Slave_Handler_End+0xb59>
    79ed:	72 72                	jb     7a61 <ICH7_8259_Slave_Handler_End+0xb68>
    79ef:	75 70                	jne    7a61 <ICH7_8259_Slave_Handler_End+0xb68>
    79f1:	74 5f                	je     7a52 <ICH7_8259_Slave_Handler_End+0xb59>
    79f3:	48                   	dec    %eax
    79f4:	61                   	popa   
    79f5:	6e                   	outsb  %ds:(%esi),(%dx)
    79f6:	64                   	fs
    79f7:	6c                   	insb   (%dx),%es:(%edi)
    79f8:	65                   	gs
    79f9:	72 5f                	jb     7a5a <ICH7_8259_Slave_Handler_End+0xb61>
    79fb:	39 32                	cmp    %esi,(%edx)
    79fd:	3a 0a                	cmp    (%edx),%cl
    79ff:	00 49 6e             	add    %cl,0x6e(%ecx)
    7a02:	74 65                	je     7a69 <ICH7_8259_Slave_Handler_End+0xb70>
    7a04:	72 72                	jb     7a78 <ICH7_8259_Slave_Handler_End+0xb7f>
    7a06:	75 70                	jne    7a78 <ICH7_8259_Slave_Handler_End+0xb7f>
    7a08:	74 5f                	je     7a69 <ICH7_8259_Slave_Handler_End+0xb70>
    7a0a:	48                   	dec    %eax
    7a0b:	61                   	popa   
    7a0c:	6e                   	outsb  %ds:(%esi),(%dx)
    7a0d:	64                   	fs
    7a0e:	6c                   	insb   (%dx),%es:(%edi)
    7a0f:	65                   	gs
    7a10:	72 5f                	jb     7a71 <ICH7_8259_Slave_Handler_End+0xb78>
    7a12:	39 33                	cmp    %esi,(%ebx)
    7a14:	3a 0a                	cmp    (%edx),%cl
    7a16:	00 49 6e             	add    %cl,0x6e(%ecx)
    7a19:	74 65                	je     7a80 <ICH7_8259_Slave_Handler_End+0xb87>
    7a1b:	72 72                	jb     7a8f <ICH7_8259_Slave_Handler_End+0xb96>
    7a1d:	75 70                	jne    7a8f <ICH7_8259_Slave_Handler_End+0xb96>
    7a1f:	74 5f                	je     7a80 <ICH7_8259_Slave_Handler_End+0xb87>
    7a21:	48                   	dec    %eax
    7a22:	61                   	popa   
    7a23:	6e                   	outsb  %ds:(%esi),(%dx)
    7a24:	64                   	fs
    7a25:	6c                   	insb   (%dx),%es:(%edi)
    7a26:	65                   	gs
    7a27:	72 5f                	jb     7a88 <ICH7_8259_Slave_Handler_End+0xb8f>
    7a29:	39 34 3a             	cmp    %esi,(%edx,%edi,1)
    7a2c:	0a 00                	or     (%eax),%al
    7a2e:	49                   	dec    %ecx
    7a2f:	6e                   	outsb  %ds:(%esi),(%dx)
    7a30:	74 65                	je     7a97 <ICH7_8259_Slave_Handler_End+0xb9e>
    7a32:	72 72                	jb     7aa6 <ICH7_8259_Slave_Handler_End+0xbad>
    7a34:	75 70                	jne    7aa6 <ICH7_8259_Slave_Handler_End+0xbad>
    7a36:	74 5f                	je     7a97 <ICH7_8259_Slave_Handler_End+0xb9e>
    7a38:	48                   	dec    %eax
    7a39:	61                   	popa   
    7a3a:	6e                   	outsb  %ds:(%esi),(%dx)
    7a3b:	64                   	fs
    7a3c:	6c                   	insb   (%dx),%es:(%edi)
    7a3d:	65                   	gs
    7a3e:	72 5f                	jb     7a9f <ICH7_8259_Slave_Handler_End+0xba6>
    7a40:	39 35 3a 0a 00 49    	cmp    %esi,0x49000a3a
    7a46:	6e                   	outsb  %ds:(%esi),(%dx)
    7a47:	74 65                	je     7aae <ICH7_8259_Slave_Handler_End+0xbb5>
    7a49:	72 72                	jb     7abd <ICH7_8259_Slave_Handler_End+0xbc4>
    7a4b:	75 70                	jne    7abd <ICH7_8259_Slave_Handler_End+0xbc4>
    7a4d:	74 5f                	je     7aae <ICH7_8259_Slave_Handler_End+0xbb5>
    7a4f:	48                   	dec    %eax
    7a50:	61                   	popa   
    7a51:	6e                   	outsb  %ds:(%esi),(%dx)
    7a52:	64                   	fs
    7a53:	6c                   	insb   (%dx),%es:(%edi)
    7a54:	65                   	gs
    7a55:	72 5f                	jb     7ab6 <ICH7_8259_Slave_Handler_End+0xbbd>
    7a57:	39 36                	cmp    %esi,(%esi)
    7a59:	3a 0a                	cmp    (%edx),%cl
    7a5b:	00 49 6e             	add    %cl,0x6e(%ecx)
    7a5e:	74 65                	je     7ac5 <ICH7_8259_Slave_Handler_End+0xbcc>
    7a60:	72 72                	jb     7ad4 <ICH7_8259_Slave_Handler_End+0xbdb>
    7a62:	75 70                	jne    7ad4 <ICH7_8259_Slave_Handler_End+0xbdb>
    7a64:	74 5f                	je     7ac5 <ICH7_8259_Slave_Handler_End+0xbcc>
    7a66:	48                   	dec    %eax
    7a67:	61                   	popa   
    7a68:	6e                   	outsb  %ds:(%esi),(%dx)
    7a69:	64                   	fs
    7a6a:	6c                   	insb   (%dx),%es:(%edi)
    7a6b:	65                   	gs
    7a6c:	72 5f                	jb     7acd <ICH7_8259_Slave_Handler_End+0xbd4>
    7a6e:	39 37                	cmp    %esi,(%edi)
    7a70:	3a 0a                	cmp    (%edx),%cl
    7a72:	00 49 6e             	add    %cl,0x6e(%ecx)
    7a75:	74 65                	je     7adc <ICH7_8259_Slave_Handler_End+0xbe3>
    7a77:	72 72                	jb     7aeb <ICH7_8259_Slave_Handler_End+0xbf2>
    7a79:	75 70                	jne    7aeb <ICH7_8259_Slave_Handler_End+0xbf2>
    7a7b:	74 5f                	je     7adc <ICH7_8259_Slave_Handler_End+0xbe3>
    7a7d:	48                   	dec    %eax
    7a7e:	61                   	popa   
    7a7f:	6e                   	outsb  %ds:(%esi),(%dx)
    7a80:	64                   	fs
    7a81:	6c                   	insb   (%dx),%es:(%edi)
    7a82:	65                   	gs
    7a83:	72 5f                	jb     7ae4 <ICH7_8259_Slave_Handler_End+0xbeb>
    7a85:	39 38                	cmp    %edi,(%eax)
    7a87:	3a 0a                	cmp    (%edx),%cl
    7a89:	00 49 6e             	add    %cl,0x6e(%ecx)
    7a8c:	74 65                	je     7af3 <ICH7_8259_Slave_Handler_End+0xbfa>
    7a8e:	72 72                	jb     7b02 <ICH7_8259_Slave_Handler_End+0xc09>
    7a90:	75 70                	jne    7b02 <ICH7_8259_Slave_Handler_End+0xc09>
    7a92:	74 5f                	je     7af3 <ICH7_8259_Slave_Handler_End+0xbfa>
    7a94:	48                   	dec    %eax
    7a95:	61                   	popa   
    7a96:	6e                   	outsb  %ds:(%esi),(%dx)
    7a97:	64                   	fs
    7a98:	6c                   	insb   (%dx),%es:(%edi)
    7a99:	65                   	gs
    7a9a:	72 5f                	jb     7afb <ICH7_8259_Slave_Handler_End+0xc02>
    7a9c:	39 39                	cmp    %edi,(%ecx)
    7a9e:	3a 0a                	cmp    (%edx),%cl
    7aa0:	00 49 6e             	add    %cl,0x6e(%ecx)
    7aa3:	74 65                	je     7b0a <ICH7_8259_Slave_Handler_End+0xc11>
    7aa5:	72 72                	jb     7b19 <ICH7_8259_Slave_Handler_End+0xc20>
    7aa7:	75 70                	jne    7b19 <ICH7_8259_Slave_Handler_End+0xc20>
    7aa9:	74 5f                	je     7b0a <ICH7_8259_Slave_Handler_End+0xc11>
    7aab:	48                   	dec    %eax
    7aac:	61                   	popa   
    7aad:	6e                   	outsb  %ds:(%esi),(%dx)
    7aae:	64                   	fs
    7aaf:	6c                   	insb   (%dx),%es:(%edi)
    7ab0:	65                   	gs
    7ab1:	72 5f                	jb     7b12 <ICH7_8259_Slave_Handler_End+0xc19>
    7ab3:	31 30                	xor    %esi,(%eax)
    7ab5:	30 3a                	xor    %bh,(%edx)
    7ab7:	0a 00                	or     (%eax),%al
    7ab9:	49                   	dec    %ecx
    7aba:	6e                   	outsb  %ds:(%esi),(%dx)
    7abb:	74 65                	je     7b22 <ICH7_8259_Slave_Handler_End+0xc29>
    7abd:	72 72                	jb     7b31 <ICH7_8259_Slave_Handler_End+0xc38>
    7abf:	75 70                	jne    7b31 <ICH7_8259_Slave_Handler_End+0xc38>
    7ac1:	74 5f                	je     7b22 <ICH7_8259_Slave_Handler_End+0xc29>
    7ac3:	48                   	dec    %eax
    7ac4:	61                   	popa   
    7ac5:	6e                   	outsb  %ds:(%esi),(%dx)
    7ac6:	64                   	fs
    7ac7:	6c                   	insb   (%dx),%es:(%edi)
    7ac8:	65                   	gs
    7ac9:	72 5f                	jb     7b2a <ICH7_8259_Slave_Handler_End+0xc31>
    7acb:	31 30                	xor    %esi,(%eax)
    7acd:	31 3a                	xor    %edi,(%edx)
    7acf:	0a 00                	or     (%eax),%al
    7ad1:	49                   	dec    %ecx
    7ad2:	6e                   	outsb  %ds:(%esi),(%dx)
    7ad3:	74 65                	je     7b3a <ICH7_8259_Slave_Handler_End+0xc41>
    7ad5:	72 72                	jb     7b49 <ICH7_8259_Slave_Handler_End+0xc50>
    7ad7:	75 70                	jne    7b49 <ICH7_8259_Slave_Handler_End+0xc50>
    7ad9:	74 5f                	je     7b3a <ICH7_8259_Slave_Handler_End+0xc41>
    7adb:	48                   	dec    %eax
    7adc:	61                   	popa   
    7add:	6e                   	outsb  %ds:(%esi),(%dx)
    7ade:	64                   	fs
    7adf:	6c                   	insb   (%dx),%es:(%edi)
    7ae0:	65                   	gs
    7ae1:	72 5f                	jb     7b42 <ICH7_8259_Slave_Handler_End+0xc49>
    7ae3:	31 30                	xor    %esi,(%eax)
    7ae5:	32 3a                	xor    (%edx),%bh
    7ae7:	0a 00                	or     (%eax),%al
    7ae9:	49                   	dec    %ecx
    7aea:	6e                   	outsb  %ds:(%esi),(%dx)
    7aeb:	74 65                	je     7b52 <ICH7_8259_Slave_Handler_End+0xc59>
    7aed:	72 72                	jb     7b61 <ICH7_8259_Slave_Handler_End+0xc68>
    7aef:	75 70                	jne    7b61 <ICH7_8259_Slave_Handler_End+0xc68>
    7af1:	74 5f                	je     7b52 <ICH7_8259_Slave_Handler_End+0xc59>
    7af3:	48                   	dec    %eax
    7af4:	61                   	popa   
    7af5:	6e                   	outsb  %ds:(%esi),(%dx)
    7af6:	64                   	fs
    7af7:	6c                   	insb   (%dx),%es:(%edi)
    7af8:	65                   	gs
    7af9:	72 5f                	jb     7b5a <ICH7_8259_Slave_Handler_End+0xc61>
    7afb:	31 30                	xor    %esi,(%eax)
    7afd:	33 3a                	xor    (%edx),%edi
    7aff:	0a 00                	or     (%eax),%al
    7b01:	49                   	dec    %ecx
    7b02:	6e                   	outsb  %ds:(%esi),(%dx)
    7b03:	74 65                	je     7b6a <ICH7_8259_Slave_Handler_End+0xc71>
    7b05:	72 72                	jb     7b79 <ICH7_8259_Slave_Handler_End+0xc80>
    7b07:	75 70                	jne    7b79 <ICH7_8259_Slave_Handler_End+0xc80>
    7b09:	74 5f                	je     7b6a <ICH7_8259_Slave_Handler_End+0xc71>
    7b0b:	48                   	dec    %eax
    7b0c:	61                   	popa   
    7b0d:	6e                   	outsb  %ds:(%esi),(%dx)
    7b0e:	64                   	fs
    7b0f:	6c                   	insb   (%dx),%es:(%edi)
    7b10:	65                   	gs
    7b11:	72 5f                	jb     7b72 <ICH7_8259_Slave_Handler_End+0xc79>
    7b13:	31 30                	xor    %esi,(%eax)
    7b15:	34 3a                	xor    $0x3a,%al
    7b17:	0a 00                	or     (%eax),%al
    7b19:	49                   	dec    %ecx
    7b1a:	6e                   	outsb  %ds:(%esi),(%dx)
    7b1b:	74 65                	je     7b82 <ICH7_8259_Slave_Handler_End+0xc89>
    7b1d:	72 72                	jb     7b91 <ICH7_8259_Slave_Handler_End+0xc98>
    7b1f:	75 70                	jne    7b91 <ICH7_8259_Slave_Handler_End+0xc98>
    7b21:	74 5f                	je     7b82 <ICH7_8259_Slave_Handler_End+0xc89>
    7b23:	48                   	dec    %eax
    7b24:	61                   	popa   
    7b25:	6e                   	outsb  %ds:(%esi),(%dx)
    7b26:	64                   	fs
    7b27:	6c                   	insb   (%dx),%es:(%edi)
    7b28:	65                   	gs
    7b29:	72 5f                	jb     7b8a <ICH7_8259_Slave_Handler_End+0xc91>
    7b2b:	31 30                	xor    %esi,(%eax)
    7b2d:	35 3a 0a 00 49       	xor    $0x49000a3a,%eax
    7b32:	6e                   	outsb  %ds:(%esi),(%dx)
    7b33:	74 65                	je     7b9a <ICH7_8259_Slave_Handler_End+0xca1>
    7b35:	72 72                	jb     7ba9 <ICH7_8259_Slave_Handler_End+0xcb0>
    7b37:	75 70                	jne    7ba9 <ICH7_8259_Slave_Handler_End+0xcb0>
    7b39:	74 5f                	je     7b9a <ICH7_8259_Slave_Handler_End+0xca1>
    7b3b:	48                   	dec    %eax
    7b3c:	61                   	popa   
    7b3d:	6e                   	outsb  %ds:(%esi),(%dx)
    7b3e:	64                   	fs
    7b3f:	6c                   	insb   (%dx),%es:(%edi)
    7b40:	65                   	gs
    7b41:	72 5f                	jb     7ba2 <ICH7_8259_Slave_Handler_End+0xca9>
    7b43:	31 30                	xor    %esi,(%eax)
    7b45:	36 3a 0a             	cmp    %ss:(%edx),%cl
    7b48:	00 49 6e             	add    %cl,0x6e(%ecx)
    7b4b:	74 65                	je     7bb2 <ICH7_8259_Slave_Handler_End+0xcb9>
    7b4d:	72 72                	jb     7bc1 <ICH7_8259_Slave_Handler_End+0xcc8>
    7b4f:	75 70                	jne    7bc1 <ICH7_8259_Slave_Handler_End+0xcc8>
    7b51:	74 5f                	je     7bb2 <ICH7_8259_Slave_Handler_End+0xcb9>
    7b53:	48                   	dec    %eax
    7b54:	61                   	popa   
    7b55:	6e                   	outsb  %ds:(%esi),(%dx)
    7b56:	64                   	fs
    7b57:	6c                   	insb   (%dx),%es:(%edi)
    7b58:	65                   	gs
    7b59:	72 5f                	jb     7bba <ICH7_8259_Slave_Handler_End+0xcc1>
    7b5b:	31 30                	xor    %esi,(%eax)
    7b5d:	37                   	aaa    
    7b5e:	3a 0a                	cmp    (%edx),%cl
    7b60:	00 49 6e             	add    %cl,0x6e(%ecx)
    7b63:	74 65                	je     7bca <ICH7_8259_Slave_Handler_End+0xcd1>
    7b65:	72 72                	jb     7bd9 <ICH7_8259_Slave_Handler_End+0xce0>
    7b67:	75 70                	jne    7bd9 <ICH7_8259_Slave_Handler_End+0xce0>
    7b69:	74 5f                	je     7bca <ICH7_8259_Slave_Handler_End+0xcd1>
    7b6b:	48                   	dec    %eax
    7b6c:	61                   	popa   
    7b6d:	6e                   	outsb  %ds:(%esi),(%dx)
    7b6e:	64                   	fs
    7b6f:	6c                   	insb   (%dx),%es:(%edi)
    7b70:	65                   	gs
    7b71:	72 5f                	jb     7bd2 <ICH7_8259_Slave_Handler_End+0xcd9>
    7b73:	31 30                	xor    %esi,(%eax)
    7b75:	38 3a                	cmp    %bh,(%edx)
    7b77:	0a 00                	or     (%eax),%al
    7b79:	49                   	dec    %ecx
    7b7a:	6e                   	outsb  %ds:(%esi),(%dx)
    7b7b:	74 65                	je     7be2 <ICH7_8259_Slave_Handler_End+0xce9>
    7b7d:	72 72                	jb     7bf1 <ICH7_8259_Slave_Handler_End+0xcf8>
    7b7f:	75 70                	jne    7bf1 <ICH7_8259_Slave_Handler_End+0xcf8>
    7b81:	74 5f                	je     7be2 <ICH7_8259_Slave_Handler_End+0xce9>
    7b83:	48                   	dec    %eax
    7b84:	61                   	popa   
    7b85:	6e                   	outsb  %ds:(%esi),(%dx)
    7b86:	64                   	fs
    7b87:	6c                   	insb   (%dx),%es:(%edi)
    7b88:	65                   	gs
    7b89:	72 5f                	jb     7bea <ICH7_8259_Slave_Handler_End+0xcf1>
    7b8b:	31 30                	xor    %esi,(%eax)
    7b8d:	39 3a                	cmp    %edi,(%edx)
    7b8f:	0a 00                	or     (%eax),%al
    7b91:	49                   	dec    %ecx
    7b92:	6e                   	outsb  %ds:(%esi),(%dx)
    7b93:	74 65                	je     7bfa <ICH7_8259_Slave_Handler_End+0xd01>
    7b95:	72 72                	jb     7c09 <ICH7_8259_Slave_Handler_End+0xd10>
    7b97:	75 70                	jne    7c09 <ICH7_8259_Slave_Handler_End+0xd10>
    7b99:	74 5f                	je     7bfa <ICH7_8259_Slave_Handler_End+0xd01>
    7b9b:	48                   	dec    %eax
    7b9c:	61                   	popa   
    7b9d:	6e                   	outsb  %ds:(%esi),(%dx)
    7b9e:	64                   	fs
    7b9f:	6c                   	insb   (%dx),%es:(%edi)
    7ba0:	65                   	gs
    7ba1:	72 5f                	jb     7c02 <ICH7_8259_Slave_Handler_End+0xd09>
    7ba3:	31 31                	xor    %esi,(%ecx)
    7ba5:	30 3a                	xor    %bh,(%edx)
    7ba7:	0a 00                	or     (%eax),%al
    7ba9:	49                   	dec    %ecx
    7baa:	6e                   	outsb  %ds:(%esi),(%dx)
    7bab:	74 65                	je     7c12 <ICH7_8259_Slave_Handler_End+0xd19>
    7bad:	72 72                	jb     7c21 <ICH7_8259_Slave_Handler_End+0xd28>
    7baf:	75 70                	jne    7c21 <ICH7_8259_Slave_Handler_End+0xd28>
    7bb1:	74 5f                	je     7c12 <ICH7_8259_Slave_Handler_End+0xd19>
    7bb3:	48                   	dec    %eax
    7bb4:	61                   	popa   
    7bb5:	6e                   	outsb  %ds:(%esi),(%dx)
    7bb6:	64                   	fs
    7bb7:	6c                   	insb   (%dx),%es:(%edi)
    7bb8:	65                   	gs
    7bb9:	72 5f                	jb     7c1a <ICH7_8259_Slave_Handler_End+0xd21>
    7bbb:	31 31                	xor    %esi,(%ecx)
    7bbd:	31 3a                	xor    %edi,(%edx)
    7bbf:	0a 00                	or     (%eax),%al
    7bc1:	49                   	dec    %ecx
    7bc2:	6e                   	outsb  %ds:(%esi),(%dx)
    7bc3:	74 65                	je     7c2a <ICH7_8259_Slave_Handler_End+0xd31>
    7bc5:	72 72                	jb     7c39 <ICH7_8259_Slave_Handler_End+0xd40>
    7bc7:	75 70                	jne    7c39 <ICH7_8259_Slave_Handler_End+0xd40>
    7bc9:	74 5f                	je     7c2a <ICH7_8259_Slave_Handler_End+0xd31>
    7bcb:	48                   	dec    %eax
    7bcc:	61                   	popa   
    7bcd:	6e                   	outsb  %ds:(%esi),(%dx)
    7bce:	64                   	fs
    7bcf:	6c                   	insb   (%dx),%es:(%edi)
    7bd0:	65                   	gs
    7bd1:	72 5f                	jb     7c32 <ICH7_8259_Slave_Handler_End+0xd39>
    7bd3:	31 31                	xor    %esi,(%ecx)
    7bd5:	32 3a                	xor    (%edx),%bh
    7bd7:	0a 00                	or     (%eax),%al
    7bd9:	49                   	dec    %ecx
    7bda:	6e                   	outsb  %ds:(%esi),(%dx)
    7bdb:	74 65                	je     7c42 <ICH7_8259_Slave_Handler_End+0xd49>
    7bdd:	72 72                	jb     7c51 <ICH7_8259_Slave_Handler_End+0xd58>
    7bdf:	75 70                	jne    7c51 <ICH7_8259_Slave_Handler_End+0xd58>
    7be1:	74 5f                	je     7c42 <ICH7_8259_Slave_Handler_End+0xd49>
    7be3:	48                   	dec    %eax
    7be4:	61                   	popa   
    7be5:	6e                   	outsb  %ds:(%esi),(%dx)
    7be6:	64                   	fs
    7be7:	6c                   	insb   (%dx),%es:(%edi)
    7be8:	65                   	gs
    7be9:	72 5f                	jb     7c4a <ICH7_8259_Slave_Handler_End+0xd51>
    7beb:	31 31                	xor    %esi,(%ecx)
    7bed:	33 3a                	xor    (%edx),%edi
    7bef:	0a 00                	or     (%eax),%al
    7bf1:	49                   	dec    %ecx
    7bf2:	6e                   	outsb  %ds:(%esi),(%dx)
    7bf3:	74 65                	je     7c5a <ICH7_8259_Slave_Handler_End+0xd61>
    7bf5:	72 72                	jb     7c69 <ICH7_8259_Slave_Handler_End+0xd70>
    7bf7:	75 70                	jne    7c69 <ICH7_8259_Slave_Handler_End+0xd70>
    7bf9:	74 5f                	je     7c5a <ICH7_8259_Slave_Handler_End+0xd61>
    7bfb:	48                   	dec    %eax
    7bfc:	61                   	popa   
    7bfd:	6e                   	outsb  %ds:(%esi),(%dx)
    7bfe:	64                   	fs
    7bff:	6c                   	insb   (%dx),%es:(%edi)
    7c00:	65                   	gs
    7c01:	72 5f                	jb     7c62 <ICH7_8259_Slave_Handler_End+0xd69>
    7c03:	31 31                	xor    %esi,(%ecx)
    7c05:	34 3a                	xor    $0x3a,%al
    7c07:	0a 00                	or     (%eax),%al
    7c09:	49                   	dec    %ecx
    7c0a:	6e                   	outsb  %ds:(%esi),(%dx)
    7c0b:	74 65                	je     7c72 <ICH7_8259_Slave_Handler_End+0xd79>
    7c0d:	72 72                	jb     7c81 <ICH7_8259_Slave_Handler_End+0xd88>
    7c0f:	75 70                	jne    7c81 <ICH7_8259_Slave_Handler_End+0xd88>
    7c11:	74 5f                	je     7c72 <ICH7_8259_Slave_Handler_End+0xd79>
    7c13:	48                   	dec    %eax
    7c14:	61                   	popa   
    7c15:	6e                   	outsb  %ds:(%esi),(%dx)
    7c16:	64                   	fs
    7c17:	6c                   	insb   (%dx),%es:(%edi)
    7c18:	65                   	gs
    7c19:	72 5f                	jb     7c7a <ICH7_8259_Slave_Handler_End+0xd81>
    7c1b:	31 31                	xor    %esi,(%ecx)
    7c1d:	35 3a 0a 00 49       	xor    $0x49000a3a,%eax
    7c22:	6e                   	outsb  %ds:(%esi),(%dx)
    7c23:	74 65                	je     7c8a <ICH7_8259_Slave_Handler_End+0xd91>
    7c25:	72 72                	jb     7c99 <ICH7_8259_Slave_Handler_End+0xda0>
    7c27:	75 70                	jne    7c99 <ICH7_8259_Slave_Handler_End+0xda0>
    7c29:	74 5f                	je     7c8a <ICH7_8259_Slave_Handler_End+0xd91>
    7c2b:	48                   	dec    %eax
    7c2c:	61                   	popa   
    7c2d:	6e                   	outsb  %ds:(%esi),(%dx)
    7c2e:	64                   	fs
    7c2f:	6c                   	insb   (%dx),%es:(%edi)
    7c30:	65                   	gs
    7c31:	72 5f                	jb     7c92 <ICH7_8259_Slave_Handler_End+0xd99>
    7c33:	31 31                	xor    %esi,(%ecx)
    7c35:	36 3a 0a             	cmp    %ss:(%edx),%cl
    7c38:	00 49 6e             	add    %cl,0x6e(%ecx)
    7c3b:	74 65                	je     7ca2 <ICH7_8259_Slave_Handler_End+0xda9>
    7c3d:	72 72                	jb     7cb1 <ICH7_8259_Slave_Handler_End+0xdb8>
    7c3f:	75 70                	jne    7cb1 <ICH7_8259_Slave_Handler_End+0xdb8>
    7c41:	74 5f                	je     7ca2 <ICH7_8259_Slave_Handler_End+0xda9>
    7c43:	48                   	dec    %eax
    7c44:	61                   	popa   
    7c45:	6e                   	outsb  %ds:(%esi),(%dx)
    7c46:	64                   	fs
    7c47:	6c                   	insb   (%dx),%es:(%edi)
    7c48:	65                   	gs
    7c49:	72 5f                	jb     7caa <ICH7_8259_Slave_Handler_End+0xdb1>
    7c4b:	31 31                	xor    %esi,(%ecx)
    7c4d:	37                   	aaa    
    7c4e:	3a 0a                	cmp    (%edx),%cl
    7c50:	00 49 6e             	add    %cl,0x6e(%ecx)
    7c53:	74 65                	je     7cba <ICH7_8259_Slave_Handler_End+0xdc1>
    7c55:	72 72                	jb     7cc9 <ICH7_8259_Slave_Handler_End+0xdd0>
    7c57:	75 70                	jne    7cc9 <ICH7_8259_Slave_Handler_End+0xdd0>
    7c59:	74 5f                	je     7cba <ICH7_8259_Slave_Handler_End+0xdc1>
    7c5b:	48                   	dec    %eax
    7c5c:	61                   	popa   
    7c5d:	6e                   	outsb  %ds:(%esi),(%dx)
    7c5e:	64                   	fs
    7c5f:	6c                   	insb   (%dx),%es:(%edi)
    7c60:	65                   	gs
    7c61:	72 5f                	jb     7cc2 <ICH7_8259_Slave_Handler_End+0xdc9>
    7c63:	31 31                	xor    %esi,(%ecx)
    7c65:	38 3a                	cmp    %bh,(%edx)
    7c67:	0a 00                	or     (%eax),%al
    7c69:	49                   	dec    %ecx
    7c6a:	6e                   	outsb  %ds:(%esi),(%dx)
    7c6b:	74 65                	je     7cd2 <ICH7_8259_Slave_Handler_End+0xdd9>
    7c6d:	72 72                	jb     7ce1 <ICH7_8259_Slave_Handler_End+0xde8>
    7c6f:	75 70                	jne    7ce1 <ICH7_8259_Slave_Handler_End+0xde8>
    7c71:	74 5f                	je     7cd2 <ICH7_8259_Slave_Handler_End+0xdd9>
    7c73:	48                   	dec    %eax
    7c74:	61                   	popa   
    7c75:	6e                   	outsb  %ds:(%esi),(%dx)
    7c76:	64                   	fs
    7c77:	6c                   	insb   (%dx),%es:(%edi)
    7c78:	65                   	gs
    7c79:	72 5f                	jb     7cda <ICH7_8259_Slave_Handler_End+0xde1>
    7c7b:	31 31                	xor    %esi,(%ecx)
    7c7d:	39 3a                	cmp    %edi,(%edx)
    7c7f:	0a 00                	or     (%eax),%al
    7c81:	49                   	dec    %ecx
    7c82:	6e                   	outsb  %ds:(%esi),(%dx)
    7c83:	74 65                	je     7cea <ICH7_8259_Slave_Handler_End+0xdf1>
    7c85:	72 72                	jb     7cf9 <ICH7_8259_Slave_Handler_End+0xe00>
    7c87:	75 70                	jne    7cf9 <ICH7_8259_Slave_Handler_End+0xe00>
    7c89:	74 5f                	je     7cea <ICH7_8259_Slave_Handler_End+0xdf1>
    7c8b:	48                   	dec    %eax
    7c8c:	61                   	popa   
    7c8d:	6e                   	outsb  %ds:(%esi),(%dx)
    7c8e:	64                   	fs
    7c8f:	6c                   	insb   (%dx),%es:(%edi)
    7c90:	65                   	gs
    7c91:	72 5f                	jb     7cf2 <ICH7_8259_Slave_Handler_End+0xdf9>
    7c93:	31 32                	xor    %esi,(%edx)
    7c95:	30 3a                	xor    %bh,(%edx)
    7c97:	0a 00                	or     (%eax),%al
    7c99:	49                   	dec    %ecx
    7c9a:	6e                   	outsb  %ds:(%esi),(%dx)
    7c9b:	74 65                	je     7d02 <ICH7_8259_Slave_Handler_End+0xe09>
    7c9d:	72 72                	jb     7d11 <ICH7_8259_Slave_Handler_End+0xe18>
    7c9f:	75 70                	jne    7d11 <ICH7_8259_Slave_Handler_End+0xe18>
    7ca1:	74 5f                	je     7d02 <ICH7_8259_Slave_Handler_End+0xe09>
    7ca3:	48                   	dec    %eax
    7ca4:	61                   	popa   
    7ca5:	6e                   	outsb  %ds:(%esi),(%dx)
    7ca6:	64                   	fs
    7ca7:	6c                   	insb   (%dx),%es:(%edi)
    7ca8:	65                   	gs
    7ca9:	72 5f                	jb     7d0a <ICH7_8259_Slave_Handler_End+0xe11>
    7cab:	31 32                	xor    %esi,(%edx)
    7cad:	31 3a                	xor    %edi,(%edx)
    7caf:	0a 00                	or     (%eax),%al
    7cb1:	49                   	dec    %ecx
    7cb2:	6e                   	outsb  %ds:(%esi),(%dx)
    7cb3:	74 65                	je     7d1a <ICH7_8259_Slave_Handler_End+0xe21>
    7cb5:	72 72                	jb     7d29 <ICH7_8259_Slave_Handler_End+0xe30>
    7cb7:	75 70                	jne    7d29 <ICH7_8259_Slave_Handler_End+0xe30>
    7cb9:	74 5f                	je     7d1a <ICH7_8259_Slave_Handler_End+0xe21>
    7cbb:	48                   	dec    %eax
    7cbc:	61                   	popa   
    7cbd:	6e                   	outsb  %ds:(%esi),(%dx)
    7cbe:	64                   	fs
    7cbf:	6c                   	insb   (%dx),%es:(%edi)
    7cc0:	65                   	gs
    7cc1:	72 5f                	jb     7d22 <ICH7_8259_Slave_Handler_End+0xe29>
    7cc3:	31 32                	xor    %esi,(%edx)
    7cc5:	32 3a                	xor    (%edx),%bh
    7cc7:	0a 00                	or     (%eax),%al
    7cc9:	49                   	dec    %ecx
    7cca:	6e                   	outsb  %ds:(%esi),(%dx)
    7ccb:	74 65                	je     7d32 <ICH7_8259_Slave_Handler_End+0xe39>
    7ccd:	72 72                	jb     7d41 <ICH7_8259_Slave_Handler_End+0xe48>
    7ccf:	75 70                	jne    7d41 <ICH7_8259_Slave_Handler_End+0xe48>
    7cd1:	74 5f                	je     7d32 <ICH7_8259_Slave_Handler_End+0xe39>
    7cd3:	48                   	dec    %eax
    7cd4:	61                   	popa   
    7cd5:	6e                   	outsb  %ds:(%esi),(%dx)
    7cd6:	64                   	fs
    7cd7:	6c                   	insb   (%dx),%es:(%edi)
    7cd8:	65                   	gs
    7cd9:	72 5f                	jb     7d3a <ICH7_8259_Slave_Handler_End+0xe41>
    7cdb:	31 32                	xor    %esi,(%edx)
    7cdd:	33 3a                	xor    (%edx),%edi
    7cdf:	0a 00                	or     (%eax),%al
    7ce1:	49                   	dec    %ecx
    7ce2:	6e                   	outsb  %ds:(%esi),(%dx)
    7ce3:	74 65                	je     7d4a <ICH7_8259_Slave_Handler_End+0xe51>
    7ce5:	72 72                	jb     7d59 <ICH7_8259_Slave_Handler_End+0xe60>
    7ce7:	75 70                	jne    7d59 <ICH7_8259_Slave_Handler_End+0xe60>
    7ce9:	74 5f                	je     7d4a <ICH7_8259_Slave_Handler_End+0xe51>
    7ceb:	48                   	dec    %eax
    7cec:	61                   	popa   
    7ced:	6e                   	outsb  %ds:(%esi),(%dx)
    7cee:	64                   	fs
    7cef:	6c                   	insb   (%dx),%es:(%edi)
    7cf0:	65                   	gs
    7cf1:	72 5f                	jb     7d52 <ICH7_8259_Slave_Handler_End+0xe59>
    7cf3:	31 32                	xor    %esi,(%edx)
    7cf5:	34 3a                	xor    $0x3a,%al
    7cf7:	0a 00                	or     (%eax),%al
    7cf9:	49                   	dec    %ecx
    7cfa:	6e                   	outsb  %ds:(%esi),(%dx)
    7cfb:	74 65                	je     7d62 <ICH7_8259_Slave_Handler_End+0xe69>
    7cfd:	72 72                	jb     7d71 <ICH7_8259_Slave_Handler_End+0xe78>
    7cff:	75 70                	jne    7d71 <ICH7_8259_Slave_Handler_End+0xe78>
    7d01:	74 5f                	je     7d62 <ICH7_8259_Slave_Handler_End+0xe69>
    7d03:	48                   	dec    %eax
    7d04:	61                   	popa   
    7d05:	6e                   	outsb  %ds:(%esi),(%dx)
    7d06:	64                   	fs
    7d07:	6c                   	insb   (%dx),%es:(%edi)
    7d08:	65                   	gs
    7d09:	72 5f                	jb     7d6a <ICH7_8259_Slave_Handler_End+0xe71>
    7d0b:	31 32                	xor    %esi,(%edx)
    7d0d:	35 3a 0a 00 49       	xor    $0x49000a3a,%eax
    7d12:	6e                   	outsb  %ds:(%esi),(%dx)
    7d13:	74 65                	je     7d7a <ICH7_8259_Slave_Handler_End+0xe81>
    7d15:	72 72                	jb     7d89 <ICH7_8259_Slave_Handler_End+0xe90>
    7d17:	75 70                	jne    7d89 <ICH7_8259_Slave_Handler_End+0xe90>
    7d19:	74 5f                	je     7d7a <ICH7_8259_Slave_Handler_End+0xe81>
    7d1b:	48                   	dec    %eax
    7d1c:	61                   	popa   
    7d1d:	6e                   	outsb  %ds:(%esi),(%dx)
    7d1e:	64                   	fs
    7d1f:	6c                   	insb   (%dx),%es:(%edi)
    7d20:	65                   	gs
    7d21:	72 5f                	jb     7d82 <ICH7_8259_Slave_Handler_End+0xe89>
    7d23:	31 32                	xor    %esi,(%edx)
    7d25:	36 3a 0a             	cmp    %ss:(%edx),%cl
    7d28:	00 49 6e             	add    %cl,0x6e(%ecx)
    7d2b:	74 65                	je     7d92 <ICH7_8259_Slave_Handler_End+0xe99>
    7d2d:	72 72                	jb     7da1 <ICH7_8259_Slave_Handler_End+0xea8>
    7d2f:	75 70                	jne    7da1 <ICH7_8259_Slave_Handler_End+0xea8>
    7d31:	74 5f                	je     7d92 <ICH7_8259_Slave_Handler_End+0xe99>
    7d33:	48                   	dec    %eax
    7d34:	61                   	popa   
    7d35:	6e                   	outsb  %ds:(%esi),(%dx)
    7d36:	64                   	fs
    7d37:	6c                   	insb   (%dx),%es:(%edi)
    7d38:	65                   	gs
    7d39:	72 5f                	jb     7d9a <ICH7_8259_Slave_Handler_End+0xea1>
    7d3b:	31 32                	xor    %esi,(%edx)
    7d3d:	37                   	aaa    
    7d3e:	3a 0a                	cmp    (%edx),%cl
    7d40:	00 49 6e             	add    %cl,0x6e(%ecx)
    7d43:	74 65                	je     7daa <ICH7_8259_Slave_Handler_End+0xeb1>
    7d45:	72 72                	jb     7db9 <ICH7_8259_Slave_Handler_End+0xec0>
    7d47:	75 70                	jne    7db9 <ICH7_8259_Slave_Handler_End+0xec0>
    7d49:	74 5f                	je     7daa <ICH7_8259_Slave_Handler_End+0xeb1>
    7d4b:	48                   	dec    %eax
    7d4c:	61                   	popa   
    7d4d:	6e                   	outsb  %ds:(%esi),(%dx)
    7d4e:	64                   	fs
    7d4f:	6c                   	insb   (%dx),%es:(%edi)
    7d50:	65                   	gs
    7d51:	72 5f                	jb     7db2 <ICH7_8259_Slave_Handler_End+0xeb9>
    7d53:	31 32                	xor    %esi,(%edx)
    7d55:	38 3a                	cmp    %bh,(%edx)
    7d57:	0a 00                	or     (%eax),%al
    7d59:	49                   	dec    %ecx
    7d5a:	6e                   	outsb  %ds:(%esi),(%dx)
    7d5b:	74 65                	je     7dc2 <ICH7_8259_Slave_Handler_End+0xec9>
    7d5d:	72 72                	jb     7dd1 <ICH7_8259_Slave_Handler_End+0xed8>
    7d5f:	75 70                	jne    7dd1 <ICH7_8259_Slave_Handler_End+0xed8>
    7d61:	74 5f                	je     7dc2 <ICH7_8259_Slave_Handler_End+0xec9>
    7d63:	48                   	dec    %eax
    7d64:	61                   	popa   
    7d65:	6e                   	outsb  %ds:(%esi),(%dx)
    7d66:	64                   	fs
    7d67:	6c                   	insb   (%dx),%es:(%edi)
    7d68:	65                   	gs
    7d69:	72 5f                	jb     7dca <ICH7_8259_Slave_Handler_End+0xed1>
    7d6b:	31 32                	xor    %esi,(%edx)
    7d6d:	39 3a                	cmp    %edi,(%edx)
    7d6f:	0a 00                	or     (%eax),%al
    7d71:	49                   	dec    %ecx
    7d72:	6e                   	outsb  %ds:(%esi),(%dx)
    7d73:	74 65                	je     7dda <ICH7_8259_Slave_Handler_End+0xee1>
    7d75:	72 72                	jb     7de9 <ICH7_8259_Slave_Handler_End+0xef0>
    7d77:	75 70                	jne    7de9 <ICH7_8259_Slave_Handler_End+0xef0>
    7d79:	74 5f                	je     7dda <ICH7_8259_Slave_Handler_End+0xee1>
    7d7b:	48                   	dec    %eax
    7d7c:	61                   	popa   
    7d7d:	6e                   	outsb  %ds:(%esi),(%dx)
    7d7e:	64                   	fs
    7d7f:	6c                   	insb   (%dx),%es:(%edi)
    7d80:	65                   	gs
    7d81:	72 5f                	jb     7de2 <ICH7_8259_Slave_Handler_End+0xee9>
    7d83:	31 33                	xor    %esi,(%ebx)
    7d85:	30 3a                	xor    %bh,(%edx)
    7d87:	0a 00                	or     (%eax),%al
    7d89:	49                   	dec    %ecx
    7d8a:	6e                   	outsb  %ds:(%esi),(%dx)
    7d8b:	74 65                	je     7df2 <ICH7_8259_Slave_Handler_End+0xef9>
    7d8d:	72 72                	jb     7e01 <ICH7_8259_Slave_Handler_End+0xf08>
    7d8f:	75 70                	jne    7e01 <ICH7_8259_Slave_Handler_End+0xf08>
    7d91:	74 5f                	je     7df2 <ICH7_8259_Slave_Handler_End+0xef9>
    7d93:	48                   	dec    %eax
    7d94:	61                   	popa   
    7d95:	6e                   	outsb  %ds:(%esi),(%dx)
    7d96:	64                   	fs
    7d97:	6c                   	insb   (%dx),%es:(%edi)
    7d98:	65                   	gs
    7d99:	72 5f                	jb     7dfa <ICH7_8259_Slave_Handler_End+0xf01>
    7d9b:	31 33                	xor    %esi,(%ebx)
    7d9d:	31 3a                	xor    %edi,(%edx)
    7d9f:	0a 00                	or     (%eax),%al
    7da1:	49                   	dec    %ecx
    7da2:	6e                   	outsb  %ds:(%esi),(%dx)
    7da3:	74 65                	je     7e0a <ICH7_8259_Slave_Handler_End+0xf11>
    7da5:	72 72                	jb     7e19 <ICH7_8259_Slave_Handler_End+0xf20>
    7da7:	75 70                	jne    7e19 <ICH7_8259_Slave_Handler_End+0xf20>
    7da9:	74 5f                	je     7e0a <ICH7_8259_Slave_Handler_End+0xf11>
    7dab:	48                   	dec    %eax
    7dac:	61                   	popa   
    7dad:	6e                   	outsb  %ds:(%esi),(%dx)
    7dae:	64                   	fs
    7daf:	6c                   	insb   (%dx),%es:(%edi)
    7db0:	65                   	gs
    7db1:	72 5f                	jb     7e12 <ICH7_8259_Slave_Handler_End+0xf19>
    7db3:	31 33                	xor    %esi,(%ebx)
    7db5:	32 3a                	xor    (%edx),%bh
    7db7:	0a 00                	or     (%eax),%al
    7db9:	49                   	dec    %ecx
    7dba:	6e                   	outsb  %ds:(%esi),(%dx)
    7dbb:	74 65                	je     7e22 <ICH7_8259_Slave_Handler_End+0xf29>
    7dbd:	72 72                	jb     7e31 <ICH7_8259_Slave_Handler_End+0xf38>
    7dbf:	75 70                	jne    7e31 <ICH7_8259_Slave_Handler_End+0xf38>
    7dc1:	74 5f                	je     7e22 <ICH7_8259_Slave_Handler_End+0xf29>
    7dc3:	48                   	dec    %eax
    7dc4:	61                   	popa   
    7dc5:	6e                   	outsb  %ds:(%esi),(%dx)
    7dc6:	64                   	fs
    7dc7:	6c                   	insb   (%dx),%es:(%edi)
    7dc8:	65                   	gs
    7dc9:	72 5f                	jb     7e2a <ICH7_8259_Slave_Handler_End+0xf31>
    7dcb:	31 33                	xor    %esi,(%ebx)
    7dcd:	33 3a                	xor    (%edx),%edi
    7dcf:	0a 00                	or     (%eax),%al
    7dd1:	49                   	dec    %ecx
    7dd2:	6e                   	outsb  %ds:(%esi),(%dx)
    7dd3:	74 65                	je     7e3a <ICH7_8259_Slave_Handler_End+0xf41>
    7dd5:	72 72                	jb     7e49 <ICH7_8259_Slave_Handler_End+0xf50>
    7dd7:	75 70                	jne    7e49 <ICH7_8259_Slave_Handler_End+0xf50>
    7dd9:	74 5f                	je     7e3a <ICH7_8259_Slave_Handler_End+0xf41>
    7ddb:	48                   	dec    %eax
    7ddc:	61                   	popa   
    7ddd:	6e                   	outsb  %ds:(%esi),(%dx)
    7dde:	64                   	fs
    7ddf:	6c                   	insb   (%dx),%es:(%edi)
    7de0:	65                   	gs
    7de1:	72 5f                	jb     7e42 <ICH7_8259_Slave_Handler_End+0xf49>
    7de3:	31 33                	xor    %esi,(%ebx)
    7de5:	34 3a                	xor    $0x3a,%al
    7de7:	0a 00                	or     (%eax),%al
    7de9:	49                   	dec    %ecx
    7dea:	6e                   	outsb  %ds:(%esi),(%dx)
    7deb:	74 65                	je     7e52 <ICH7_8259_Slave_Handler_End+0xf59>
    7ded:	72 72                	jb     7e61 <ICH7_8259_Slave_Handler_End+0xf68>
    7def:	75 70                	jne    7e61 <ICH7_8259_Slave_Handler_End+0xf68>
    7df1:	74 5f                	je     7e52 <ICH7_8259_Slave_Handler_End+0xf59>
    7df3:	48                   	dec    %eax
    7df4:	61                   	popa   
    7df5:	6e                   	outsb  %ds:(%esi),(%dx)
    7df6:	64                   	fs
    7df7:	6c                   	insb   (%dx),%es:(%edi)
    7df8:	65                   	gs
    7df9:	72 5f                	jb     7e5a <ICH7_8259_Slave_Handler_End+0xf61>
    7dfb:	31 33                	xor    %esi,(%ebx)
    7dfd:	35 3a 0a 00 49       	xor    $0x49000a3a,%eax
    7e02:	6e                   	outsb  %ds:(%esi),(%dx)
    7e03:	74 65                	je     7e6a <ICH7_8259_Slave_Handler_End+0xf71>
    7e05:	72 72                	jb     7e79 <ICH7_8259_Slave_Handler_End+0xf80>
    7e07:	75 70                	jne    7e79 <ICH7_8259_Slave_Handler_End+0xf80>
    7e09:	74 5f                	je     7e6a <ICH7_8259_Slave_Handler_End+0xf71>
    7e0b:	48                   	dec    %eax
    7e0c:	61                   	popa   
    7e0d:	6e                   	outsb  %ds:(%esi),(%dx)
    7e0e:	64                   	fs
    7e0f:	6c                   	insb   (%dx),%es:(%edi)
    7e10:	65                   	gs
    7e11:	72 5f                	jb     7e72 <ICH7_8259_Slave_Handler_End+0xf79>
    7e13:	31 33                	xor    %esi,(%ebx)
    7e15:	36 3a 0a             	cmp    %ss:(%edx),%cl
    7e18:	00 49 6e             	add    %cl,0x6e(%ecx)
    7e1b:	74 65                	je     7e82 <ICH7_8259_Slave_Handler_End+0xf89>
    7e1d:	72 72                	jb     7e91 <ICH7_8259_Slave_Handler_End+0xf98>
    7e1f:	75 70                	jne    7e91 <ICH7_8259_Slave_Handler_End+0xf98>
    7e21:	74 5f                	je     7e82 <ICH7_8259_Slave_Handler_End+0xf89>
    7e23:	48                   	dec    %eax
    7e24:	61                   	popa   
    7e25:	6e                   	outsb  %ds:(%esi),(%dx)
    7e26:	64                   	fs
    7e27:	6c                   	insb   (%dx),%es:(%edi)
    7e28:	65                   	gs
    7e29:	72 5f                	jb     7e8a <ICH7_8259_Slave_Handler_End+0xf91>
    7e2b:	31 33                	xor    %esi,(%ebx)
    7e2d:	37                   	aaa    
    7e2e:	3a 0a                	cmp    (%edx),%cl
    7e30:	00 49 6e             	add    %cl,0x6e(%ecx)
    7e33:	74 65                	je     7e9a <ICH7_8259_Slave_Handler_End+0xfa1>
    7e35:	72 72                	jb     7ea9 <ICH7_8259_Slave_Handler_End+0xfb0>
    7e37:	75 70                	jne    7ea9 <ICH7_8259_Slave_Handler_End+0xfb0>
    7e39:	74 5f                	je     7e9a <ICH7_8259_Slave_Handler_End+0xfa1>
    7e3b:	48                   	dec    %eax
    7e3c:	61                   	popa   
    7e3d:	6e                   	outsb  %ds:(%esi),(%dx)
    7e3e:	64                   	fs
    7e3f:	6c                   	insb   (%dx),%es:(%edi)
    7e40:	65                   	gs
    7e41:	72 5f                	jb     7ea2 <ICH7_8259_Slave_Handler_End+0xfa9>
    7e43:	31 33                	xor    %esi,(%ebx)
    7e45:	38 3a                	cmp    %bh,(%edx)
    7e47:	0a 00                	or     (%eax),%al
    7e49:	49                   	dec    %ecx
    7e4a:	6e                   	outsb  %ds:(%esi),(%dx)
    7e4b:	74 65                	je     7eb2 <ICH7_8259_Slave_Handler_End+0xfb9>
    7e4d:	72 72                	jb     7ec1 <ICH7_8259_Slave_Handler_End+0xfc8>
    7e4f:	75 70                	jne    7ec1 <ICH7_8259_Slave_Handler_End+0xfc8>
    7e51:	74 5f                	je     7eb2 <ICH7_8259_Slave_Handler_End+0xfb9>
    7e53:	48                   	dec    %eax
    7e54:	61                   	popa   
    7e55:	6e                   	outsb  %ds:(%esi),(%dx)
    7e56:	64                   	fs
    7e57:	6c                   	insb   (%dx),%es:(%edi)
    7e58:	65                   	gs
    7e59:	72 5f                	jb     7eba <ICH7_8259_Slave_Handler_End+0xfc1>
    7e5b:	31 33                	xor    %esi,(%ebx)
    7e5d:	39 3a                	cmp    %edi,(%edx)
    7e5f:	0a 00                	or     (%eax),%al
    7e61:	49                   	dec    %ecx
    7e62:	6e                   	outsb  %ds:(%esi),(%dx)
    7e63:	74 65                	je     7eca <ICH7_8259_Slave_Handler_End+0xfd1>
    7e65:	72 72                	jb     7ed9 <ICH7_8259_Slave_Handler_End+0xfe0>
    7e67:	75 70                	jne    7ed9 <ICH7_8259_Slave_Handler_End+0xfe0>
    7e69:	74 5f                	je     7eca <ICH7_8259_Slave_Handler_End+0xfd1>
    7e6b:	48                   	dec    %eax
    7e6c:	61                   	popa   
    7e6d:	6e                   	outsb  %ds:(%esi),(%dx)
    7e6e:	64                   	fs
    7e6f:	6c                   	insb   (%dx),%es:(%edi)
    7e70:	65                   	gs
    7e71:	72 5f                	jb     7ed2 <ICH7_8259_Slave_Handler_End+0xfd9>
    7e73:	31 34 30             	xor    %esi,(%eax,%esi,1)
    7e76:	3a 0a                	cmp    (%edx),%cl
    7e78:	00 49 6e             	add    %cl,0x6e(%ecx)
    7e7b:	74 65                	je     7ee2 <ICH7_8259_Slave_Handler_End+0xfe9>
    7e7d:	72 72                	jb     7ef1 <ICH7_8259_Slave_Handler_End+0xff8>
    7e7f:	75 70                	jne    7ef1 <ICH7_8259_Slave_Handler_End+0xff8>
    7e81:	74 5f                	je     7ee2 <ICH7_8259_Slave_Handler_End+0xfe9>
    7e83:	48                   	dec    %eax
    7e84:	61                   	popa   
    7e85:	6e                   	outsb  %ds:(%esi),(%dx)
    7e86:	64                   	fs
    7e87:	6c                   	insb   (%dx),%es:(%edi)
    7e88:	65                   	gs
    7e89:	72 5f                	jb     7eea <ICH7_8259_Slave_Handler_End+0xff1>
    7e8b:	31 34 31             	xor    %esi,(%ecx,%esi,1)
    7e8e:	3a 0a                	cmp    (%edx),%cl
    7e90:	00 49 6e             	add    %cl,0x6e(%ecx)
    7e93:	74 65                	je     7efa <ICH7_8259_Slave_Handler_End+0x1001>
    7e95:	72 72                	jb     7f09 <ICH7_8259_Slave_Handler_End+0x1010>
    7e97:	75 70                	jne    7f09 <ICH7_8259_Slave_Handler_End+0x1010>
    7e99:	74 5f                	je     7efa <ICH7_8259_Slave_Handler_End+0x1001>
    7e9b:	48                   	dec    %eax
    7e9c:	61                   	popa   
    7e9d:	6e                   	outsb  %ds:(%esi),(%dx)
    7e9e:	64                   	fs
    7e9f:	6c                   	insb   (%dx),%es:(%edi)
    7ea0:	65                   	gs
    7ea1:	72 5f                	jb     7f02 <ICH7_8259_Slave_Handler_End+0x1009>
    7ea3:	31 34 32             	xor    %esi,(%edx,%esi,1)
    7ea6:	3a 0a                	cmp    (%edx),%cl
    7ea8:	00 49 6e             	add    %cl,0x6e(%ecx)
    7eab:	74 65                	je     7f12 <ICH7_8259_Slave_Handler_End+0x1019>
    7ead:	72 72                	jb     7f21 <ICH7_8259_Slave_Handler_End+0x1028>
    7eaf:	75 70                	jne    7f21 <ICH7_8259_Slave_Handler_End+0x1028>
    7eb1:	74 5f                	je     7f12 <ICH7_8259_Slave_Handler_End+0x1019>
    7eb3:	48                   	dec    %eax
    7eb4:	61                   	popa   
    7eb5:	6e                   	outsb  %ds:(%esi),(%dx)
    7eb6:	64                   	fs
    7eb7:	6c                   	insb   (%dx),%es:(%edi)
    7eb8:	65                   	gs
    7eb9:	72 5f                	jb     7f1a <ICH7_8259_Slave_Handler_End+0x1021>
    7ebb:	31 34 33             	xor    %esi,(%ebx,%esi,1)
    7ebe:	3a 0a                	cmp    (%edx),%cl
    7ec0:	00 49 6e             	add    %cl,0x6e(%ecx)
    7ec3:	74 65                	je     7f2a <ICH7_8259_Slave_Handler_End+0x1031>
    7ec5:	72 72                	jb     7f39 <ICH7_8259_Slave_Handler_End+0x1040>
    7ec7:	75 70                	jne    7f39 <ICH7_8259_Slave_Handler_End+0x1040>
    7ec9:	74 5f                	je     7f2a <ICH7_8259_Slave_Handler_End+0x1031>
    7ecb:	48                   	dec    %eax
    7ecc:	61                   	popa   
    7ecd:	6e                   	outsb  %ds:(%esi),(%dx)
    7ece:	64                   	fs
    7ecf:	6c                   	insb   (%dx),%es:(%edi)
    7ed0:	65                   	gs
    7ed1:	72 5f                	jb     7f32 <ICH7_8259_Slave_Handler_End+0x1039>
    7ed3:	31 34 34             	xor    %esi,(%esp,%esi,1)
    7ed6:	3a 0a                	cmp    (%edx),%cl
    7ed8:	00 49 6e             	add    %cl,0x6e(%ecx)
    7edb:	74 65                	je     7f42 <ICH7_8259_Slave_Handler_End+0x1049>
    7edd:	72 72                	jb     7f51 <ICH7_8259_Slave_Handler_End+0x1058>
    7edf:	75 70                	jne    7f51 <ICH7_8259_Slave_Handler_End+0x1058>
    7ee1:	74 5f                	je     7f42 <ICH7_8259_Slave_Handler_End+0x1049>
    7ee3:	48                   	dec    %eax
    7ee4:	61                   	popa   
    7ee5:	6e                   	outsb  %ds:(%esi),(%dx)
    7ee6:	64                   	fs
    7ee7:	6c                   	insb   (%dx),%es:(%edi)
    7ee8:	65                   	gs
    7ee9:	72 5f                	jb     7f4a <ICH7_8259_Slave_Handler_End+0x1051>
    7eeb:	31 34 35 3a 0a 00 49 	xor    %esi,0x49000a3a(,%esi,1)
    7ef2:	6e                   	outsb  %ds:(%esi),(%dx)
    7ef3:	74 65                	je     7f5a <ICH7_8259_Slave_Handler_End+0x1061>
    7ef5:	72 72                	jb     7f69 <ICH7_8259_Slave_Handler_End+0x1070>
    7ef7:	75 70                	jne    7f69 <ICH7_8259_Slave_Handler_End+0x1070>
    7ef9:	74 5f                	je     7f5a <ICH7_8259_Slave_Handler_End+0x1061>
    7efb:	48                   	dec    %eax
    7efc:	61                   	popa   
    7efd:	6e                   	outsb  %ds:(%esi),(%dx)
    7efe:	64                   	fs
    7eff:	6c                   	insb   (%dx),%es:(%edi)
    7f00:	65                   	gs
    7f01:	72 5f                	jb     7f62 <ICH7_8259_Slave_Handler_End+0x1069>
    7f03:	31 34 36             	xor    %esi,(%esi,%esi,1)
    7f06:	3a 0a                	cmp    (%edx),%cl
    7f08:	00 49 6e             	add    %cl,0x6e(%ecx)
    7f0b:	74 65                	je     7f72 <ICH7_8259_Slave_Handler_End+0x1079>
    7f0d:	72 72                	jb     7f81 <ICH7_8259_Slave_Handler_End+0x1088>
    7f0f:	75 70                	jne    7f81 <ICH7_8259_Slave_Handler_End+0x1088>
    7f11:	74 5f                	je     7f72 <ICH7_8259_Slave_Handler_End+0x1079>
    7f13:	48                   	dec    %eax
    7f14:	61                   	popa   
    7f15:	6e                   	outsb  %ds:(%esi),(%dx)
    7f16:	64                   	fs
    7f17:	6c                   	insb   (%dx),%es:(%edi)
    7f18:	65                   	gs
    7f19:	72 5f                	jb     7f7a <ICH7_8259_Slave_Handler_End+0x1081>
    7f1b:	31 34 37             	xor    %esi,(%edi,%esi,1)
    7f1e:	3a 0a                	cmp    (%edx),%cl
    7f20:	00 49 6e             	add    %cl,0x6e(%ecx)
    7f23:	74 65                	je     7f8a <ICH7_8259_Slave_Handler_End+0x1091>
    7f25:	72 72                	jb     7f99 <ICH7_8259_Slave_Handler_End+0x10a0>
    7f27:	75 70                	jne    7f99 <ICH7_8259_Slave_Handler_End+0x10a0>
    7f29:	74 5f                	je     7f8a <ICH7_8259_Slave_Handler_End+0x1091>
    7f2b:	48                   	dec    %eax
    7f2c:	61                   	popa   
    7f2d:	6e                   	outsb  %ds:(%esi),(%dx)
    7f2e:	64                   	fs
    7f2f:	6c                   	insb   (%dx),%es:(%edi)
    7f30:	65                   	gs
    7f31:	72 5f                	jb     7f92 <ICH7_8259_Slave_Handler_End+0x1099>
    7f33:	31 34 38             	xor    %esi,(%eax,%edi,1)
    7f36:	3a 0a                	cmp    (%edx),%cl
    7f38:	00 49 6e             	add    %cl,0x6e(%ecx)
    7f3b:	74 65                	je     7fa2 <ICH7_8259_Slave_Handler_End+0x10a9>
    7f3d:	72 72                	jb     7fb1 <ICH7_8259_Slave_Handler_End+0x10b8>
    7f3f:	75 70                	jne    7fb1 <ICH7_8259_Slave_Handler_End+0x10b8>
    7f41:	74 5f                	je     7fa2 <ICH7_8259_Slave_Handler_End+0x10a9>
    7f43:	48                   	dec    %eax
    7f44:	61                   	popa   
    7f45:	6e                   	outsb  %ds:(%esi),(%dx)
    7f46:	64                   	fs
    7f47:	6c                   	insb   (%dx),%es:(%edi)
    7f48:	65                   	gs
    7f49:	72 5f                	jb     7faa <ICH7_8259_Slave_Handler_End+0x10b1>
    7f4b:	31 34 39             	xor    %esi,(%ecx,%edi,1)
    7f4e:	3a 0a                	cmp    (%edx),%cl
    7f50:	00 49 6e             	add    %cl,0x6e(%ecx)
    7f53:	74 65                	je     7fba <ICH7_8259_Slave_Handler_End+0x10c1>
    7f55:	72 72                	jb     7fc9 <ICH7_8259_Slave_Handler_End+0x10d0>
    7f57:	75 70                	jne    7fc9 <ICH7_8259_Slave_Handler_End+0x10d0>
    7f59:	74 5f                	je     7fba <ICH7_8259_Slave_Handler_End+0x10c1>
    7f5b:	48                   	dec    %eax
    7f5c:	61                   	popa   
    7f5d:	6e                   	outsb  %ds:(%esi),(%dx)
    7f5e:	64                   	fs
    7f5f:	6c                   	insb   (%dx),%es:(%edi)
    7f60:	65                   	gs
    7f61:	72 5f                	jb     7fc2 <ICH7_8259_Slave_Handler_End+0x10c9>
    7f63:	31 35 30 3a 0a 00    	xor    %esi,0xa3a30
    7f69:	49                   	dec    %ecx
    7f6a:	6e                   	outsb  %ds:(%esi),(%dx)
    7f6b:	74 65                	je     7fd2 <ICH7_8259_Slave_Handler_End+0x10d9>
    7f6d:	72 72                	jb     7fe1 <ICH7_8259_Slave_Handler_End+0x10e8>
    7f6f:	75 70                	jne    7fe1 <ICH7_8259_Slave_Handler_End+0x10e8>
    7f71:	74 5f                	je     7fd2 <ICH7_8259_Slave_Handler_End+0x10d9>
    7f73:	48                   	dec    %eax
    7f74:	61                   	popa   
    7f75:	6e                   	outsb  %ds:(%esi),(%dx)
    7f76:	64                   	fs
    7f77:	6c                   	insb   (%dx),%es:(%edi)
    7f78:	65                   	gs
    7f79:	72 5f                	jb     7fda <ICH7_8259_Slave_Handler_End+0x10e1>
    7f7b:	31 35 31 3a 0a 00    	xor    %esi,0xa3a31
    7f81:	49                   	dec    %ecx
    7f82:	6e                   	outsb  %ds:(%esi),(%dx)
    7f83:	74 65                	je     7fea <ICH7_8259_Slave_Handler_End+0x10f1>
    7f85:	72 72                	jb     7ff9 <ICH7_8259_Slave_Handler_End+0x1100>
    7f87:	75 70                	jne    7ff9 <ICH7_8259_Slave_Handler_End+0x1100>
    7f89:	74 5f                	je     7fea <ICH7_8259_Slave_Handler_End+0x10f1>
    7f8b:	48                   	dec    %eax
    7f8c:	61                   	popa   
    7f8d:	6e                   	outsb  %ds:(%esi),(%dx)
    7f8e:	64                   	fs
    7f8f:	6c                   	insb   (%dx),%es:(%edi)
    7f90:	65                   	gs
    7f91:	72 5f                	jb     7ff2 <ICH7_8259_Slave_Handler_End+0x10f9>
    7f93:	31 35 32 3a 0a 00    	xor    %esi,0xa3a32
    7f99:	49                   	dec    %ecx
    7f9a:	6e                   	outsb  %ds:(%esi),(%dx)
    7f9b:	74 65                	je     8002 <ICH7_8259_Slave_Handler_End+0x1109>
    7f9d:	72 72                	jb     8011 <ICH7_8259_Slave_Handler_End+0x1118>
    7f9f:	75 70                	jne    8011 <ICH7_8259_Slave_Handler_End+0x1118>
    7fa1:	74 5f                	je     8002 <ICH7_8259_Slave_Handler_End+0x1109>
    7fa3:	48                   	dec    %eax
    7fa4:	61                   	popa   
    7fa5:	6e                   	outsb  %ds:(%esi),(%dx)
    7fa6:	64                   	fs
    7fa7:	6c                   	insb   (%dx),%es:(%edi)
    7fa8:	65                   	gs
    7fa9:	72 5f                	jb     800a <ICH7_8259_Slave_Handler_End+0x1111>
    7fab:	31 35 33 3a 0a 00    	xor    %esi,0xa3a33
    7fb1:	49                   	dec    %ecx
    7fb2:	6e                   	outsb  %ds:(%esi),(%dx)
    7fb3:	74 65                	je     801a <ICH7_8259_Slave_Handler_End+0x1121>
    7fb5:	72 72                	jb     8029 <ICH7_8259_Slave_Handler_End+0x1130>
    7fb7:	75 70                	jne    8029 <ICH7_8259_Slave_Handler_End+0x1130>
    7fb9:	74 5f                	je     801a <ICH7_8259_Slave_Handler_End+0x1121>
    7fbb:	48                   	dec    %eax
    7fbc:	61                   	popa   
    7fbd:	6e                   	outsb  %ds:(%esi),(%dx)
    7fbe:	64                   	fs
    7fbf:	6c                   	insb   (%dx),%es:(%edi)
    7fc0:	65                   	gs
    7fc1:	72 5f                	jb     8022 <ICH7_8259_Slave_Handler_End+0x1129>
    7fc3:	31 35 34 3a 0a 00    	xor    %esi,0xa3a34
    7fc9:	49                   	dec    %ecx
    7fca:	6e                   	outsb  %ds:(%esi),(%dx)
    7fcb:	74 65                	je     8032 <ICH7_8259_Slave_Handler_End+0x1139>
    7fcd:	72 72                	jb     8041 <ICH7_8259_Slave_Handler_End+0x1148>
    7fcf:	75 70                	jne    8041 <ICH7_8259_Slave_Handler_End+0x1148>
    7fd1:	74 5f                	je     8032 <ICH7_8259_Slave_Handler_End+0x1139>
    7fd3:	48                   	dec    %eax
    7fd4:	61                   	popa   
    7fd5:	6e                   	outsb  %ds:(%esi),(%dx)
    7fd6:	64                   	fs
    7fd7:	6c                   	insb   (%dx),%es:(%edi)
    7fd8:	65                   	gs
    7fd9:	72 5f                	jb     803a <ICH7_8259_Slave_Handler_End+0x1141>
    7fdb:	31 35 35 3a 0a 00    	xor    %esi,0xa3a35
    7fe1:	49                   	dec    %ecx
    7fe2:	6e                   	outsb  %ds:(%esi),(%dx)
    7fe3:	74 65                	je     804a <ICH7_8259_Slave_Handler_End+0x1151>
    7fe5:	72 72                	jb     8059 <ICH7_8259_Slave_Handler_End+0x1160>
    7fe7:	75 70                	jne    8059 <ICH7_8259_Slave_Handler_End+0x1160>
    7fe9:	74 5f                	je     804a <ICH7_8259_Slave_Handler_End+0x1151>
    7feb:	48                   	dec    %eax
    7fec:	61                   	popa   
    7fed:	6e                   	outsb  %ds:(%esi),(%dx)
    7fee:	64                   	fs
    7fef:	6c                   	insb   (%dx),%es:(%edi)
    7ff0:	65                   	gs
    7ff1:	72 5f                	jb     8052 <ICH7_8259_Slave_Handler_End+0x1159>
    7ff3:	31 35 36 3a 0a 00    	xor    %esi,0xa3a36
    7ff9:	49                   	dec    %ecx
    7ffa:	6e                   	outsb  %ds:(%esi),(%dx)
    7ffb:	74 65                	je     8062 <ICH7_8259_Slave_Handler_End+0x1169>
    7ffd:	72 72                	jb     8071 <ICH7_8259_Slave_Handler_End+0x1178>
    7fff:	75 70                	jne    8071 <ICH7_8259_Slave_Handler_End+0x1178>
    8001:	74 5f                	je     8062 <ICH7_8259_Slave_Handler_End+0x1169>
    8003:	48                   	dec    %eax
    8004:	61                   	popa   
    8005:	6e                   	outsb  %ds:(%esi),(%dx)
    8006:	64                   	fs
    8007:	6c                   	insb   (%dx),%es:(%edi)
    8008:	65                   	gs
    8009:	72 5f                	jb     806a <ICH7_8259_Slave_Handler_End+0x1171>
    800b:	31 35 37 3a 0a 00    	xor    %esi,0xa3a37
    8011:	49                   	dec    %ecx
    8012:	6e                   	outsb  %ds:(%esi),(%dx)
    8013:	74 65                	je     807a <ICH7_8259_Slave_Handler_End+0x1181>
    8015:	72 72                	jb     8089 <ICH7_8259_Slave_Handler_End+0x1190>
    8017:	75 70                	jne    8089 <ICH7_8259_Slave_Handler_End+0x1190>
    8019:	74 5f                	je     807a <ICH7_8259_Slave_Handler_End+0x1181>
    801b:	48                   	dec    %eax
    801c:	61                   	popa   
    801d:	6e                   	outsb  %ds:(%esi),(%dx)
    801e:	64                   	fs
    801f:	6c                   	insb   (%dx),%es:(%edi)
    8020:	65                   	gs
    8021:	72 5f                	jb     8082 <ICH7_8259_Slave_Handler_End+0x1189>
    8023:	31 35 38 3a 0a 00    	xor    %esi,0xa3a38
    8029:	49                   	dec    %ecx
    802a:	6e                   	outsb  %ds:(%esi),(%dx)
    802b:	74 65                	je     8092 <ICH7_8259_Slave_Handler_End+0x1199>
    802d:	72 72                	jb     80a1 <ICH7_8259_Slave_Handler_End+0x11a8>
    802f:	75 70                	jne    80a1 <ICH7_8259_Slave_Handler_End+0x11a8>
    8031:	74 5f                	je     8092 <ICH7_8259_Slave_Handler_End+0x1199>
    8033:	48                   	dec    %eax
    8034:	61                   	popa   
    8035:	6e                   	outsb  %ds:(%esi),(%dx)
    8036:	64                   	fs
    8037:	6c                   	insb   (%dx),%es:(%edi)
    8038:	65                   	gs
    8039:	72 5f                	jb     809a <ICH7_8259_Slave_Handler_End+0x11a1>
    803b:	31 35 39 3a 0a 00    	xor    %esi,0xa3a39
    8041:	49                   	dec    %ecx
    8042:	6e                   	outsb  %ds:(%esi),(%dx)
    8043:	74 65                	je     80aa <ICH7_8259_Slave_Handler_End+0x11b1>
    8045:	72 72                	jb     80b9 <ICH7_8259_Slave_Handler_End+0x11c0>
    8047:	75 70                	jne    80b9 <ICH7_8259_Slave_Handler_End+0x11c0>
    8049:	74 5f                	je     80aa <ICH7_8259_Slave_Handler_End+0x11b1>
    804b:	48                   	dec    %eax
    804c:	61                   	popa   
    804d:	6e                   	outsb  %ds:(%esi),(%dx)
    804e:	64                   	fs
    804f:	6c                   	insb   (%dx),%es:(%edi)
    8050:	65                   	gs
    8051:	72 5f                	jb     80b2 <ICH7_8259_Slave_Handler_End+0x11b9>
    8053:	31 36                	xor    %esi,(%esi)
    8055:	30 3a                	xor    %bh,(%edx)
    8057:	0a 00                	or     (%eax),%al
    8059:	49                   	dec    %ecx
    805a:	6e                   	outsb  %ds:(%esi),(%dx)
    805b:	74 65                	je     80c2 <ICH7_8259_Slave_Handler_End+0x11c9>
    805d:	72 72                	jb     80d1 <ICH7_8259_Slave_Handler_End+0x11d8>
    805f:	75 70                	jne    80d1 <ICH7_8259_Slave_Handler_End+0x11d8>
    8061:	74 5f                	je     80c2 <ICH7_8259_Slave_Handler_End+0x11c9>
    8063:	48                   	dec    %eax
    8064:	61                   	popa   
    8065:	6e                   	outsb  %ds:(%esi),(%dx)
    8066:	64                   	fs
    8067:	6c                   	insb   (%dx),%es:(%edi)
    8068:	65                   	gs
    8069:	72 5f                	jb     80ca <ICH7_8259_Slave_Handler_End+0x11d1>
    806b:	31 36                	xor    %esi,(%esi)
    806d:	31 3a                	xor    %edi,(%edx)
    806f:	0a 00                	or     (%eax),%al
    8071:	49                   	dec    %ecx
    8072:	6e                   	outsb  %ds:(%esi),(%dx)
    8073:	74 65                	je     80da <ICH7_8259_Slave_Handler_End+0x11e1>
    8075:	72 72                	jb     80e9 <ICH7_8259_Slave_Handler_End+0x11f0>
    8077:	75 70                	jne    80e9 <ICH7_8259_Slave_Handler_End+0x11f0>
    8079:	74 5f                	je     80da <ICH7_8259_Slave_Handler_End+0x11e1>
    807b:	48                   	dec    %eax
    807c:	61                   	popa   
    807d:	6e                   	outsb  %ds:(%esi),(%dx)
    807e:	64                   	fs
    807f:	6c                   	insb   (%dx),%es:(%edi)
    8080:	65                   	gs
    8081:	72 5f                	jb     80e2 <ICH7_8259_Slave_Handler_End+0x11e9>
    8083:	31 36                	xor    %esi,(%esi)
    8085:	32 3a                	xor    (%edx),%bh
    8087:	0a 00                	or     (%eax),%al
    8089:	49                   	dec    %ecx
    808a:	6e                   	outsb  %ds:(%esi),(%dx)
    808b:	74 65                	je     80f2 <ICH7_8259_Slave_Handler_End+0x11f9>
    808d:	72 72                	jb     8101 <ICH7_8259_Slave_Handler_End+0x1208>
    808f:	75 70                	jne    8101 <ICH7_8259_Slave_Handler_End+0x1208>
    8091:	74 5f                	je     80f2 <ICH7_8259_Slave_Handler_End+0x11f9>
    8093:	48                   	dec    %eax
    8094:	61                   	popa   
    8095:	6e                   	outsb  %ds:(%esi),(%dx)
    8096:	64                   	fs
    8097:	6c                   	insb   (%dx),%es:(%edi)
    8098:	65                   	gs
    8099:	72 5f                	jb     80fa <ICH7_8259_Slave_Handler_End+0x1201>
    809b:	31 36                	xor    %esi,(%esi)
    809d:	33 3a                	xor    (%edx),%edi
    809f:	0a 00                	or     (%eax),%al
    80a1:	49                   	dec    %ecx
    80a2:	6e                   	outsb  %ds:(%esi),(%dx)
    80a3:	74 65                	je     810a <ICH7_8259_Slave_Handler_End+0x1211>
    80a5:	72 72                	jb     8119 <ICH7_8259_Slave_Handler_End+0x1220>
    80a7:	75 70                	jne    8119 <ICH7_8259_Slave_Handler_End+0x1220>
    80a9:	74 5f                	je     810a <ICH7_8259_Slave_Handler_End+0x1211>
    80ab:	48                   	dec    %eax
    80ac:	61                   	popa   
    80ad:	6e                   	outsb  %ds:(%esi),(%dx)
    80ae:	64                   	fs
    80af:	6c                   	insb   (%dx),%es:(%edi)
    80b0:	65                   	gs
    80b1:	72 5f                	jb     8112 <ICH7_8259_Slave_Handler_End+0x1219>
    80b3:	31 36                	xor    %esi,(%esi)
    80b5:	34 3a                	xor    $0x3a,%al
    80b7:	0a 00                	or     (%eax),%al
    80b9:	49                   	dec    %ecx
    80ba:	6e                   	outsb  %ds:(%esi),(%dx)
    80bb:	74 65                	je     8122 <ICH7_8259_Slave_Handler_End+0x1229>
    80bd:	72 72                	jb     8131 <ICH7_8259_Slave_Handler_End+0x1238>
    80bf:	75 70                	jne    8131 <ICH7_8259_Slave_Handler_End+0x1238>
    80c1:	74 5f                	je     8122 <ICH7_8259_Slave_Handler_End+0x1229>
    80c3:	48                   	dec    %eax
    80c4:	61                   	popa   
    80c5:	6e                   	outsb  %ds:(%esi),(%dx)
    80c6:	64                   	fs
    80c7:	6c                   	insb   (%dx),%es:(%edi)
    80c8:	65                   	gs
    80c9:	72 5f                	jb     812a <ICH7_8259_Slave_Handler_End+0x1231>
    80cb:	31 36                	xor    %esi,(%esi)
    80cd:	35 3a 0a 00 49       	xor    $0x49000a3a,%eax
    80d2:	6e                   	outsb  %ds:(%esi),(%dx)
    80d3:	74 65                	je     813a <ICH7_8259_Slave_Handler_End+0x1241>
    80d5:	72 72                	jb     8149 <ICH7_8259_Slave_Handler_End+0x1250>
    80d7:	75 70                	jne    8149 <ICH7_8259_Slave_Handler_End+0x1250>
    80d9:	74 5f                	je     813a <ICH7_8259_Slave_Handler_End+0x1241>
    80db:	48                   	dec    %eax
    80dc:	61                   	popa   
    80dd:	6e                   	outsb  %ds:(%esi),(%dx)
    80de:	64                   	fs
    80df:	6c                   	insb   (%dx),%es:(%edi)
    80e0:	65                   	gs
    80e1:	72 5f                	jb     8142 <ICH7_8259_Slave_Handler_End+0x1249>
    80e3:	31 36                	xor    %esi,(%esi)
    80e5:	36 3a 0a             	cmp    %ss:(%edx),%cl
    80e8:	00 49 6e             	add    %cl,0x6e(%ecx)
    80eb:	74 65                	je     8152 <ICH7_8259_Slave_Handler_End+0x1259>
    80ed:	72 72                	jb     8161 <ICH7_8259_Slave_Handler_End+0x1268>
    80ef:	75 70                	jne    8161 <ICH7_8259_Slave_Handler_End+0x1268>
    80f1:	74 5f                	je     8152 <ICH7_8259_Slave_Handler_End+0x1259>
    80f3:	48                   	dec    %eax
    80f4:	61                   	popa   
    80f5:	6e                   	outsb  %ds:(%esi),(%dx)
    80f6:	64                   	fs
    80f7:	6c                   	insb   (%dx),%es:(%edi)
    80f8:	65                   	gs
    80f9:	72 5f                	jb     815a <ICH7_8259_Slave_Handler_End+0x1261>
    80fb:	31 36                	xor    %esi,(%esi)
    80fd:	37                   	aaa    
    80fe:	3a 0a                	cmp    (%edx),%cl
    8100:	00 49 6e             	add    %cl,0x6e(%ecx)
    8103:	74 65                	je     816a <ICH7_8259_Slave_Handler_End+0x1271>
    8105:	72 72                	jb     8179 <ICH7_8259_Slave_Handler_End+0x1280>
    8107:	75 70                	jne    8179 <ICH7_8259_Slave_Handler_End+0x1280>
    8109:	74 5f                	je     816a <ICH7_8259_Slave_Handler_End+0x1271>
    810b:	48                   	dec    %eax
    810c:	61                   	popa   
    810d:	6e                   	outsb  %ds:(%esi),(%dx)
    810e:	64                   	fs
    810f:	6c                   	insb   (%dx),%es:(%edi)
    8110:	65                   	gs
    8111:	72 5f                	jb     8172 <ICH7_8259_Slave_Handler_End+0x1279>
    8113:	31 36                	xor    %esi,(%esi)
    8115:	38 3a                	cmp    %bh,(%edx)
    8117:	0a 00                	or     (%eax),%al
    8119:	49                   	dec    %ecx
    811a:	6e                   	outsb  %ds:(%esi),(%dx)
    811b:	74 65                	je     8182 <ICH7_8259_Slave_Handler_End+0x1289>
    811d:	72 72                	jb     8191 <ICH7_8259_Slave_Handler_End+0x1298>
    811f:	75 70                	jne    8191 <ICH7_8259_Slave_Handler_End+0x1298>
    8121:	74 5f                	je     8182 <ICH7_8259_Slave_Handler_End+0x1289>
    8123:	48                   	dec    %eax
    8124:	61                   	popa   
    8125:	6e                   	outsb  %ds:(%esi),(%dx)
    8126:	64                   	fs
    8127:	6c                   	insb   (%dx),%es:(%edi)
    8128:	65                   	gs
    8129:	72 5f                	jb     818a <ICH7_8259_Slave_Handler_End+0x1291>
    812b:	31 36                	xor    %esi,(%esi)
    812d:	39 3a                	cmp    %edi,(%edx)
    812f:	0a 00                	or     (%eax),%al
    8131:	49                   	dec    %ecx
    8132:	6e                   	outsb  %ds:(%esi),(%dx)
    8133:	74 65                	je     819a <ICH7_8259_Slave_Handler_End+0x12a1>
    8135:	72 72                	jb     81a9 <ICH7_8259_Slave_Handler_End+0x12b0>
    8137:	75 70                	jne    81a9 <ICH7_8259_Slave_Handler_End+0x12b0>
    8139:	74 5f                	je     819a <ICH7_8259_Slave_Handler_End+0x12a1>
    813b:	48                   	dec    %eax
    813c:	61                   	popa   
    813d:	6e                   	outsb  %ds:(%esi),(%dx)
    813e:	64                   	fs
    813f:	6c                   	insb   (%dx),%es:(%edi)
    8140:	65                   	gs
    8141:	72 5f                	jb     81a2 <ICH7_8259_Slave_Handler_End+0x12a9>
    8143:	31 37                	xor    %esi,(%edi)
    8145:	30 3a                	xor    %bh,(%edx)
    8147:	0a 00                	or     (%eax),%al
    8149:	49                   	dec    %ecx
    814a:	6e                   	outsb  %ds:(%esi),(%dx)
    814b:	74 65                	je     81b2 <ICH7_8259_Slave_Handler_End+0x12b9>
    814d:	72 72                	jb     81c1 <ICH7_8259_Slave_Handler_End+0x12c8>
    814f:	75 70                	jne    81c1 <ICH7_8259_Slave_Handler_End+0x12c8>
    8151:	74 5f                	je     81b2 <ICH7_8259_Slave_Handler_End+0x12b9>
    8153:	48                   	dec    %eax
    8154:	61                   	popa   
    8155:	6e                   	outsb  %ds:(%esi),(%dx)
    8156:	64                   	fs
    8157:	6c                   	insb   (%dx),%es:(%edi)
    8158:	65                   	gs
    8159:	72 5f                	jb     81ba <ICH7_8259_Slave_Handler_End+0x12c1>
    815b:	31 37                	xor    %esi,(%edi)
    815d:	31 3a                	xor    %edi,(%edx)
    815f:	0a 00                	or     (%eax),%al
    8161:	49                   	dec    %ecx
    8162:	6e                   	outsb  %ds:(%esi),(%dx)
    8163:	74 65                	je     81ca <ICH7_8259_Slave_Handler_End+0x12d1>
    8165:	72 72                	jb     81d9 <ICH7_8259_Slave_Handler_End+0x12e0>
    8167:	75 70                	jne    81d9 <ICH7_8259_Slave_Handler_End+0x12e0>
    8169:	74 5f                	je     81ca <ICH7_8259_Slave_Handler_End+0x12d1>
    816b:	48                   	dec    %eax
    816c:	61                   	popa   
    816d:	6e                   	outsb  %ds:(%esi),(%dx)
    816e:	64                   	fs
    816f:	6c                   	insb   (%dx),%es:(%edi)
    8170:	65                   	gs
    8171:	72 5f                	jb     81d2 <ICH7_8259_Slave_Handler_End+0x12d9>
    8173:	31 37                	xor    %esi,(%edi)
    8175:	32 3a                	xor    (%edx),%bh
    8177:	0a 00                	or     (%eax),%al
    8179:	49                   	dec    %ecx
    817a:	6e                   	outsb  %ds:(%esi),(%dx)
    817b:	74 65                	je     81e2 <ICH7_8259_Slave_Handler_End+0x12e9>
    817d:	72 72                	jb     81f1 <ICH7_8259_Slave_Handler_End+0x12f8>
    817f:	75 70                	jne    81f1 <ICH7_8259_Slave_Handler_End+0x12f8>
    8181:	74 5f                	je     81e2 <ICH7_8259_Slave_Handler_End+0x12e9>
    8183:	48                   	dec    %eax
    8184:	61                   	popa   
    8185:	6e                   	outsb  %ds:(%esi),(%dx)
    8186:	64                   	fs
    8187:	6c                   	insb   (%dx),%es:(%edi)
    8188:	65                   	gs
    8189:	72 5f                	jb     81ea <ICH7_8259_Slave_Handler_End+0x12f1>
    818b:	31 37                	xor    %esi,(%edi)
    818d:	33 3a                	xor    (%edx),%edi
    818f:	0a 00                	or     (%eax),%al
    8191:	49                   	dec    %ecx
    8192:	6e                   	outsb  %ds:(%esi),(%dx)
    8193:	74 65                	je     81fa <ICH7_8259_Slave_Handler_End+0x1301>
    8195:	72 72                	jb     8209 <ICH7_8259_Slave_Handler_End+0x1310>
    8197:	75 70                	jne    8209 <ICH7_8259_Slave_Handler_End+0x1310>
    8199:	74 5f                	je     81fa <ICH7_8259_Slave_Handler_End+0x1301>
    819b:	48                   	dec    %eax
    819c:	61                   	popa   
    819d:	6e                   	outsb  %ds:(%esi),(%dx)
    819e:	64                   	fs
    819f:	6c                   	insb   (%dx),%es:(%edi)
    81a0:	65                   	gs
    81a1:	72 5f                	jb     8202 <ICH7_8259_Slave_Handler_End+0x1309>
    81a3:	31 37                	xor    %esi,(%edi)
    81a5:	34 3a                	xor    $0x3a,%al
    81a7:	0a 00                	or     (%eax),%al
    81a9:	49                   	dec    %ecx
    81aa:	6e                   	outsb  %ds:(%esi),(%dx)
    81ab:	74 65                	je     8212 <ICH7_8259_Slave_Handler_End+0x1319>
    81ad:	72 72                	jb     8221 <ICH7_8259_Slave_Handler_End+0x1328>
    81af:	75 70                	jne    8221 <ICH7_8259_Slave_Handler_End+0x1328>
    81b1:	74 5f                	je     8212 <ICH7_8259_Slave_Handler_End+0x1319>
    81b3:	48                   	dec    %eax
    81b4:	61                   	popa   
    81b5:	6e                   	outsb  %ds:(%esi),(%dx)
    81b6:	64                   	fs
    81b7:	6c                   	insb   (%dx),%es:(%edi)
    81b8:	65                   	gs
    81b9:	72 5f                	jb     821a <ICH7_8259_Slave_Handler_End+0x1321>
    81bb:	31 37                	xor    %esi,(%edi)
    81bd:	35 3a 0a 00 49       	xor    $0x49000a3a,%eax
    81c2:	6e                   	outsb  %ds:(%esi),(%dx)
    81c3:	74 65                	je     822a <ICH7_8259_Slave_Handler_End+0x1331>
    81c5:	72 72                	jb     8239 <ICH7_8259_Slave_Handler_End+0x1340>
    81c7:	75 70                	jne    8239 <ICH7_8259_Slave_Handler_End+0x1340>
    81c9:	74 5f                	je     822a <ICH7_8259_Slave_Handler_End+0x1331>
    81cb:	48                   	dec    %eax
    81cc:	61                   	popa   
    81cd:	6e                   	outsb  %ds:(%esi),(%dx)
    81ce:	64                   	fs
    81cf:	6c                   	insb   (%dx),%es:(%edi)
    81d0:	65                   	gs
    81d1:	72 5f                	jb     8232 <ICH7_8259_Slave_Handler_End+0x1339>
    81d3:	31 37                	xor    %esi,(%edi)
    81d5:	36 3a 0a             	cmp    %ss:(%edx),%cl
    81d8:	00 49 6e             	add    %cl,0x6e(%ecx)
    81db:	74 65                	je     8242 <ICH7_8259_Slave_Handler_End+0x1349>
    81dd:	72 72                	jb     8251 <ICH7_8259_Slave_Handler_End+0x1358>
    81df:	75 70                	jne    8251 <ICH7_8259_Slave_Handler_End+0x1358>
    81e1:	74 5f                	je     8242 <ICH7_8259_Slave_Handler_End+0x1349>
    81e3:	48                   	dec    %eax
    81e4:	61                   	popa   
    81e5:	6e                   	outsb  %ds:(%esi),(%dx)
    81e6:	64                   	fs
    81e7:	6c                   	insb   (%dx),%es:(%edi)
    81e8:	65                   	gs
    81e9:	72 5f                	jb     824a <ICH7_8259_Slave_Handler_End+0x1351>
    81eb:	31 37                	xor    %esi,(%edi)
    81ed:	37                   	aaa    
    81ee:	3a 0a                	cmp    (%edx),%cl
    81f0:	00 49 6e             	add    %cl,0x6e(%ecx)
    81f3:	74 65                	je     825a <ICH7_8259_Slave_Handler_End+0x1361>
    81f5:	72 72                	jb     8269 <ICH7_8259_Slave_Handler_End+0x1370>
    81f7:	75 70                	jne    8269 <ICH7_8259_Slave_Handler_End+0x1370>
    81f9:	74 5f                	je     825a <ICH7_8259_Slave_Handler_End+0x1361>
    81fb:	48                   	dec    %eax
    81fc:	61                   	popa   
    81fd:	6e                   	outsb  %ds:(%esi),(%dx)
    81fe:	64                   	fs
    81ff:	6c                   	insb   (%dx),%es:(%edi)
    8200:	65                   	gs
    8201:	72 5f                	jb     8262 <ICH7_8259_Slave_Handler_End+0x1369>
    8203:	31 37                	xor    %esi,(%edi)
    8205:	38 3a                	cmp    %bh,(%edx)
    8207:	0a 00                	or     (%eax),%al
    8209:	49                   	dec    %ecx
    820a:	6e                   	outsb  %ds:(%esi),(%dx)
    820b:	74 65                	je     8272 <ICH7_8259_Slave_Handler_End+0x1379>
    820d:	72 72                	jb     8281 <ICH7_8259_Slave_Handler_End+0x1388>
    820f:	75 70                	jne    8281 <ICH7_8259_Slave_Handler_End+0x1388>
    8211:	74 5f                	je     8272 <ICH7_8259_Slave_Handler_End+0x1379>
    8213:	48                   	dec    %eax
    8214:	61                   	popa   
    8215:	6e                   	outsb  %ds:(%esi),(%dx)
    8216:	64                   	fs
    8217:	6c                   	insb   (%dx),%es:(%edi)
    8218:	65                   	gs
    8219:	72 5f                	jb     827a <ICH7_8259_Slave_Handler_End+0x1381>
    821b:	31 37                	xor    %esi,(%edi)
    821d:	39 3a                	cmp    %edi,(%edx)
    821f:	0a 00                	or     (%eax),%al
    8221:	49                   	dec    %ecx
    8222:	6e                   	outsb  %ds:(%esi),(%dx)
    8223:	74 65                	je     828a <ICH7_8259_Slave_Handler_End+0x1391>
    8225:	72 72                	jb     8299 <ICH7_8259_Slave_Handler_End+0x13a0>
    8227:	75 70                	jne    8299 <ICH7_8259_Slave_Handler_End+0x13a0>
    8229:	74 5f                	je     828a <ICH7_8259_Slave_Handler_End+0x1391>
    822b:	48                   	dec    %eax
    822c:	61                   	popa   
    822d:	6e                   	outsb  %ds:(%esi),(%dx)
    822e:	64                   	fs
    822f:	6c                   	insb   (%dx),%es:(%edi)
    8230:	65                   	gs
    8231:	72 5f                	jb     8292 <ICH7_8259_Slave_Handler_End+0x1399>
    8233:	31 38                	xor    %edi,(%eax)
    8235:	30 3a                	xor    %bh,(%edx)
    8237:	0a 00                	or     (%eax),%al
    8239:	49                   	dec    %ecx
    823a:	6e                   	outsb  %ds:(%esi),(%dx)
    823b:	74 65                	je     82a2 <ICH7_8259_Slave_Handler_End+0x13a9>
    823d:	72 72                	jb     82b1 <ICH7_8259_Slave_Handler_End+0x13b8>
    823f:	75 70                	jne    82b1 <ICH7_8259_Slave_Handler_End+0x13b8>
    8241:	74 5f                	je     82a2 <ICH7_8259_Slave_Handler_End+0x13a9>
    8243:	48                   	dec    %eax
    8244:	61                   	popa   
    8245:	6e                   	outsb  %ds:(%esi),(%dx)
    8246:	64                   	fs
    8247:	6c                   	insb   (%dx),%es:(%edi)
    8248:	65                   	gs
    8249:	72 5f                	jb     82aa <ICH7_8259_Slave_Handler_End+0x13b1>
    824b:	31 38                	xor    %edi,(%eax)
    824d:	31 3a                	xor    %edi,(%edx)
    824f:	0a 00                	or     (%eax),%al
    8251:	49                   	dec    %ecx
    8252:	6e                   	outsb  %ds:(%esi),(%dx)
    8253:	74 65                	je     82ba <ICH7_8259_Slave_Handler_End+0x13c1>
    8255:	72 72                	jb     82c9 <ICH7_8259_Slave_Handler_End+0x13d0>
    8257:	75 70                	jne    82c9 <ICH7_8259_Slave_Handler_End+0x13d0>
    8259:	74 5f                	je     82ba <ICH7_8259_Slave_Handler_End+0x13c1>
    825b:	48                   	dec    %eax
    825c:	61                   	popa   
    825d:	6e                   	outsb  %ds:(%esi),(%dx)
    825e:	64                   	fs
    825f:	6c                   	insb   (%dx),%es:(%edi)
    8260:	65                   	gs
    8261:	72 5f                	jb     82c2 <ICH7_8259_Slave_Handler_End+0x13c9>
    8263:	31 38                	xor    %edi,(%eax)
    8265:	32 3a                	xor    (%edx),%bh
    8267:	0a 00                	or     (%eax),%al
    8269:	49                   	dec    %ecx
    826a:	6e                   	outsb  %ds:(%esi),(%dx)
    826b:	74 65                	je     82d2 <ICH7_8259_Slave_Handler_End+0x13d9>
    826d:	72 72                	jb     82e1 <ICH7_8259_Slave_Handler_End+0x13e8>
    826f:	75 70                	jne    82e1 <ICH7_8259_Slave_Handler_End+0x13e8>
    8271:	74 5f                	je     82d2 <ICH7_8259_Slave_Handler_End+0x13d9>
    8273:	48                   	dec    %eax
    8274:	61                   	popa   
    8275:	6e                   	outsb  %ds:(%esi),(%dx)
    8276:	64                   	fs
    8277:	6c                   	insb   (%dx),%es:(%edi)
    8278:	65                   	gs
    8279:	72 5f                	jb     82da <ICH7_8259_Slave_Handler_End+0x13e1>
    827b:	31 38                	xor    %edi,(%eax)
    827d:	33 3a                	xor    (%edx),%edi
    827f:	0a 00                	or     (%eax),%al
    8281:	49                   	dec    %ecx
    8282:	6e                   	outsb  %ds:(%esi),(%dx)
    8283:	74 65                	je     82ea <ICH7_8259_Slave_Handler_End+0x13f1>
    8285:	72 72                	jb     82f9 <ICH7_8259_Slave_Handler_End+0x1400>
    8287:	75 70                	jne    82f9 <ICH7_8259_Slave_Handler_End+0x1400>
    8289:	74 5f                	je     82ea <ICH7_8259_Slave_Handler_End+0x13f1>
    828b:	48                   	dec    %eax
    828c:	61                   	popa   
    828d:	6e                   	outsb  %ds:(%esi),(%dx)
    828e:	64                   	fs
    828f:	6c                   	insb   (%dx),%es:(%edi)
    8290:	65                   	gs
    8291:	72 5f                	jb     82f2 <ICH7_8259_Slave_Handler_End+0x13f9>
    8293:	31 38                	xor    %edi,(%eax)
    8295:	34 3a                	xor    $0x3a,%al
    8297:	0a 00                	or     (%eax),%al
    8299:	49                   	dec    %ecx
    829a:	6e                   	outsb  %ds:(%esi),(%dx)
    829b:	74 65                	je     8302 <ICH7_8259_Slave_Handler_End+0x1409>
    829d:	72 72                	jb     8311 <ICH7_8259_Slave_Handler_End+0x1418>
    829f:	75 70                	jne    8311 <ICH7_8259_Slave_Handler_End+0x1418>
    82a1:	74 5f                	je     8302 <ICH7_8259_Slave_Handler_End+0x1409>
    82a3:	48                   	dec    %eax
    82a4:	61                   	popa   
    82a5:	6e                   	outsb  %ds:(%esi),(%dx)
    82a6:	64                   	fs
    82a7:	6c                   	insb   (%dx),%es:(%edi)
    82a8:	65                   	gs
    82a9:	72 5f                	jb     830a <ICH7_8259_Slave_Handler_End+0x1411>
    82ab:	31 38                	xor    %edi,(%eax)
    82ad:	35 3a 0a 00 49       	xor    $0x49000a3a,%eax
    82b2:	6e                   	outsb  %ds:(%esi),(%dx)
    82b3:	74 65                	je     831a <ICH7_8259_Slave_Handler_End+0x1421>
    82b5:	72 72                	jb     8329 <ICH7_8259_Slave_Handler_End+0x1430>
    82b7:	75 70                	jne    8329 <ICH7_8259_Slave_Handler_End+0x1430>
    82b9:	74 5f                	je     831a <ICH7_8259_Slave_Handler_End+0x1421>
    82bb:	48                   	dec    %eax
    82bc:	61                   	popa   
    82bd:	6e                   	outsb  %ds:(%esi),(%dx)
    82be:	64                   	fs
    82bf:	6c                   	insb   (%dx),%es:(%edi)
    82c0:	65                   	gs
    82c1:	72 5f                	jb     8322 <ICH7_8259_Slave_Handler_End+0x1429>
    82c3:	31 38                	xor    %edi,(%eax)
    82c5:	36 3a 0a             	cmp    %ss:(%edx),%cl
    82c8:	00 49 6e             	add    %cl,0x6e(%ecx)
    82cb:	74 65                	je     8332 <ICH7_8259_Slave_Handler_End+0x1439>
    82cd:	72 72                	jb     8341 <ICH7_8259_Slave_Handler_End+0x1448>
    82cf:	75 70                	jne    8341 <ICH7_8259_Slave_Handler_End+0x1448>
    82d1:	74 5f                	je     8332 <ICH7_8259_Slave_Handler_End+0x1439>
    82d3:	48                   	dec    %eax
    82d4:	61                   	popa   
    82d5:	6e                   	outsb  %ds:(%esi),(%dx)
    82d6:	64                   	fs
    82d7:	6c                   	insb   (%dx),%es:(%edi)
    82d8:	65                   	gs
    82d9:	72 5f                	jb     833a <ICH7_8259_Slave_Handler_End+0x1441>
    82db:	31 38                	xor    %edi,(%eax)
    82dd:	37                   	aaa    
    82de:	3a 0a                	cmp    (%edx),%cl
    82e0:	00 49 6e             	add    %cl,0x6e(%ecx)
    82e3:	74 65                	je     834a <ICH7_8259_Slave_Handler_End+0x1451>
    82e5:	72 72                	jb     8359 <ICH7_8259_Slave_Handler_End+0x1460>
    82e7:	75 70                	jne    8359 <ICH7_8259_Slave_Handler_End+0x1460>
    82e9:	74 5f                	je     834a <ICH7_8259_Slave_Handler_End+0x1451>
    82eb:	48                   	dec    %eax
    82ec:	61                   	popa   
    82ed:	6e                   	outsb  %ds:(%esi),(%dx)
    82ee:	64                   	fs
    82ef:	6c                   	insb   (%dx),%es:(%edi)
    82f0:	65                   	gs
    82f1:	72 5f                	jb     8352 <ICH7_8259_Slave_Handler_End+0x1459>
    82f3:	31 38                	xor    %edi,(%eax)
    82f5:	38 3a                	cmp    %bh,(%edx)
    82f7:	0a 00                	or     (%eax),%al
    82f9:	49                   	dec    %ecx
    82fa:	6e                   	outsb  %ds:(%esi),(%dx)
    82fb:	74 65                	je     8362 <ICH7_8259_Slave_Handler_End+0x1469>
    82fd:	72 72                	jb     8371 <ICH7_8259_Slave_Handler_End+0x1478>
    82ff:	75 70                	jne    8371 <ICH7_8259_Slave_Handler_End+0x1478>
    8301:	74 5f                	je     8362 <ICH7_8259_Slave_Handler_End+0x1469>
    8303:	48                   	dec    %eax
    8304:	61                   	popa   
    8305:	6e                   	outsb  %ds:(%esi),(%dx)
    8306:	64                   	fs
    8307:	6c                   	insb   (%dx),%es:(%edi)
    8308:	65                   	gs
    8309:	72 5f                	jb     836a <ICH7_8259_Slave_Handler_End+0x1471>
    830b:	31 38                	xor    %edi,(%eax)
    830d:	39 3a                	cmp    %edi,(%edx)
    830f:	0a 00                	or     (%eax),%al
    8311:	49                   	dec    %ecx
    8312:	6e                   	outsb  %ds:(%esi),(%dx)
    8313:	74 65                	je     837a <ICH7_8259_Slave_Handler_End+0x1481>
    8315:	72 72                	jb     8389 <ICH7_8259_Slave_Handler_End+0x1490>
    8317:	75 70                	jne    8389 <ICH7_8259_Slave_Handler_End+0x1490>
    8319:	74 5f                	je     837a <ICH7_8259_Slave_Handler_End+0x1481>
    831b:	48                   	dec    %eax
    831c:	61                   	popa   
    831d:	6e                   	outsb  %ds:(%esi),(%dx)
    831e:	64                   	fs
    831f:	6c                   	insb   (%dx),%es:(%edi)
    8320:	65                   	gs
    8321:	72 5f                	jb     8382 <ICH7_8259_Slave_Handler_End+0x1489>
    8323:	31 39                	xor    %edi,(%ecx)
    8325:	30 3a                	xor    %bh,(%edx)
    8327:	0a 00                	or     (%eax),%al
    8329:	49                   	dec    %ecx
    832a:	6e                   	outsb  %ds:(%esi),(%dx)
    832b:	74 65                	je     8392 <ICH7_8259_Slave_Handler_End+0x1499>
    832d:	72 72                	jb     83a1 <ICH7_8259_Slave_Handler_End+0x14a8>
    832f:	75 70                	jne    83a1 <ICH7_8259_Slave_Handler_End+0x14a8>
    8331:	74 5f                	je     8392 <ICH7_8259_Slave_Handler_End+0x1499>
    8333:	48                   	dec    %eax
    8334:	61                   	popa   
    8335:	6e                   	outsb  %ds:(%esi),(%dx)
    8336:	64                   	fs
    8337:	6c                   	insb   (%dx),%es:(%edi)
    8338:	65                   	gs
    8339:	72 5f                	jb     839a <ICH7_8259_Slave_Handler_End+0x14a1>
    833b:	31 39                	xor    %edi,(%ecx)
    833d:	31 3a                	xor    %edi,(%edx)
    833f:	0a 00                	or     (%eax),%al
    8341:	49                   	dec    %ecx
    8342:	6e                   	outsb  %ds:(%esi),(%dx)
    8343:	74 65                	je     83aa <ICH7_8259_Slave_Handler_End+0x14b1>
    8345:	72 72                	jb     83b9 <ICH7_8259_Slave_Handler_End+0x14c0>
    8347:	75 70                	jne    83b9 <ICH7_8259_Slave_Handler_End+0x14c0>
    8349:	74 5f                	je     83aa <ICH7_8259_Slave_Handler_End+0x14b1>
    834b:	48                   	dec    %eax
    834c:	61                   	popa   
    834d:	6e                   	outsb  %ds:(%esi),(%dx)
    834e:	64                   	fs
    834f:	6c                   	insb   (%dx),%es:(%edi)
    8350:	65                   	gs
    8351:	72 5f                	jb     83b2 <ICH7_8259_Slave_Handler_End+0x14b9>
    8353:	31 39                	xor    %edi,(%ecx)
    8355:	32 3a                	xor    (%edx),%bh
    8357:	0a 00                	or     (%eax),%al
    8359:	49                   	dec    %ecx
    835a:	6e                   	outsb  %ds:(%esi),(%dx)
    835b:	74 65                	je     83c2 <ICH7_8259_Slave_Handler_End+0x14c9>
    835d:	72 72                	jb     83d1 <ICH7_8259_Slave_Handler_End+0x14d8>
    835f:	75 70                	jne    83d1 <ICH7_8259_Slave_Handler_End+0x14d8>
    8361:	74 5f                	je     83c2 <ICH7_8259_Slave_Handler_End+0x14c9>
    8363:	48                   	dec    %eax
    8364:	61                   	popa   
    8365:	6e                   	outsb  %ds:(%esi),(%dx)
    8366:	64                   	fs
    8367:	6c                   	insb   (%dx),%es:(%edi)
    8368:	65                   	gs
    8369:	72 5f                	jb     83ca <ICH7_8259_Slave_Handler_End+0x14d1>
    836b:	31 39                	xor    %edi,(%ecx)
    836d:	33 3a                	xor    (%edx),%edi
    836f:	0a 00                	or     (%eax),%al
    8371:	49                   	dec    %ecx
    8372:	6e                   	outsb  %ds:(%esi),(%dx)
    8373:	74 65                	je     83da <ICH7_8259_Slave_Handler_End+0x14e1>
    8375:	72 72                	jb     83e9 <ICH7_8259_Slave_Handler_End+0x14f0>
    8377:	75 70                	jne    83e9 <ICH7_8259_Slave_Handler_End+0x14f0>
    8379:	74 5f                	je     83da <ICH7_8259_Slave_Handler_End+0x14e1>
    837b:	48                   	dec    %eax
    837c:	61                   	popa   
    837d:	6e                   	outsb  %ds:(%esi),(%dx)
    837e:	64                   	fs
    837f:	6c                   	insb   (%dx),%es:(%edi)
    8380:	65                   	gs
    8381:	72 5f                	jb     83e2 <ICH7_8259_Slave_Handler_End+0x14e9>
    8383:	31 39                	xor    %edi,(%ecx)
    8385:	34 3a                	xor    $0x3a,%al
    8387:	0a 00                	or     (%eax),%al
    8389:	49                   	dec    %ecx
    838a:	6e                   	outsb  %ds:(%esi),(%dx)
    838b:	74 65                	je     83f2 <ICH7_8259_Slave_Handler_End+0x14f9>
    838d:	72 72                	jb     8401 <ICH7_8259_Slave_Handler_End+0x1508>
    838f:	75 70                	jne    8401 <ICH7_8259_Slave_Handler_End+0x1508>
    8391:	74 5f                	je     83f2 <ICH7_8259_Slave_Handler_End+0x14f9>
    8393:	48                   	dec    %eax
    8394:	61                   	popa   
    8395:	6e                   	outsb  %ds:(%esi),(%dx)
    8396:	64                   	fs
    8397:	6c                   	insb   (%dx),%es:(%edi)
    8398:	65                   	gs
    8399:	72 5f                	jb     83fa <ICH7_8259_Slave_Handler_End+0x1501>
    839b:	31 39                	xor    %edi,(%ecx)
    839d:	35 3a 0a 00 49       	xor    $0x49000a3a,%eax
    83a2:	6e                   	outsb  %ds:(%esi),(%dx)
    83a3:	74 65                	je     840a <ICH7_8259_Slave_Handler_End+0x1511>
    83a5:	72 72                	jb     8419 <ICH7_8259_Slave_Handler_End+0x1520>
    83a7:	75 70                	jne    8419 <ICH7_8259_Slave_Handler_End+0x1520>
    83a9:	74 5f                	je     840a <ICH7_8259_Slave_Handler_End+0x1511>
    83ab:	48                   	dec    %eax
    83ac:	61                   	popa   
    83ad:	6e                   	outsb  %ds:(%esi),(%dx)
    83ae:	64                   	fs
    83af:	6c                   	insb   (%dx),%es:(%edi)
    83b0:	65                   	gs
    83b1:	72 5f                	jb     8412 <ICH7_8259_Slave_Handler_End+0x1519>
    83b3:	31 39                	xor    %edi,(%ecx)
    83b5:	36 3a 0a             	cmp    %ss:(%edx),%cl
    83b8:	00 49 6e             	add    %cl,0x6e(%ecx)
    83bb:	74 65                	je     8422 <ICH7_8259_Slave_Handler_End+0x1529>
    83bd:	72 72                	jb     8431 <ICH7_8259_Slave_Handler_End+0x1538>
    83bf:	75 70                	jne    8431 <ICH7_8259_Slave_Handler_End+0x1538>
    83c1:	74 5f                	je     8422 <ICH7_8259_Slave_Handler_End+0x1529>
    83c3:	48                   	dec    %eax
    83c4:	61                   	popa   
    83c5:	6e                   	outsb  %ds:(%esi),(%dx)
    83c6:	64                   	fs
    83c7:	6c                   	insb   (%dx),%es:(%edi)
    83c8:	65                   	gs
    83c9:	72 5f                	jb     842a <ICH7_8259_Slave_Handler_End+0x1531>
    83cb:	31 39                	xor    %edi,(%ecx)
    83cd:	37                   	aaa    
    83ce:	3a 0a                	cmp    (%edx),%cl
    83d0:	00 49 6e             	add    %cl,0x6e(%ecx)
    83d3:	74 65                	je     843a <ICH7_8259_Slave_Handler_End+0x1541>
    83d5:	72 72                	jb     8449 <ICH7_8259_Slave_Handler_End+0x1550>
    83d7:	75 70                	jne    8449 <ICH7_8259_Slave_Handler_End+0x1550>
    83d9:	74 5f                	je     843a <ICH7_8259_Slave_Handler_End+0x1541>
    83db:	48                   	dec    %eax
    83dc:	61                   	popa   
    83dd:	6e                   	outsb  %ds:(%esi),(%dx)
    83de:	64                   	fs
    83df:	6c                   	insb   (%dx),%es:(%edi)
    83e0:	65                   	gs
    83e1:	72 5f                	jb     8442 <ICH7_8259_Slave_Handler_End+0x1549>
    83e3:	31 39                	xor    %edi,(%ecx)
    83e5:	38 3a                	cmp    %bh,(%edx)
    83e7:	0a 00                	or     (%eax),%al
    83e9:	49                   	dec    %ecx
    83ea:	6e                   	outsb  %ds:(%esi),(%dx)
    83eb:	74 65                	je     8452 <ICH7_8259_Slave_Handler_End+0x1559>
    83ed:	72 72                	jb     8461 <ICH7_8259_Slave_Handler_End+0x1568>
    83ef:	75 70                	jne    8461 <ICH7_8259_Slave_Handler_End+0x1568>
    83f1:	74 5f                	je     8452 <ICH7_8259_Slave_Handler_End+0x1559>
    83f3:	48                   	dec    %eax
    83f4:	61                   	popa   
    83f5:	6e                   	outsb  %ds:(%esi),(%dx)
    83f6:	64                   	fs
    83f7:	6c                   	insb   (%dx),%es:(%edi)
    83f8:	65                   	gs
    83f9:	72 5f                	jb     845a <ICH7_8259_Slave_Handler_End+0x1561>
    83fb:	31 39                	xor    %edi,(%ecx)
    83fd:	39 3a                	cmp    %edi,(%edx)
    83ff:	0a 00                	or     (%eax),%al
    8401:	49                   	dec    %ecx
    8402:	6e                   	outsb  %ds:(%esi),(%dx)
    8403:	74 65                	je     846a <ICH7_8259_Slave_Handler_End+0x1571>
    8405:	72 72                	jb     8479 <ICH7_8259_Slave_Handler_End+0x1580>
    8407:	75 70                	jne    8479 <ICH7_8259_Slave_Handler_End+0x1580>
    8409:	74 5f                	je     846a <ICH7_8259_Slave_Handler_End+0x1571>
    840b:	48                   	dec    %eax
    840c:	61                   	popa   
    840d:	6e                   	outsb  %ds:(%esi),(%dx)
    840e:	64                   	fs
    840f:	6c                   	insb   (%dx),%es:(%edi)
    8410:	65                   	gs
    8411:	72 5f                	jb     8472 <ICH7_8259_Slave_Handler_End+0x1579>
    8413:	32 30                	xor    (%eax),%dh
    8415:	30 3a                	xor    %bh,(%edx)
    8417:	0a 00                	or     (%eax),%al
    8419:	49                   	dec    %ecx
    841a:	6e                   	outsb  %ds:(%esi),(%dx)
    841b:	74 65                	je     8482 <ICH7_8259_Slave_Handler_End+0x1589>
    841d:	72 72                	jb     8491 <ICH7_8259_Slave_Handler_End+0x1598>
    841f:	75 70                	jne    8491 <ICH7_8259_Slave_Handler_End+0x1598>
    8421:	74 5f                	je     8482 <ICH7_8259_Slave_Handler_End+0x1589>
    8423:	48                   	dec    %eax
    8424:	61                   	popa   
    8425:	6e                   	outsb  %ds:(%esi),(%dx)
    8426:	64                   	fs
    8427:	6c                   	insb   (%dx),%es:(%edi)
    8428:	65                   	gs
    8429:	72 5f                	jb     848a <ICH7_8259_Slave_Handler_End+0x1591>
    842b:	32 30                	xor    (%eax),%dh
    842d:	31 3a                	xor    %edi,(%edx)
    842f:	0a 00                	or     (%eax),%al
    8431:	49                   	dec    %ecx
    8432:	6e                   	outsb  %ds:(%esi),(%dx)
    8433:	74 65                	je     849a <ICH7_8259_Slave_Handler_End+0x15a1>
    8435:	72 72                	jb     84a9 <ICH7_8259_Slave_Handler_End+0x15b0>
    8437:	75 70                	jne    84a9 <ICH7_8259_Slave_Handler_End+0x15b0>
    8439:	74 5f                	je     849a <ICH7_8259_Slave_Handler_End+0x15a1>
    843b:	48                   	dec    %eax
    843c:	61                   	popa   
    843d:	6e                   	outsb  %ds:(%esi),(%dx)
    843e:	64                   	fs
    843f:	6c                   	insb   (%dx),%es:(%edi)
    8440:	65                   	gs
    8441:	72 5f                	jb     84a2 <ICH7_8259_Slave_Handler_End+0x15a9>
    8443:	32 30                	xor    (%eax),%dh
    8445:	32 3a                	xor    (%edx),%bh
    8447:	0a 00                	or     (%eax),%al
    8449:	49                   	dec    %ecx
    844a:	6e                   	outsb  %ds:(%esi),(%dx)
    844b:	74 65                	je     84b2 <ICH7_8259_Slave_Handler_End+0x15b9>
    844d:	72 72                	jb     84c1 <ICH7_8259_Slave_Handler_End+0x15c8>
    844f:	75 70                	jne    84c1 <ICH7_8259_Slave_Handler_End+0x15c8>
    8451:	74 5f                	je     84b2 <ICH7_8259_Slave_Handler_End+0x15b9>
    8453:	48                   	dec    %eax
    8454:	61                   	popa   
    8455:	6e                   	outsb  %ds:(%esi),(%dx)
    8456:	64                   	fs
    8457:	6c                   	insb   (%dx),%es:(%edi)
    8458:	65                   	gs
    8459:	72 5f                	jb     84ba <ICH7_8259_Slave_Handler_End+0x15c1>
    845b:	32 30                	xor    (%eax),%dh
    845d:	33 3a                	xor    (%edx),%edi
    845f:	0a 00                	or     (%eax),%al
    8461:	49                   	dec    %ecx
    8462:	6e                   	outsb  %ds:(%esi),(%dx)
    8463:	74 65                	je     84ca <ICH7_8259_Slave_Handler_End+0x15d1>
    8465:	72 72                	jb     84d9 <ICH7_8259_Slave_Handler_End+0x15e0>
    8467:	75 70                	jne    84d9 <ICH7_8259_Slave_Handler_End+0x15e0>
    8469:	74 5f                	je     84ca <ICH7_8259_Slave_Handler_End+0x15d1>
    846b:	48                   	dec    %eax
    846c:	61                   	popa   
    846d:	6e                   	outsb  %ds:(%esi),(%dx)
    846e:	64                   	fs
    846f:	6c                   	insb   (%dx),%es:(%edi)
    8470:	65                   	gs
    8471:	72 5f                	jb     84d2 <ICH7_8259_Slave_Handler_End+0x15d9>
    8473:	32 30                	xor    (%eax),%dh
    8475:	34 3a                	xor    $0x3a,%al
    8477:	0a 00                	or     (%eax),%al
    8479:	49                   	dec    %ecx
    847a:	6e                   	outsb  %ds:(%esi),(%dx)
    847b:	74 65                	je     84e2 <ICH7_8259_Slave_Handler_End+0x15e9>
    847d:	72 72                	jb     84f1 <ICH7_8259_Slave_Handler_End+0x15f8>
    847f:	75 70                	jne    84f1 <ICH7_8259_Slave_Handler_End+0x15f8>
    8481:	74 5f                	je     84e2 <ICH7_8259_Slave_Handler_End+0x15e9>
    8483:	48                   	dec    %eax
    8484:	61                   	popa   
    8485:	6e                   	outsb  %ds:(%esi),(%dx)
    8486:	64                   	fs
    8487:	6c                   	insb   (%dx),%es:(%edi)
    8488:	65                   	gs
    8489:	72 5f                	jb     84ea <ICH7_8259_Slave_Handler_End+0x15f1>
    848b:	32 30                	xor    (%eax),%dh
    848d:	35 3a 0a 00 49       	xor    $0x49000a3a,%eax
    8492:	6e                   	outsb  %ds:(%esi),(%dx)
    8493:	74 65                	je     84fa <ICH7_8259_Slave_Handler_End+0x1601>
    8495:	72 72                	jb     8509 <ICH7_8259_Slave_Handler_End+0x1610>
    8497:	75 70                	jne    8509 <ICH7_8259_Slave_Handler_End+0x1610>
    8499:	74 5f                	je     84fa <ICH7_8259_Slave_Handler_End+0x1601>
    849b:	48                   	dec    %eax
    849c:	61                   	popa   
    849d:	6e                   	outsb  %ds:(%esi),(%dx)
    849e:	64                   	fs
    849f:	6c                   	insb   (%dx),%es:(%edi)
    84a0:	65                   	gs
    84a1:	72 5f                	jb     8502 <ICH7_8259_Slave_Handler_End+0x1609>
    84a3:	32 30                	xor    (%eax),%dh
    84a5:	36 3a 0a             	cmp    %ss:(%edx),%cl
    84a8:	00 49 6e             	add    %cl,0x6e(%ecx)
    84ab:	74 65                	je     8512 <ICH7_8259_Slave_Handler_End+0x1619>
    84ad:	72 72                	jb     8521 <ICH7_8259_Slave_Handler_End+0x1628>
    84af:	75 70                	jne    8521 <ICH7_8259_Slave_Handler_End+0x1628>
    84b1:	74 5f                	je     8512 <ICH7_8259_Slave_Handler_End+0x1619>
    84b3:	48                   	dec    %eax
    84b4:	61                   	popa   
    84b5:	6e                   	outsb  %ds:(%esi),(%dx)
    84b6:	64                   	fs
    84b7:	6c                   	insb   (%dx),%es:(%edi)
    84b8:	65                   	gs
    84b9:	72 5f                	jb     851a <ICH7_8259_Slave_Handler_End+0x1621>
    84bb:	32 30                	xor    (%eax),%dh
    84bd:	37                   	aaa    
    84be:	3a 0a                	cmp    (%edx),%cl
    84c0:	00 49 6e             	add    %cl,0x6e(%ecx)
    84c3:	74 65                	je     852a <ICH7_8259_Slave_Handler_End+0x1631>
    84c5:	72 72                	jb     8539 <ICH7_8259_Slave_Handler_End+0x1640>
    84c7:	75 70                	jne    8539 <ICH7_8259_Slave_Handler_End+0x1640>
    84c9:	74 5f                	je     852a <ICH7_8259_Slave_Handler_End+0x1631>
    84cb:	48                   	dec    %eax
    84cc:	61                   	popa   
    84cd:	6e                   	outsb  %ds:(%esi),(%dx)
    84ce:	64                   	fs
    84cf:	6c                   	insb   (%dx),%es:(%edi)
    84d0:	65                   	gs
    84d1:	72 5f                	jb     8532 <ICH7_8259_Slave_Handler_End+0x1639>
    84d3:	32 30                	xor    (%eax),%dh
    84d5:	38 3a                	cmp    %bh,(%edx)
    84d7:	0a 00                	or     (%eax),%al
    84d9:	49                   	dec    %ecx
    84da:	6e                   	outsb  %ds:(%esi),(%dx)
    84db:	74 65                	je     8542 <ICH7_8259_Slave_Handler_End+0x1649>
    84dd:	72 72                	jb     8551 <ICH7_8259_Slave_Handler_End+0x1658>
    84df:	75 70                	jne    8551 <ICH7_8259_Slave_Handler_End+0x1658>
    84e1:	74 5f                	je     8542 <ICH7_8259_Slave_Handler_End+0x1649>
    84e3:	48                   	dec    %eax
    84e4:	61                   	popa   
    84e5:	6e                   	outsb  %ds:(%esi),(%dx)
    84e6:	64                   	fs
    84e7:	6c                   	insb   (%dx),%es:(%edi)
    84e8:	65                   	gs
    84e9:	72 5f                	jb     854a <ICH7_8259_Slave_Handler_End+0x1651>
    84eb:	32 30                	xor    (%eax),%dh
    84ed:	39 3a                	cmp    %edi,(%edx)
    84ef:	0a 00                	or     (%eax),%al
    84f1:	49                   	dec    %ecx
    84f2:	6e                   	outsb  %ds:(%esi),(%dx)
    84f3:	74 65                	je     855a <ICH7_8259_Slave_Handler_End+0x1661>
    84f5:	72 72                	jb     8569 <ICH7_8259_Slave_Handler_End+0x1670>
    84f7:	75 70                	jne    8569 <ICH7_8259_Slave_Handler_End+0x1670>
    84f9:	74 5f                	je     855a <ICH7_8259_Slave_Handler_End+0x1661>
    84fb:	48                   	dec    %eax
    84fc:	61                   	popa   
    84fd:	6e                   	outsb  %ds:(%esi),(%dx)
    84fe:	64                   	fs
    84ff:	6c                   	insb   (%dx),%es:(%edi)
    8500:	65                   	gs
    8501:	72 5f                	jb     8562 <ICH7_8259_Slave_Handler_End+0x1669>
    8503:	32 31                	xor    (%ecx),%dh
    8505:	30 3a                	xor    %bh,(%edx)
    8507:	0a 00                	or     (%eax),%al
    8509:	49                   	dec    %ecx
    850a:	6e                   	outsb  %ds:(%esi),(%dx)
    850b:	74 65                	je     8572 <ICH7_8259_Slave_Handler_End+0x1679>
    850d:	72 72                	jb     8581 <ICH7_8259_Slave_Handler_End+0x1688>
    850f:	75 70                	jne    8581 <ICH7_8259_Slave_Handler_End+0x1688>
    8511:	74 5f                	je     8572 <ICH7_8259_Slave_Handler_End+0x1679>
    8513:	48                   	dec    %eax
    8514:	61                   	popa   
    8515:	6e                   	outsb  %ds:(%esi),(%dx)
    8516:	64                   	fs
    8517:	6c                   	insb   (%dx),%es:(%edi)
    8518:	65                   	gs
    8519:	72 5f                	jb     857a <ICH7_8259_Slave_Handler_End+0x1681>
    851b:	32 31                	xor    (%ecx),%dh
    851d:	31 3a                	xor    %edi,(%edx)
    851f:	0a 00                	or     (%eax),%al
    8521:	49                   	dec    %ecx
    8522:	6e                   	outsb  %ds:(%esi),(%dx)
    8523:	74 65                	je     858a <ICH7_8259_Slave_Handler_End+0x1691>
    8525:	72 72                	jb     8599 <ICH7_8259_Slave_Handler_End+0x16a0>
    8527:	75 70                	jne    8599 <ICH7_8259_Slave_Handler_End+0x16a0>
    8529:	74 5f                	je     858a <ICH7_8259_Slave_Handler_End+0x1691>
    852b:	48                   	dec    %eax
    852c:	61                   	popa   
    852d:	6e                   	outsb  %ds:(%esi),(%dx)
    852e:	64                   	fs
    852f:	6c                   	insb   (%dx),%es:(%edi)
    8530:	65                   	gs
    8531:	72 5f                	jb     8592 <ICH7_8259_Slave_Handler_End+0x1699>
    8533:	32 31                	xor    (%ecx),%dh
    8535:	32 3a                	xor    (%edx),%bh
    8537:	0a 00                	or     (%eax),%al
    8539:	49                   	dec    %ecx
    853a:	6e                   	outsb  %ds:(%esi),(%dx)
    853b:	74 65                	je     85a2 <ICH7_8259_Slave_Handler_End+0x16a9>
    853d:	72 72                	jb     85b1 <ICH7_8259_Slave_Handler_End+0x16b8>
    853f:	75 70                	jne    85b1 <ICH7_8259_Slave_Handler_End+0x16b8>
    8541:	74 5f                	je     85a2 <ICH7_8259_Slave_Handler_End+0x16a9>
    8543:	48                   	dec    %eax
    8544:	61                   	popa   
    8545:	6e                   	outsb  %ds:(%esi),(%dx)
    8546:	64                   	fs
    8547:	6c                   	insb   (%dx),%es:(%edi)
    8548:	65                   	gs
    8549:	72 5f                	jb     85aa <ICH7_8259_Slave_Handler_End+0x16b1>
    854b:	32 31                	xor    (%ecx),%dh
    854d:	33 3a                	xor    (%edx),%edi
    854f:	0a 00                	or     (%eax),%al
    8551:	49                   	dec    %ecx
    8552:	6e                   	outsb  %ds:(%esi),(%dx)
    8553:	74 65                	je     85ba <ICH7_8259_Slave_Handler_End+0x16c1>
    8555:	72 72                	jb     85c9 <ICH7_8259_Slave_Handler_End+0x16d0>
    8557:	75 70                	jne    85c9 <ICH7_8259_Slave_Handler_End+0x16d0>
    8559:	74 5f                	je     85ba <ICH7_8259_Slave_Handler_End+0x16c1>
    855b:	48                   	dec    %eax
    855c:	61                   	popa   
    855d:	6e                   	outsb  %ds:(%esi),(%dx)
    855e:	64                   	fs
    855f:	6c                   	insb   (%dx),%es:(%edi)
    8560:	65                   	gs
    8561:	72 5f                	jb     85c2 <ICH7_8259_Slave_Handler_End+0x16c9>
    8563:	32 31                	xor    (%ecx),%dh
    8565:	34 3a                	xor    $0x3a,%al
    8567:	0a 00                	or     (%eax),%al
    8569:	49                   	dec    %ecx
    856a:	6e                   	outsb  %ds:(%esi),(%dx)
    856b:	74 65                	je     85d2 <ICH7_8259_Slave_Handler_End+0x16d9>
    856d:	72 72                	jb     85e1 <ICH7_8259_Slave_Handler_End+0x16e8>
    856f:	75 70                	jne    85e1 <ICH7_8259_Slave_Handler_End+0x16e8>
    8571:	74 5f                	je     85d2 <ICH7_8259_Slave_Handler_End+0x16d9>
    8573:	48                   	dec    %eax
    8574:	61                   	popa   
    8575:	6e                   	outsb  %ds:(%esi),(%dx)
    8576:	64                   	fs
    8577:	6c                   	insb   (%dx),%es:(%edi)
    8578:	65                   	gs
    8579:	72 5f                	jb     85da <ICH7_8259_Slave_Handler_End+0x16e1>
    857b:	32 31                	xor    (%ecx),%dh
    857d:	35 3a 0a 00 49       	xor    $0x49000a3a,%eax
    8582:	6e                   	outsb  %ds:(%esi),(%dx)
    8583:	74 65                	je     85ea <ICH7_8259_Slave_Handler_End+0x16f1>
    8585:	72 72                	jb     85f9 <ICH7_8259_Slave_Handler_End+0x1700>
    8587:	75 70                	jne    85f9 <ICH7_8259_Slave_Handler_End+0x1700>
    8589:	74 5f                	je     85ea <ICH7_8259_Slave_Handler_End+0x16f1>
    858b:	48                   	dec    %eax
    858c:	61                   	popa   
    858d:	6e                   	outsb  %ds:(%esi),(%dx)
    858e:	64                   	fs
    858f:	6c                   	insb   (%dx),%es:(%edi)
    8590:	65                   	gs
    8591:	72 5f                	jb     85f2 <ICH7_8259_Slave_Handler_End+0x16f9>
    8593:	32 31                	xor    (%ecx),%dh
    8595:	36 3a 0a             	cmp    %ss:(%edx),%cl
    8598:	00 49 6e             	add    %cl,0x6e(%ecx)
    859b:	74 65                	je     8602 <ICH7_8259_Slave_Handler_End+0x1709>
    859d:	72 72                	jb     8611 <ICH7_8259_Slave_Handler_End+0x1718>
    859f:	75 70                	jne    8611 <ICH7_8259_Slave_Handler_End+0x1718>
    85a1:	74 5f                	je     8602 <ICH7_8259_Slave_Handler_End+0x1709>
    85a3:	48                   	dec    %eax
    85a4:	61                   	popa   
    85a5:	6e                   	outsb  %ds:(%esi),(%dx)
    85a6:	64                   	fs
    85a7:	6c                   	insb   (%dx),%es:(%edi)
    85a8:	65                   	gs
    85a9:	72 5f                	jb     860a <ICH7_8259_Slave_Handler_End+0x1711>
    85ab:	32 31                	xor    (%ecx),%dh
    85ad:	37                   	aaa    
    85ae:	3a 0a                	cmp    (%edx),%cl
    85b0:	00 49 6e             	add    %cl,0x6e(%ecx)
    85b3:	74 65                	je     861a <ICH7_8259_Slave_Handler_End+0x1721>
    85b5:	72 72                	jb     8629 <ICH7_8259_Slave_Handler_End+0x1730>
    85b7:	75 70                	jne    8629 <ICH7_8259_Slave_Handler_End+0x1730>
    85b9:	74 5f                	je     861a <ICH7_8259_Slave_Handler_End+0x1721>
    85bb:	48                   	dec    %eax
    85bc:	61                   	popa   
    85bd:	6e                   	outsb  %ds:(%esi),(%dx)
    85be:	64                   	fs
    85bf:	6c                   	insb   (%dx),%es:(%edi)
    85c0:	65                   	gs
    85c1:	72 5f                	jb     8622 <ICH7_8259_Slave_Handler_End+0x1729>
    85c3:	32 31                	xor    (%ecx),%dh
    85c5:	38 3a                	cmp    %bh,(%edx)
    85c7:	0a 00                	or     (%eax),%al
    85c9:	49                   	dec    %ecx
    85ca:	6e                   	outsb  %ds:(%esi),(%dx)
    85cb:	74 65                	je     8632 <ICH7_8259_Slave_Handler_End+0x1739>
    85cd:	72 72                	jb     8641 <ICH7_8259_Slave_Handler_End+0x1748>
    85cf:	75 70                	jne    8641 <ICH7_8259_Slave_Handler_End+0x1748>
    85d1:	74 5f                	je     8632 <ICH7_8259_Slave_Handler_End+0x1739>
    85d3:	48                   	dec    %eax
    85d4:	61                   	popa   
    85d5:	6e                   	outsb  %ds:(%esi),(%dx)
    85d6:	64                   	fs
    85d7:	6c                   	insb   (%dx),%es:(%edi)
    85d8:	65                   	gs
    85d9:	72 5f                	jb     863a <ICH7_8259_Slave_Handler_End+0x1741>
    85db:	32 31                	xor    (%ecx),%dh
    85dd:	39 3a                	cmp    %edi,(%edx)
    85df:	0a 00                	or     (%eax),%al
    85e1:	49                   	dec    %ecx
    85e2:	6e                   	outsb  %ds:(%esi),(%dx)
    85e3:	74 65                	je     864a <ICH7_8259_Slave_Handler_End+0x1751>
    85e5:	72 72                	jb     8659 <ICH7_8259_Slave_Handler_End+0x1760>
    85e7:	75 70                	jne    8659 <ICH7_8259_Slave_Handler_End+0x1760>
    85e9:	74 5f                	je     864a <ICH7_8259_Slave_Handler_End+0x1751>
    85eb:	48                   	dec    %eax
    85ec:	61                   	popa   
    85ed:	6e                   	outsb  %ds:(%esi),(%dx)
    85ee:	64                   	fs
    85ef:	6c                   	insb   (%dx),%es:(%edi)
    85f0:	65                   	gs
    85f1:	72 5f                	jb     8652 <ICH7_8259_Slave_Handler_End+0x1759>
    85f3:	32 32                	xor    (%edx),%dh
    85f5:	30 3a                	xor    %bh,(%edx)
    85f7:	0a 00                	or     (%eax),%al
    85f9:	49                   	dec    %ecx
    85fa:	6e                   	outsb  %ds:(%esi),(%dx)
    85fb:	74 65                	je     8662 <ICH7_8259_Slave_Handler_End+0x1769>
    85fd:	72 72                	jb     8671 <ICH7_8259_Slave_Handler_End+0x1778>
    85ff:	75 70                	jne    8671 <ICH7_8259_Slave_Handler_End+0x1778>
    8601:	74 5f                	je     8662 <ICH7_8259_Slave_Handler_End+0x1769>
    8603:	48                   	dec    %eax
    8604:	61                   	popa   
    8605:	6e                   	outsb  %ds:(%esi),(%dx)
    8606:	64                   	fs
    8607:	6c                   	insb   (%dx),%es:(%edi)
    8608:	65                   	gs
    8609:	72 5f                	jb     866a <ICH7_8259_Slave_Handler_End+0x1771>
    860b:	32 32                	xor    (%edx),%dh
    860d:	31 3a                	xor    %edi,(%edx)
    860f:	0a 00                	or     (%eax),%al
    8611:	49                   	dec    %ecx
    8612:	6e                   	outsb  %ds:(%esi),(%dx)
    8613:	74 65                	je     867a <ICH7_8259_Slave_Handler_End+0x1781>
    8615:	72 72                	jb     8689 <ICH7_8259_Slave_Handler_End+0x1790>
    8617:	75 70                	jne    8689 <ICH7_8259_Slave_Handler_End+0x1790>
    8619:	74 5f                	je     867a <ICH7_8259_Slave_Handler_End+0x1781>
    861b:	48                   	dec    %eax
    861c:	61                   	popa   
    861d:	6e                   	outsb  %ds:(%esi),(%dx)
    861e:	64                   	fs
    861f:	6c                   	insb   (%dx),%es:(%edi)
    8620:	65                   	gs
    8621:	72 5f                	jb     8682 <ICH7_8259_Slave_Handler_End+0x1789>
    8623:	32 32                	xor    (%edx),%dh
    8625:	32 3a                	xor    (%edx),%bh
    8627:	0a 00                	or     (%eax),%al
    8629:	49                   	dec    %ecx
    862a:	6e                   	outsb  %ds:(%esi),(%dx)
    862b:	74 65                	je     8692 <ICH7_8259_Slave_Handler_End+0x1799>
    862d:	72 72                	jb     86a1 <ICH7_8259_Slave_Handler_End+0x17a8>
    862f:	75 70                	jne    86a1 <ICH7_8259_Slave_Handler_End+0x17a8>
    8631:	74 5f                	je     8692 <ICH7_8259_Slave_Handler_End+0x1799>
    8633:	48                   	dec    %eax
    8634:	61                   	popa   
    8635:	6e                   	outsb  %ds:(%esi),(%dx)
    8636:	64                   	fs
    8637:	6c                   	insb   (%dx),%es:(%edi)
    8638:	65                   	gs
    8639:	72 5f                	jb     869a <ICH7_8259_Slave_Handler_End+0x17a1>
    863b:	32 32                	xor    (%edx),%dh
    863d:	33 3a                	xor    (%edx),%edi
    863f:	0a 00                	or     (%eax),%al
    8641:	49                   	dec    %ecx
    8642:	6e                   	outsb  %ds:(%esi),(%dx)
    8643:	74 65                	je     86aa <ICH7_8259_Slave_Handler_End+0x17b1>
    8645:	72 72                	jb     86b9 <ICH7_8259_Slave_Handler_End+0x17c0>
    8647:	75 70                	jne    86b9 <ICH7_8259_Slave_Handler_End+0x17c0>
    8649:	74 5f                	je     86aa <ICH7_8259_Slave_Handler_End+0x17b1>
    864b:	48                   	dec    %eax
    864c:	61                   	popa   
    864d:	6e                   	outsb  %ds:(%esi),(%dx)
    864e:	64                   	fs
    864f:	6c                   	insb   (%dx),%es:(%edi)
    8650:	65                   	gs
    8651:	72 5f                	jb     86b2 <ICH7_8259_Slave_Handler_End+0x17b9>
    8653:	32 32                	xor    (%edx),%dh
    8655:	34 3a                	xor    $0x3a,%al
    8657:	0a 00                	or     (%eax),%al
    8659:	49                   	dec    %ecx
    865a:	6e                   	outsb  %ds:(%esi),(%dx)
    865b:	74 65                	je     86c2 <ICH7_8259_Slave_Handler_End+0x17c9>
    865d:	72 72                	jb     86d1 <ICH7_8259_Slave_Handler_End+0x17d8>
    865f:	75 70                	jne    86d1 <ICH7_8259_Slave_Handler_End+0x17d8>
    8661:	74 5f                	je     86c2 <ICH7_8259_Slave_Handler_End+0x17c9>
    8663:	48                   	dec    %eax
    8664:	61                   	popa   
    8665:	6e                   	outsb  %ds:(%esi),(%dx)
    8666:	64                   	fs
    8667:	6c                   	insb   (%dx),%es:(%edi)
    8668:	65                   	gs
    8669:	72 5f                	jb     86ca <ICH7_8259_Slave_Handler_End+0x17d1>
    866b:	32 32                	xor    (%edx),%dh
    866d:	35 3a 0a 00 49       	xor    $0x49000a3a,%eax
    8672:	6e                   	outsb  %ds:(%esi),(%dx)
    8673:	74 65                	je     86da <ICH7_8259_Slave_Handler_End+0x17e1>
    8675:	72 72                	jb     86e9 <ICH7_8259_Slave_Handler_End+0x17f0>
    8677:	75 70                	jne    86e9 <ICH7_8259_Slave_Handler_End+0x17f0>
    8679:	74 5f                	je     86da <ICH7_8259_Slave_Handler_End+0x17e1>
    867b:	48                   	dec    %eax
    867c:	61                   	popa   
    867d:	6e                   	outsb  %ds:(%esi),(%dx)
    867e:	64                   	fs
    867f:	6c                   	insb   (%dx),%es:(%edi)
    8680:	65                   	gs
    8681:	72 5f                	jb     86e2 <ICH7_8259_Slave_Handler_End+0x17e9>
    8683:	32 32                	xor    (%edx),%dh
    8685:	36 3a 0a             	cmp    %ss:(%edx),%cl
    8688:	00 49 6e             	add    %cl,0x6e(%ecx)
    868b:	74 65                	je     86f2 <ICH7_8259_Slave_Handler_End+0x17f9>
    868d:	72 72                	jb     8701 <ICH7_8259_Slave_Handler_End+0x1808>
    868f:	75 70                	jne    8701 <ICH7_8259_Slave_Handler_End+0x1808>
    8691:	74 5f                	je     86f2 <ICH7_8259_Slave_Handler_End+0x17f9>
    8693:	48                   	dec    %eax
    8694:	61                   	popa   
    8695:	6e                   	outsb  %ds:(%esi),(%dx)
    8696:	64                   	fs
    8697:	6c                   	insb   (%dx),%es:(%edi)
    8698:	65                   	gs
    8699:	72 5f                	jb     86fa <ICH7_8259_Slave_Handler_End+0x1801>
    869b:	32 32                	xor    (%edx),%dh
    869d:	37                   	aaa    
    869e:	3a 0a                	cmp    (%edx),%cl
    86a0:	00 49 6e             	add    %cl,0x6e(%ecx)
    86a3:	74 65                	je     870a <ICH7_8259_Slave_Handler_End+0x1811>
    86a5:	72 72                	jb     8719 <ICH7_8259_Slave_Handler_End+0x1820>
    86a7:	75 70                	jne    8719 <ICH7_8259_Slave_Handler_End+0x1820>
    86a9:	74 5f                	je     870a <ICH7_8259_Slave_Handler_End+0x1811>
    86ab:	48                   	dec    %eax
    86ac:	61                   	popa   
    86ad:	6e                   	outsb  %ds:(%esi),(%dx)
    86ae:	64                   	fs
    86af:	6c                   	insb   (%dx),%es:(%edi)
    86b0:	65                   	gs
    86b1:	72 5f                	jb     8712 <ICH7_8259_Slave_Handler_End+0x1819>
    86b3:	32 32                	xor    (%edx),%dh
    86b5:	38 3a                	cmp    %bh,(%edx)
    86b7:	0a 00                	or     (%eax),%al
    86b9:	49                   	dec    %ecx
    86ba:	6e                   	outsb  %ds:(%esi),(%dx)
    86bb:	74 65                	je     8722 <ICH7_8259_Slave_Handler_End+0x1829>
    86bd:	72 72                	jb     8731 <ICH7_8259_Slave_Handler_End+0x1838>
    86bf:	75 70                	jne    8731 <ICH7_8259_Slave_Handler_End+0x1838>
    86c1:	74 5f                	je     8722 <ICH7_8259_Slave_Handler_End+0x1829>
    86c3:	48                   	dec    %eax
    86c4:	61                   	popa   
    86c5:	6e                   	outsb  %ds:(%esi),(%dx)
    86c6:	64                   	fs
    86c7:	6c                   	insb   (%dx),%es:(%edi)
    86c8:	65                   	gs
    86c9:	72 5f                	jb     872a <ICH7_8259_Slave_Handler_End+0x1831>
    86cb:	32 32                	xor    (%edx),%dh
    86cd:	39 3a                	cmp    %edi,(%edx)
    86cf:	0a 00                	or     (%eax),%al
    86d1:	49                   	dec    %ecx
    86d2:	6e                   	outsb  %ds:(%esi),(%dx)
    86d3:	74 65                	je     873a <ICH7_8259_Slave_Handler_End+0x1841>
    86d5:	72 72                	jb     8749 <ICH7_8259_Slave_Handler_End+0x1850>
    86d7:	75 70                	jne    8749 <ICH7_8259_Slave_Handler_End+0x1850>
    86d9:	74 5f                	je     873a <ICH7_8259_Slave_Handler_End+0x1841>
    86db:	48                   	dec    %eax
    86dc:	61                   	popa   
    86dd:	6e                   	outsb  %ds:(%esi),(%dx)
    86de:	64                   	fs
    86df:	6c                   	insb   (%dx),%es:(%edi)
    86e0:	65                   	gs
    86e1:	72 5f                	jb     8742 <ICH7_8259_Slave_Handler_End+0x1849>
    86e3:	32 33                	xor    (%ebx),%dh
    86e5:	30 3a                	xor    %bh,(%edx)
    86e7:	0a 00                	or     (%eax),%al
    86e9:	49                   	dec    %ecx
    86ea:	6e                   	outsb  %ds:(%esi),(%dx)
    86eb:	74 65                	je     8752 <ICH7_8259_Slave_Handler_End+0x1859>
    86ed:	72 72                	jb     8761 <ICH7_8259_Slave_Handler_End+0x1868>
    86ef:	75 70                	jne    8761 <ICH7_8259_Slave_Handler_End+0x1868>
    86f1:	74 5f                	je     8752 <ICH7_8259_Slave_Handler_End+0x1859>
    86f3:	48                   	dec    %eax
    86f4:	61                   	popa   
    86f5:	6e                   	outsb  %ds:(%esi),(%dx)
    86f6:	64                   	fs
    86f7:	6c                   	insb   (%dx),%es:(%edi)
    86f8:	65                   	gs
    86f9:	72 5f                	jb     875a <ICH7_8259_Slave_Handler_End+0x1861>
    86fb:	32 33                	xor    (%ebx),%dh
    86fd:	31 3a                	xor    %edi,(%edx)
    86ff:	0a 00                	or     (%eax),%al
    8701:	49                   	dec    %ecx
    8702:	6e                   	outsb  %ds:(%esi),(%dx)
    8703:	74 65                	je     876a <ICH7_8259_Slave_Handler_End+0x1871>
    8705:	72 72                	jb     8779 <ICH7_8259_Slave_Handler_End+0x1880>
    8707:	75 70                	jne    8779 <ICH7_8259_Slave_Handler_End+0x1880>
    8709:	74 5f                	je     876a <ICH7_8259_Slave_Handler_End+0x1871>
    870b:	48                   	dec    %eax
    870c:	61                   	popa   
    870d:	6e                   	outsb  %ds:(%esi),(%dx)
    870e:	64                   	fs
    870f:	6c                   	insb   (%dx),%es:(%edi)
    8710:	65                   	gs
    8711:	72 5f                	jb     8772 <ICH7_8259_Slave_Handler_End+0x1879>
    8713:	32 33                	xor    (%ebx),%dh
    8715:	32 3a                	xor    (%edx),%bh
    8717:	0a 00                	or     (%eax),%al
    8719:	49                   	dec    %ecx
    871a:	6e                   	outsb  %ds:(%esi),(%dx)
    871b:	74 65                	je     8782 <ICH7_8259_Slave_Handler_End+0x1889>
    871d:	72 72                	jb     8791 <ICH7_8259_Slave_Handler_End+0x1898>
    871f:	75 70                	jne    8791 <ICH7_8259_Slave_Handler_End+0x1898>
    8721:	74 5f                	je     8782 <ICH7_8259_Slave_Handler_End+0x1889>
    8723:	48                   	dec    %eax
    8724:	61                   	popa   
    8725:	6e                   	outsb  %ds:(%esi),(%dx)
    8726:	64                   	fs
    8727:	6c                   	insb   (%dx),%es:(%edi)
    8728:	65                   	gs
    8729:	72 5f                	jb     878a <ICH7_8259_Slave_Handler_End+0x1891>
    872b:	32 33                	xor    (%ebx),%dh
    872d:	33 3a                	xor    (%edx),%edi
    872f:	0a 00                	or     (%eax),%al
    8731:	49                   	dec    %ecx
    8732:	6e                   	outsb  %ds:(%esi),(%dx)
    8733:	74 65                	je     879a <ICH7_8259_Slave_Handler_End+0x18a1>
    8735:	72 72                	jb     87a9 <ICH7_8259_Slave_Handler_End+0x18b0>
    8737:	75 70                	jne    87a9 <ICH7_8259_Slave_Handler_End+0x18b0>
    8739:	74 5f                	je     879a <ICH7_8259_Slave_Handler_End+0x18a1>
    873b:	48                   	dec    %eax
    873c:	61                   	popa   
    873d:	6e                   	outsb  %ds:(%esi),(%dx)
    873e:	64                   	fs
    873f:	6c                   	insb   (%dx),%es:(%edi)
    8740:	65                   	gs
    8741:	72 5f                	jb     87a2 <ICH7_8259_Slave_Handler_End+0x18a9>
    8743:	32 33                	xor    (%ebx),%dh
    8745:	34 3a                	xor    $0x3a,%al
    8747:	0a 00                	or     (%eax),%al
    8749:	49                   	dec    %ecx
    874a:	6e                   	outsb  %ds:(%esi),(%dx)
    874b:	74 65                	je     87b2 <ICH7_8259_Slave_Handler_End+0x18b9>
    874d:	72 72                	jb     87c1 <ICH7_8259_Slave_Handler_End+0x18c8>
    874f:	75 70                	jne    87c1 <ICH7_8259_Slave_Handler_End+0x18c8>
    8751:	74 5f                	je     87b2 <ICH7_8259_Slave_Handler_End+0x18b9>
    8753:	48                   	dec    %eax
    8754:	61                   	popa   
    8755:	6e                   	outsb  %ds:(%esi),(%dx)
    8756:	64                   	fs
    8757:	6c                   	insb   (%dx),%es:(%edi)
    8758:	65                   	gs
    8759:	72 5f                	jb     87ba <ICH7_8259_Slave_Handler_End+0x18c1>
    875b:	32 33                	xor    (%ebx),%dh
    875d:	35 3a 0a 00 49       	xor    $0x49000a3a,%eax
    8762:	6e                   	outsb  %ds:(%esi),(%dx)
    8763:	74 65                	je     87ca <ICH7_8259_Slave_Handler_End+0x18d1>
    8765:	72 72                	jb     87d9 <ICH7_8259_Slave_Handler_End+0x18e0>
    8767:	75 70                	jne    87d9 <ICH7_8259_Slave_Handler_End+0x18e0>
    8769:	74 5f                	je     87ca <ICH7_8259_Slave_Handler_End+0x18d1>
    876b:	48                   	dec    %eax
    876c:	61                   	popa   
    876d:	6e                   	outsb  %ds:(%esi),(%dx)
    876e:	64                   	fs
    876f:	6c                   	insb   (%dx),%es:(%edi)
    8770:	65                   	gs
    8771:	72 5f                	jb     87d2 <ICH7_8259_Slave_Handler_End+0x18d9>
    8773:	32 33                	xor    (%ebx),%dh
    8775:	36 3a 0a             	cmp    %ss:(%edx),%cl
    8778:	00 49 6e             	add    %cl,0x6e(%ecx)
    877b:	74 65                	je     87e2 <ICH7_8259_Slave_Handler_End+0x18e9>
    877d:	72 72                	jb     87f1 <ICH7_8259_Slave_Handler_End+0x18f8>
    877f:	75 70                	jne    87f1 <ICH7_8259_Slave_Handler_End+0x18f8>
    8781:	74 5f                	je     87e2 <ICH7_8259_Slave_Handler_End+0x18e9>
    8783:	48                   	dec    %eax
    8784:	61                   	popa   
    8785:	6e                   	outsb  %ds:(%esi),(%dx)
    8786:	64                   	fs
    8787:	6c                   	insb   (%dx),%es:(%edi)
    8788:	65                   	gs
    8789:	72 5f                	jb     87ea <ICH7_8259_Slave_Handler_End+0x18f1>
    878b:	32 33                	xor    (%ebx),%dh
    878d:	37                   	aaa    
    878e:	3a 0a                	cmp    (%edx),%cl
    8790:	00 49 6e             	add    %cl,0x6e(%ecx)
    8793:	74 65                	je     87fa <ICH7_8259_Slave_Handler_End+0x1901>
    8795:	72 72                	jb     8809 <ICH7_8259_Slave_Handler_End+0x1910>
    8797:	75 70                	jne    8809 <ICH7_8259_Slave_Handler_End+0x1910>
    8799:	74 5f                	je     87fa <ICH7_8259_Slave_Handler_End+0x1901>
    879b:	48                   	dec    %eax
    879c:	61                   	popa   
    879d:	6e                   	outsb  %ds:(%esi),(%dx)
    879e:	64                   	fs
    879f:	6c                   	insb   (%dx),%es:(%edi)
    87a0:	65                   	gs
    87a1:	72 5f                	jb     8802 <ICH7_8259_Slave_Handler_End+0x1909>
    87a3:	32 33                	xor    (%ebx),%dh
    87a5:	38 3a                	cmp    %bh,(%edx)
    87a7:	0a 00                	or     (%eax),%al
    87a9:	49                   	dec    %ecx
    87aa:	6e                   	outsb  %ds:(%esi),(%dx)
    87ab:	74 65                	je     8812 <ICH7_8259_Slave_Handler_End+0x1919>
    87ad:	72 72                	jb     8821 <ICH7_8259_Slave_Handler_End+0x1928>
    87af:	75 70                	jne    8821 <ICH7_8259_Slave_Handler_End+0x1928>
    87b1:	74 5f                	je     8812 <ICH7_8259_Slave_Handler_End+0x1919>
    87b3:	48                   	dec    %eax
    87b4:	61                   	popa   
    87b5:	6e                   	outsb  %ds:(%esi),(%dx)
    87b6:	64                   	fs
    87b7:	6c                   	insb   (%dx),%es:(%edi)
    87b8:	65                   	gs
    87b9:	72 5f                	jb     881a <ICH7_8259_Slave_Handler_End+0x1921>
    87bb:	32 33                	xor    (%ebx),%dh
    87bd:	39 3a                	cmp    %edi,(%edx)
    87bf:	0a 00                	or     (%eax),%al
    87c1:	49                   	dec    %ecx
    87c2:	6e                   	outsb  %ds:(%esi),(%dx)
    87c3:	74 65                	je     882a <ICH7_8259_Slave_Handler_End+0x1931>
    87c5:	72 72                	jb     8839 <ICH7_8259_Slave_Handler_End+0x1940>
    87c7:	75 70                	jne    8839 <ICH7_8259_Slave_Handler_End+0x1940>
    87c9:	74 5f                	je     882a <ICH7_8259_Slave_Handler_End+0x1931>
    87cb:	48                   	dec    %eax
    87cc:	61                   	popa   
    87cd:	6e                   	outsb  %ds:(%esi),(%dx)
    87ce:	64                   	fs
    87cf:	6c                   	insb   (%dx),%es:(%edi)
    87d0:	65                   	gs
    87d1:	72 5f                	jb     8832 <ICH7_8259_Slave_Handler_End+0x1939>
    87d3:	32 34 30             	xor    (%eax,%esi,1),%dh
    87d6:	3a 0a                	cmp    (%edx),%cl
    87d8:	00 49 6e             	add    %cl,0x6e(%ecx)
    87db:	74 65                	je     8842 <ICH7_8259_Slave_Handler_End+0x1949>
    87dd:	72 72                	jb     8851 <ICH7_8259_Slave_Handler_End+0x1958>
    87df:	75 70                	jne    8851 <ICH7_8259_Slave_Handler_End+0x1958>
    87e1:	74 5f                	je     8842 <ICH7_8259_Slave_Handler_End+0x1949>
    87e3:	48                   	dec    %eax
    87e4:	61                   	popa   
    87e5:	6e                   	outsb  %ds:(%esi),(%dx)
    87e6:	64                   	fs
    87e7:	6c                   	insb   (%dx),%es:(%edi)
    87e8:	65                   	gs
    87e9:	72 5f                	jb     884a <ICH7_8259_Slave_Handler_End+0x1951>
    87eb:	32 34 31             	xor    (%ecx,%esi,1),%dh
    87ee:	3a 0a                	cmp    (%edx),%cl
    87f0:	00 49 6e             	add    %cl,0x6e(%ecx)
    87f3:	74 65                	je     885a <ICH7_8259_Slave_Handler_End+0x1961>
    87f5:	72 72                	jb     8869 <ICH7_8259_Slave_Handler_End+0x1970>
    87f7:	75 70                	jne    8869 <ICH7_8259_Slave_Handler_End+0x1970>
    87f9:	74 5f                	je     885a <ICH7_8259_Slave_Handler_End+0x1961>
    87fb:	48                   	dec    %eax
    87fc:	61                   	popa   
    87fd:	6e                   	outsb  %ds:(%esi),(%dx)
    87fe:	64                   	fs
    87ff:	6c                   	insb   (%dx),%es:(%edi)
    8800:	65                   	gs
    8801:	72 5f                	jb     8862 <ICH7_8259_Slave_Handler_End+0x1969>
    8803:	32 34 32             	xor    (%edx,%esi,1),%dh
    8806:	3a 0a                	cmp    (%edx),%cl
    8808:	00 49 6e             	add    %cl,0x6e(%ecx)
    880b:	74 65                	je     8872 <ICH7_8259_Slave_Handler_End+0x1979>
    880d:	72 72                	jb     8881 <ICH7_8259_Slave_Handler_End+0x1988>
    880f:	75 70                	jne    8881 <ICH7_8259_Slave_Handler_End+0x1988>
    8811:	74 5f                	je     8872 <ICH7_8259_Slave_Handler_End+0x1979>
    8813:	48                   	dec    %eax
    8814:	61                   	popa   
    8815:	6e                   	outsb  %ds:(%esi),(%dx)
    8816:	64                   	fs
    8817:	6c                   	insb   (%dx),%es:(%edi)
    8818:	65                   	gs
    8819:	72 5f                	jb     887a <ICH7_8259_Slave_Handler_End+0x1981>
    881b:	32 34 33             	xor    (%ebx,%esi,1),%dh
    881e:	3a 0a                	cmp    (%edx),%cl
    8820:	00 49 6e             	add    %cl,0x6e(%ecx)
    8823:	74 65                	je     888a <ICH7_8259_Slave_Handler_End+0x1991>
    8825:	72 72                	jb     8899 <ICH7_8259_Slave_Handler_End+0x19a0>
    8827:	75 70                	jne    8899 <ICH7_8259_Slave_Handler_End+0x19a0>
    8829:	74 5f                	je     888a <ICH7_8259_Slave_Handler_End+0x1991>
    882b:	48                   	dec    %eax
    882c:	61                   	popa   
    882d:	6e                   	outsb  %ds:(%esi),(%dx)
    882e:	64                   	fs
    882f:	6c                   	insb   (%dx),%es:(%edi)
    8830:	65                   	gs
    8831:	72 5f                	jb     8892 <ICH7_8259_Slave_Handler_End+0x1999>
    8833:	32 34 34             	xor    (%esp,%esi,1),%dh
    8836:	3a 0a                	cmp    (%edx),%cl
    8838:	00 49 6e             	add    %cl,0x6e(%ecx)
    883b:	74 65                	je     88a2 <ICH7_8259_Slave_Handler_End+0x19a9>
    883d:	72 72                	jb     88b1 <ICH7_8259_Slave_Handler_End+0x19b8>
    883f:	75 70                	jne    88b1 <ICH7_8259_Slave_Handler_End+0x19b8>
    8841:	74 5f                	je     88a2 <ICH7_8259_Slave_Handler_End+0x19a9>
    8843:	48                   	dec    %eax
    8844:	61                   	popa   
    8845:	6e                   	outsb  %ds:(%esi),(%dx)
    8846:	64                   	fs
    8847:	6c                   	insb   (%dx),%es:(%edi)
    8848:	65                   	gs
    8849:	72 5f                	jb     88aa <ICH7_8259_Slave_Handler_End+0x19b1>
    884b:	32 34 35 3a 0a 00 49 	xor    0x49000a3a(,%esi,1),%dh
    8852:	6e                   	outsb  %ds:(%esi),(%dx)
    8853:	74 65                	je     88ba <ICH7_8259_Slave_Handler_End+0x19c1>
    8855:	72 72                	jb     88c9 <ICH7_8259_Slave_Handler_End+0x19d0>
    8857:	75 70                	jne    88c9 <ICH7_8259_Slave_Handler_End+0x19d0>
    8859:	74 5f                	je     88ba <ICH7_8259_Slave_Handler_End+0x19c1>
    885b:	48                   	dec    %eax
    885c:	61                   	popa   
    885d:	6e                   	outsb  %ds:(%esi),(%dx)
    885e:	64                   	fs
    885f:	6c                   	insb   (%dx),%es:(%edi)
    8860:	65                   	gs
    8861:	72 5f                	jb     88c2 <ICH7_8259_Slave_Handler_End+0x19c9>
    8863:	32 34 36             	xor    (%esi,%esi,1),%dh
    8866:	3a 0a                	cmp    (%edx),%cl
    8868:	00 49 6e             	add    %cl,0x6e(%ecx)
    886b:	74 65                	je     88d2 <ICH7_8259_Slave_Handler_End+0x19d9>
    886d:	72 72                	jb     88e1 <ICH7_8259_Slave_Handler_End+0x19e8>
    886f:	75 70                	jne    88e1 <ICH7_8259_Slave_Handler_End+0x19e8>
    8871:	74 5f                	je     88d2 <ICH7_8259_Slave_Handler_End+0x19d9>
    8873:	48                   	dec    %eax
    8874:	61                   	popa   
    8875:	6e                   	outsb  %ds:(%esi),(%dx)
    8876:	64                   	fs
    8877:	6c                   	insb   (%dx),%es:(%edi)
    8878:	65                   	gs
    8879:	72 5f                	jb     88da <ICH7_8259_Slave_Handler_End+0x19e1>
    887b:	32 34 37             	xor    (%edi,%esi,1),%dh
    887e:	3a 0a                	cmp    (%edx),%cl
    8880:	00 49 6e             	add    %cl,0x6e(%ecx)
    8883:	74 65                	je     88ea <ICH7_8259_Slave_Handler_End+0x19f1>
    8885:	72 72                	jb     88f9 <ICH7_8259_Slave_Handler_End+0x1a00>
    8887:	75 70                	jne    88f9 <ICH7_8259_Slave_Handler_End+0x1a00>
    8889:	74 5f                	je     88ea <ICH7_8259_Slave_Handler_End+0x19f1>
    888b:	48                   	dec    %eax
    888c:	61                   	popa   
    888d:	6e                   	outsb  %ds:(%esi),(%dx)
    888e:	64                   	fs
    888f:	6c                   	insb   (%dx),%es:(%edi)
    8890:	65                   	gs
    8891:	72 5f                	jb     88f2 <ICH7_8259_Slave_Handler_End+0x19f9>
    8893:	32 34 38             	xor    (%eax,%edi,1),%dh
    8896:	3a 0a                	cmp    (%edx),%cl
    8898:	00 49 6e             	add    %cl,0x6e(%ecx)
    889b:	74 65                	je     8902 <ICH7_8259_Slave_Handler_End+0x1a09>
    889d:	72 72                	jb     8911 <ICH7_8259_Slave_Handler_End+0x1a18>
    889f:	75 70                	jne    8911 <ICH7_8259_Slave_Handler_End+0x1a18>
    88a1:	74 5f                	je     8902 <ICH7_8259_Slave_Handler_End+0x1a09>
    88a3:	48                   	dec    %eax
    88a4:	61                   	popa   
    88a5:	6e                   	outsb  %ds:(%esi),(%dx)
    88a6:	64                   	fs
    88a7:	6c                   	insb   (%dx),%es:(%edi)
    88a8:	65                   	gs
    88a9:	72 5f                	jb     890a <ICH7_8259_Slave_Handler_End+0x1a11>
    88ab:	32 34 39             	xor    (%ecx,%edi,1),%dh
    88ae:	3a 0a                	cmp    (%edx),%cl
    88b0:	00 49 6e             	add    %cl,0x6e(%ecx)
    88b3:	74 65                	je     891a <ICH7_8259_Slave_Handler_End+0x1a21>
    88b5:	72 72                	jb     8929 <ICH7_8259_Slave_Handler_End+0x1a30>
    88b7:	75 70                	jne    8929 <ICH7_8259_Slave_Handler_End+0x1a30>
    88b9:	74 5f                	je     891a <ICH7_8259_Slave_Handler_End+0x1a21>
    88bb:	48                   	dec    %eax
    88bc:	61                   	popa   
    88bd:	6e                   	outsb  %ds:(%esi),(%dx)
    88be:	64                   	fs
    88bf:	6c                   	insb   (%dx),%es:(%edi)
    88c0:	65                   	gs
    88c1:	72 5f                	jb     8922 <ICH7_8259_Slave_Handler_End+0x1a29>
    88c3:	32 35 30 3a 0a 00    	xor    0xa3a30,%dh
    88c9:	49                   	dec    %ecx
    88ca:	6e                   	outsb  %ds:(%esi),(%dx)
    88cb:	74 65                	je     8932 <ICH7_8259_Slave_Handler_End+0x1a39>
    88cd:	72 72                	jb     8941 <ICH7_8259_Slave_Handler_End+0x1a48>
    88cf:	75 70                	jne    8941 <ICH7_8259_Slave_Handler_End+0x1a48>
    88d1:	74 5f                	je     8932 <ICH7_8259_Slave_Handler_End+0x1a39>
    88d3:	48                   	dec    %eax
    88d4:	61                   	popa   
    88d5:	6e                   	outsb  %ds:(%esi),(%dx)
    88d6:	64                   	fs
    88d7:	6c                   	insb   (%dx),%es:(%edi)
    88d8:	65                   	gs
    88d9:	72 5f                	jb     893a <ICH7_8259_Slave_Handler_End+0x1a41>
    88db:	32 35 31 3a 0a 00    	xor    0xa3a31,%dh
    88e1:	49                   	dec    %ecx
    88e2:	6e                   	outsb  %ds:(%esi),(%dx)
    88e3:	74 65                	je     894a <ICH7_8259_Slave_Handler_End+0x1a51>
    88e5:	72 72                	jb     8959 <ICH7_8259_Slave_Handler_End+0x1a60>
    88e7:	75 70                	jne    8959 <ICH7_8259_Slave_Handler_End+0x1a60>
    88e9:	74 5f                	je     894a <ICH7_8259_Slave_Handler_End+0x1a51>
    88eb:	48                   	dec    %eax
    88ec:	61                   	popa   
    88ed:	6e                   	outsb  %ds:(%esi),(%dx)
    88ee:	64                   	fs
    88ef:	6c                   	insb   (%dx),%es:(%edi)
    88f0:	65                   	gs
    88f1:	72 5f                	jb     8952 <ICH7_8259_Slave_Handler_End+0x1a59>
    88f3:	32 35 32 3a 0a 00    	xor    0xa3a32,%dh
    88f9:	49                   	dec    %ecx
    88fa:	6e                   	outsb  %ds:(%esi),(%dx)
    88fb:	74 65                	je     8962 <ICH7_8259_Slave_Handler_End+0x1a69>
    88fd:	72 72                	jb     8971 <ICH7_8259_Slave_Handler_End+0x1a78>
    88ff:	75 70                	jne    8971 <ICH7_8259_Slave_Handler_End+0x1a78>
    8901:	74 5f                	je     8962 <ICH7_8259_Slave_Handler_End+0x1a69>
    8903:	48                   	dec    %eax
    8904:	61                   	popa   
    8905:	6e                   	outsb  %ds:(%esi),(%dx)
    8906:	64                   	fs
    8907:	6c                   	insb   (%dx),%es:(%edi)
    8908:	65                   	gs
    8909:	72 5f                	jb     896a <ICH7_8259_Slave_Handler_End+0x1a71>
    890b:	32 35 33 3a 0a 00    	xor    0xa3a33,%dh
    8911:	49                   	dec    %ecx
    8912:	6e                   	outsb  %ds:(%esi),(%dx)
    8913:	74 65                	je     897a <ICH7_8259_Slave_Handler_End+0x1a81>
    8915:	72 72                	jb     8989 <ICH7_8259_Slave_Handler_End+0x1a90>
    8917:	75 70                	jne    8989 <ICH7_8259_Slave_Handler_End+0x1a90>
    8919:	74 5f                	je     897a <ICH7_8259_Slave_Handler_End+0x1a81>
    891b:	48                   	dec    %eax
    891c:	61                   	popa   
    891d:	6e                   	outsb  %ds:(%esi),(%dx)
    891e:	64                   	fs
    891f:	6c                   	insb   (%dx),%es:(%edi)
    8920:	65                   	gs
    8921:	72 5f                	jb     8982 <ICH7_8259_Slave_Handler_End+0x1a89>
    8923:	32 35 34 3a 0a 00    	xor    0xa3a34,%dh
    8929:	49                   	dec    %ecx
    892a:	6e                   	outsb  %ds:(%esi),(%dx)
    892b:	74 65                	je     8992 <ICH7_8259_Slave_Handler_End+0x1a99>
    892d:	72 72                	jb     89a1 <ICH7_8259_Slave_Handler_End+0x1aa8>
    892f:	75 70                	jne    89a1 <ICH7_8259_Slave_Handler_End+0x1aa8>
    8931:	74 5f                	je     8992 <ICH7_8259_Slave_Handler_End+0x1a99>
    8933:	48                   	dec    %eax
    8934:	61                   	popa   
    8935:	6e                   	outsb  %ds:(%esi),(%dx)
    8936:	64                   	fs
    8937:	6c                   	insb   (%dx),%es:(%edi)
    8938:	65                   	gs
    8939:	72 5f                	jb     899a <ICH7_8259_Slave_Handler_End+0x1aa1>
    893b:	32 35 35 3a 0a 00    	xor    0xa3a35,%dh

Disassembly of section .eh_frame:

00009944 <.eh_frame>:
    9944:	10 00                	adc    %al,(%eax)
    9946:	00 00                	add    %al,(%eax)
    9948:	00 00                	add    %al,(%eax)
    994a:	00 00                	add    %al,(%eax)
    994c:	01 00                	add    %eax,(%eax)
    994e:	01 7c 08 0c          	add    %edi,0xc(%eax,%ecx,1)
    9952:	04 04                	add    $0x4,%al
    9954:	88 01                	mov    %al,(%ecx)
    9956:	00 00                	add    %al,(%eax)
    9958:	1c 00                	sbb    $0x0,%al
    995a:	00 00                	add    %al,(%eax)
    995c:	18 00                	sbb    %al,(%eax)
    995e:	00 00                	add    %al,(%eax)
    9960:	60                   	pusha  
    9961:	08 00                	or     %al,(%eax)
    9963:	00 17                	add    %dl,(%edi)
    9965:	00 00                	add    %al,(%eax)
    9967:	00 41 0e             	add    %al,0xe(%ecx)
    996a:	08 85 02 42 0d 05    	or     %al,0x50d4202(%ebp)
    9970:	53                   	push   %ebx
    9971:	0c 04                	or     $0x4,%al
    9973:	04 c5                	add    $0xc5,%al
    9975:	00 00                	add    %al,(%eax)
    9977:	00 1c 00             	add    %bl,(%eax,%eax,1)
    997a:	00 00                	add    %al,(%eax)
    997c:	38 00                	cmp    %al,(%eax)
    997e:	00 00                	add    %al,(%eax)
    9980:	77 08                	ja     998a <ICH7_8259_Slave_Handler_End+0x2a91>
    9982:	00 00                	add    %al,(%eax)
    9984:	2d 00 00 00 41       	sub    $0x41000000,%eax
    9989:	0e                   	push   %cs
    998a:	08 85 02 42 0d 05    	or     %al,0x50d4202(%ebp)
    9990:	67 c5 0c             	lds    (%si),%ecx
    9993:	04 04                	add    $0x4,%al
    9995:	00 00                	add    %al,(%eax)
    9997:	00 20                	add    %ah,(%eax)
    9999:	00 00                	add    %al,(%eax)
    999b:	00 58 00             	add    %bl,0x0(%eax)
    999e:	00 00                	add    %al,(%eax)
    99a0:	a4                   	movsb  %ds:(%esi),%es:(%edi)
    99a1:	08 00                	or     %al,(%eax)
    99a3:	00 3b                	add    %bh,(%ebx)
    99a5:	00 00                	add    %al,(%eax)
    99a7:	00 41 0e             	add    %al,0xe(%ecx)
    99aa:	08 85 02 42 0d 05    	or     %al,0x50d4202(%ebp)
    99b0:	44                   	inc    %esp
    99b1:	83 03 72             	addl   $0x72,(%ebx)
    99b4:	c3                   	ret    
    99b5:	41                   	inc    %ecx
    99b6:	0c 04                	or     $0x4,%al
    99b8:	04 c5                	add    $0xc5,%al
    99ba:	00 00                	add    %al,(%eax)
    99bc:	1c 00                	sbb    $0x0,%al
    99be:	00 00                	add    %al,(%eax)
    99c0:	7c 00                	jl     99c2 <ICH7_8259_Slave_Handler_End+0x2ac9>
    99c2:	00 00                	add    %al,(%eax)
    99c4:	df 08                	fisttp (%eax)
    99c6:	00 00                	add    %al,(%eax)
    99c8:	de 01                	fiadd  (%ecx)
    99ca:	00 00                	add    %al,(%eax)
    99cc:	41                   	inc    %ecx
    99cd:	0e                   	push   %cs
    99ce:	08 85 02 42 0d 05    	or     %al,0x50d4202(%ebp)
    99d4:	03 da                	add    %edx,%ebx
    99d6:	01 c5                	add    %eax,%ebp
    99d8:	0c 04                	or     $0x4,%al
    99da:	04 00                	add    $0x0,%al
    99dc:	20 00                	and    %al,(%eax)
    99de:	00 00                	add    %al,(%eax)
    99e0:	9c                   	pushf  
    99e1:	00 00                	add    %al,(%eax)
    99e3:	00 bd 0a 00 00 cc    	add    %bh,-0x33fffff6(%ebp)
    99e9:	00 00                	add    %al,(%eax)
    99eb:	00 41 0e             	add    %al,0xe(%ecx)
    99ee:	08 85 02 42 0d 05    	or     %al,0x50d4202(%ebp)
    99f4:	44                   	inc    %esp
    99f5:	83 03 02             	addl   $0x2,(%ebx)
    99f8:	c3                   	ret    
    99f9:	c3                   	ret    
    99fa:	41                   	inc    %ecx
    99fb:	0c 04                	or     $0x4,%al
    99fd:	04 c5                	add    $0xc5,%al
    99ff:	00 1c 00             	add    %bl,(%eax,%eax,1)
    9a02:	00 00                	add    %al,(%eax)
    9a04:	c0 00 00             	rolb   $0x0,(%eax)
    9a07:	00 89 0b 00 00 d0    	add    %cl,-0x2ffffff5(%ecx)
    9a0d:	01 00                	add    %eax,(%eax)
    9a0f:	00 41 0e             	add    %al,0xe(%ecx)
    9a12:	08 85 02 42 0d 05    	or     %al,0x50d4202(%ebp)
    9a18:	03 cc                	add    %esp,%ecx
    9a1a:	01 c5                	add    %eax,%ebp
    9a1c:	0c 04                	or     $0x4,%al
    9a1e:	04 00                	add    $0x0,%al
    9a20:	1c 00                	sbb    $0x0,%al
    9a22:	00 00                	add    %al,(%eax)
    9a24:	e0 00                	loopne 9a26 <ICH7_8259_Slave_Handler_End+0x2b2d>
    9a26:	00 00                	add    %al,(%eax)
    9a28:	59                   	pop    %ecx
    9a29:	0d 00 00 3d 01       	or     $0x13d0000,%eax
    9a2e:	00 00                	add    %al,(%eax)
    9a30:	41                   	inc    %ecx
    9a31:	0e                   	push   %cs
    9a32:	08 85 02 42 0d 05    	or     %al,0x50d4202(%ebp)
    9a38:	49                   	dec    %ecx
    9a39:	83 05 86 04 87 03 00 	addl   $0x0,0x3870486
    9a40:	1c 00                	sbb    $0x0,%al
    9a42:	00 00                	add    %al,(%eax)
    9a44:	00 01                	add    %al,(%ecx)
    9a46:	00 00                	add    %al,(%eax)
    9a48:	96                   	xchg   %eax,%esi
    9a49:	0e                   	push   %cs
    9a4a:	00 00                	add    %al,(%eax)
    9a4c:	0d 00 00 00 41       	or     $0x41000000,%eax
    9a51:	0e                   	push   %cs
    9a52:	08 85 02 42 0d 05    	or     %al,0x50d4202(%ebp)
    9a58:	49                   	dec    %ecx
    9a59:	c5 0c 04             	lds    (%esp,%eax,1),%ecx
    9a5c:	04 00                	add    $0x0,%al
    9a5e:	00 00                	add    %al,(%eax)
    9a60:	1c 00                	sbb    $0x0,%al
    9a62:	00 00                	add    %al,(%eax)
    9a64:	20 01                	and    %al,(%ecx)
    9a66:	00 00                	add    %al,(%eax)
    9a68:	a3 0e 00 00 73       	mov    %eax,0x7300000e
    9a6d:	00 00                	add    %al,(%eax)
    9a6f:	00 41 0e             	add    %al,0xe(%ecx)
    9a72:	08 85 02 42 0d 05    	or     %al,0x50d4202(%ebp)
    9a78:	02 6f c5             	add    -0x3b(%edi),%ch
    9a7b:	0c 04                	or     $0x4,%al
    9a7d:	04 00                	add    $0x0,%al
    9a7f:	00 20                	add    %ah,(%eax)
    9a81:	00 00                	add    %al,(%eax)
    9a83:	00 40 01             	add    %al,0x1(%eax)
    9a86:	00 00                	add    %al,(%eax)
    9a88:	16                   	push   %ss
    9a89:	0f 00 00             	sldt   (%eax)
    9a8c:	a4                   	movsb  %ds:(%esi),%es:(%edi)
    9a8d:	00 00                	add    %al,(%eax)
    9a8f:	00 41 0e             	add    %al,0xe(%ecx)
    9a92:	08 85 02 42 0d 05    	or     %al,0x50d4202(%ebp)
    9a98:	44                   	inc    %esp
    9a99:	83 03 02             	addl   $0x2,(%ebx)
    9a9c:	9b                   	fwait
    9a9d:	c3                   	ret    
    9a9e:	41                   	inc    %ecx
    9a9f:	0c 04                	or     $0x4,%al
    9aa1:	04 c5                	add    $0xc5,%al
    9aa3:	00 20                	add    %ah,(%eax)
    9aa5:	00 00                	add    %al,(%eax)
    9aa7:	00 64 01 00          	add    %ah,0x0(%ecx,%eax,1)
    9aab:	00 ba 0f 00 00 a7    	add    %bh,-0x58fffff1(%edx)
    9ab1:	00 00                	add    %al,(%eax)
    9ab3:	00 41 0e             	add    %al,0xe(%ecx)
    9ab6:	08 85 02 42 0d 05    	or     %al,0x50d4202(%ebp)
    9abc:	44                   	inc    %esp
    9abd:	83 03 02             	addl   $0x2,(%ebx)
    9ac0:	9e                   	sahf   
    9ac1:	c3                   	ret    
    9ac2:	41                   	inc    %ecx
    9ac3:	0c 04                	or     $0x4,%al
    9ac5:	04 c5                	add    $0xc5,%al
    9ac7:	00 1c 00             	add    %bl,(%eax,%eax,1)
    9aca:	00 00                	add    %al,(%eax)
    9acc:	88 01                	mov    %al,(%ecx)
    9ace:	00 00                	add    %al,(%eax)
    9ad0:	61                   	popa   
    9ad1:	10 00                	adc    %al,(%eax)
    9ad3:	00 c1                	add    %al,%cl
    9ad5:	00 00                	add    %al,(%eax)
    9ad7:	00 41 0e             	add    %al,0xe(%ecx)
    9ada:	08 85 02 42 0d 05    	or     %al,0x50d4202(%ebp)
    9ae0:	02 bd c5 0c 04 04    	add    0x4040cc5(%ebp),%bh
    9ae6:	00 00                	add    %al,(%eax)
    9ae8:	1c 00                	sbb    $0x0,%al
    9aea:	00 00                	add    %al,(%eax)
    9aec:	a8 01                	test   $0x1,%al
    9aee:	00 00                	add    %al,(%eax)
    9af0:	22 11                	and    (%ecx),%dl
    9af2:	00 00                	add    %al,(%eax)
    9af4:	15 01 00 00 41       	adc    $0x41000001,%eax
    9af9:	0e                   	push   %cs
    9afa:	08 85 02 42 0d 05    	or     %al,0x50d4202(%ebp)
    9b00:	03 11                	add    (%ecx),%edx
    9b02:	01 c5                	add    %eax,%ebp
    9b04:	0c 04                	or     $0x4,%al
    9b06:	04 00                	add    $0x0,%al
    9b08:	20 00                	and    %al,(%eax)
    9b0a:	00 00                	add    %al,(%eax)
    9b0c:	c8 01 00 00          	enter  $0x1,$0x0
    9b10:	37                   	aaa    
    9b11:	12 00                	adc    (%eax),%al
    9b13:	00 54 03 00          	add    %dl,0x0(%ebx,%eax,1)
    9b17:	00 41 0e             	add    %al,0xe(%ecx)
    9b1a:	08 85 02 42 0d 05    	or     %al,0x50d4202(%ebp)
    9b20:	44                   	inc    %esp
    9b21:	83 03 03             	addl   $0x3,(%ebx)
    9b24:	4b                   	dec    %ebx
    9b25:	03 c3                	add    %ebx,%eax
    9b27:	41                   	inc    %ecx
    9b28:	0c 04                	or     $0x4,%al
    9b2a:	04 c5                	add    $0xc5,%al
    9b2c:	1c 00                	sbb    $0x0,%al
    9b2e:	00 00                	add    %al,(%eax)
    9b30:	ec                   	in     (%dx),%al
    9b31:	01 00                	add    %eax,(%eax)
    9b33:	00 8b 15 00 00 48    	add    %cl,0x48000015(%ebx)
    9b39:	00 00                	add    %al,(%eax)
    9b3b:	00 41 0e             	add    %al,0xe(%ecx)
    9b3e:	08 85 02 42 0d 05    	or     %al,0x50d4202(%ebp)
    9b44:	02 44 c5 0c          	add    0xc(%ebp,%eax,8),%al
    9b48:	04 04                	add    $0x4,%al
    9b4a:	00 00                	add    %al,(%eax)
    9b4c:	1c 00                	sbb    $0x0,%al
    9b4e:	00 00                	add    %al,(%eax)
    9b50:	0c 02                	or     $0x2,%al
    9b52:	00 00                	add    %al,(%eax)
    9b54:	d3 15 00 00 17 00    	rcll   %cl,0x170000
    9b5a:	00 00                	add    %al,(%eax)
    9b5c:	41                   	inc    %ecx
    9b5d:	0e                   	push   %cs
    9b5e:	08 85 02 42 0d 05    	or     %al,0x50d4202(%ebp)
    9b64:	53                   	push   %ebx
    9b65:	c5 0c 04             	lds    (%esp,%eax,1),%ecx
    9b68:	04 00                	add    $0x0,%al
    9b6a:	00 00                	add    %al,(%eax)
    9b6c:	1c 00                	sbb    $0x0,%al
    9b6e:	00 00                	add    %al,(%eax)
    9b70:	2c 02                	sub    $0x2,%al
    9b72:	00 00                	add    %al,(%eax)
    9b74:	ea 15 00 00 26 00 00 	ljmp   $0x0,$0x26000015
    9b7b:	00 41 0e             	add    %al,0xe(%ecx)
    9b7e:	08 85 02 42 0d 05    	or     %al,0x50d4202(%ebp)
    9b84:	62                   	(bad)  
    9b85:	c5 0c 04             	lds    (%esp,%eax,1),%ecx
    9b88:	04 00                	add    $0x0,%al
    9b8a:	00 00                	add    %al,(%eax)
    9b8c:	1c 00                	sbb    $0x0,%al
    9b8e:	00 00                	add    %al,(%eax)
    9b90:	4c                   	dec    %esp
    9b91:	02 00                	add    (%eax),%al
    9b93:	00 10                	add    %dl,(%eax)
    9b95:	16                   	push   %ss
    9b96:	00 00                	add    %al,(%eax)
    9b98:	d0 00                	rolb   (%eax)
    9b9a:	00 00                	add    %al,(%eax)
    9b9c:	41                   	inc    %ecx
    9b9d:	0e                   	push   %cs
    9b9e:	08 85 02 42 0d 05    	or     %al,0x50d4202(%ebp)
    9ba4:	02 ca                	add    %dl,%cl
    9ba6:	c5 0c 04             	lds    (%esp,%eax,1),%ecx
    9ba9:	04 00                	add    $0x0,%al
    9bab:	00 1c 00             	add    %bl,(%eax,%eax,1)
    9bae:	00 00                	add    %al,(%eax)
    9bb0:	6c                   	insb   (%dx),%es:(%edi)
    9bb1:	02 00                	add    (%eax),%al
    9bb3:	00 e0                	add    %ah,%al
    9bb5:	16                   	push   %ss
    9bb6:	00 00                	add    %al,(%eax)
    9bb8:	0c 01                	or     $0x1,%al
    9bba:	00 00                	add    %al,(%eax)
    9bbc:	41                   	inc    %ecx
    9bbd:	0e                   	push   %cs
    9bbe:	08 85 02 42 0d 05    	or     %al,0x50d4202(%ebp)
    9bc4:	03 08                	add    (%eax),%ecx
    9bc6:	01 c5                	add    %eax,%ebp
    9bc8:	0c 04                	or     $0x4,%al
    9bca:	04 00                	add    $0x0,%al
    9bcc:	1c 00                	sbb    $0x0,%al
    9bce:	00 00                	add    %al,(%eax)
    9bd0:	8c 02                	mov    %es,(%edx)
    9bd2:	00 00                	add    %al,(%eax)
    9bd4:	ec                   	in     (%dx),%al
    9bd5:	17                   	pop    %ss
    9bd6:	00 00                	add    %al,(%eax)
    9bd8:	16                   	push   %ss
    9bd9:	00 00                	add    %al,(%eax)
    9bdb:	00 41 0e             	add    %al,0xe(%ecx)
    9bde:	08 85 02 42 0d 05    	or     %al,0x50d4202(%ebp)
    9be4:	52                   	push   %edx
    9be5:	0c 04                	or     $0x4,%al
    9be7:	04 c5                	add    $0xc5,%al
    9be9:	00 00                	add    %al,(%eax)
    9beb:	00 1c 00             	add    %bl,(%eax,%eax,1)
    9bee:	00 00                	add    %al,(%eax)
    9bf0:	ac                   	lods   %ds:(%esi),%al
    9bf1:	02 00                	add    (%eax),%al
    9bf3:	00 02                	add    %al,(%edx)
    9bf5:	18 00                	sbb    %al,(%eax)
    9bf7:	00 18                	add    %bl,(%eax)
    9bf9:	00 00                	add    %al,(%eax)
    9bfb:	00 41 0e             	add    %al,0xe(%ecx)
    9bfe:	08 85 02 42 0d 05    	or     %al,0x50d4202(%ebp)
    9c04:	54                   	push   %esp
    9c05:	0c 04                	or     $0x4,%al
    9c07:	04 c5                	add    $0xc5,%al
    9c09:	00 00                	add    %al,(%eax)
    9c0b:	00 1c 00             	add    %bl,(%eax,%eax,1)
    9c0e:	00 00                	add    %al,(%eax)
    9c10:	cc                   	int3   
    9c11:	02 00                	add    (%eax),%al
    9c13:	00 1a                	add    %bl,(%edx)
    9c15:	18 00                	sbb    %al,(%eax)
    9c17:	00 0c 01             	add    %cl,(%ecx,%eax,1)
    9c1a:	00 00                	add    %al,(%eax)
    9c1c:	41                   	inc    %ecx
    9c1d:	0e                   	push   %cs
    9c1e:	08 85 02 42 0d 05    	or     %al,0x50d4202(%ebp)
    9c24:	03 06                	add    (%esi),%eax
    9c26:	01 c5                	add    %eax,%ebp
    9c28:	0c 04                	or     $0x4,%al
    9c2a:	04 00                	add    $0x0,%al
    9c2c:	1c 00                	sbb    $0x0,%al
    9c2e:	00 00                	add    %al,(%eax)
    9c30:	ec                   	in     (%dx),%al
    9c31:	02 00                	add    (%eax),%al
    9c33:	00 26                	add    %ah,(%esi)
    9c35:	19 00                	sbb    %eax,(%eax)
    9c37:	00 14 01             	add    %dl,(%ecx,%eax,1)
    9c3a:	00 00                	add    %al,(%eax)
    9c3c:	41                   	inc    %ecx
    9c3d:	0e                   	push   %cs
    9c3e:	08 85 02 42 0d 05    	or     %al,0x50d4202(%ebp)
    9c44:	03 10                	add    (%eax),%edx
    9c46:	01 c5                	add    %eax,%ebp
    9c48:	0c 04                	or     $0x4,%al
    9c4a:	04 00                	add    $0x0,%al
    9c4c:	1c 00                	sbb    $0x0,%al
    9c4e:	00 00                	add    %al,(%eax)
    9c50:	0c 03                	or     $0x3,%al
    9c52:	00 00                	add    %al,(%eax)
    9c54:	3a 1a                	cmp    (%edx),%bl
    9c56:	00 00                	add    %al,(%eax)
    9c58:	16                   	push   %ss
    9c59:	00 00                	add    %al,(%eax)
    9c5b:	00 41 0e             	add    %al,0xe(%ecx)
    9c5e:	08 85 02 42 0d 05    	or     %al,0x50d4202(%ebp)
    9c64:	52                   	push   %edx
    9c65:	0c 04                	or     $0x4,%al
    9c67:	04 c5                	add    $0xc5,%al
    9c69:	00 00                	add    %al,(%eax)
    9c6b:	00 1c 00             	add    %bl,(%eax,%eax,1)
    9c6e:	00 00                	add    %al,(%eax)
    9c70:	2c 03                	sub    $0x3,%al
    9c72:	00 00                	add    %al,(%eax)
    9c74:	50                   	push   %eax
    9c75:	1a 00                	sbb    (%eax),%al
    9c77:	00 18                	add    %bl,(%eax)
    9c79:	00 00                	add    %al,(%eax)
    9c7b:	00 41 0e             	add    %al,0xe(%ecx)
    9c7e:	08 85 02 42 0d 05    	or     %al,0x50d4202(%ebp)
    9c84:	54                   	push   %esp
    9c85:	0c 04                	or     $0x4,%al
    9c87:	04 c5                	add    $0xc5,%al
    9c89:	00 00                	add    %al,(%eax)
    9c8b:	00 1c 00             	add    %bl,(%eax,%eax,1)
    9c8e:	00 00                	add    %al,(%eax)
    9c90:	4c                   	dec    %esp
    9c91:	03 00                	add    (%eax),%eax
    9c93:	00 68 1a             	add    %ch,0x1a(%eax)
    9c96:	00 00                	add    %al,(%eax)
    9c98:	28 00                	sub    %al,(%eax)
    9c9a:	00 00                	add    %al,(%eax)
    9c9c:	41                   	inc    %ecx
    9c9d:	0e                   	push   %cs
    9c9e:	08 85 02 42 0d 05    	or     %al,0x50d4202(%ebp)
    9ca4:	64 c5 0c 04          	lds    %fs:(%esp,%eax,1),%ecx
    9ca8:	04 00                	add    $0x0,%al
    9caa:	00 00                	add    %al,(%eax)
    9cac:	1c 00                	sbb    $0x0,%al
    9cae:	00 00                	add    %al,(%eax)
    9cb0:	6c                   	insb   (%dx),%es:(%edi)
    9cb1:	03 00                	add    (%eax),%eax
    9cb3:	00 90 1a 00 00 50    	add    %dl,0x5000001a(%eax)
    9cb9:	00 00                	add    %al,(%eax)
    9cbb:	00 41 0e             	add    %al,0xe(%ecx)
    9cbe:	08 85 02 42 0d 05    	or     %al,0x50d4202(%ebp)
    9cc4:	02 4c c5 0c          	add    0xc(%ebp,%eax,8),%cl
    9cc8:	04 04                	add    $0x4,%al
    9cca:	00 00                	add    %al,(%eax)
    9ccc:	1c 00                	sbb    $0x0,%al
    9cce:	00 00                	add    %al,(%eax)
    9cd0:	8c 03                	mov    %es,(%ebx)
    9cd2:	00 00                	add    %al,(%eax)
    9cd4:	e0 1a                	loopne 9cf0 <ICH7_8259_Slave_Handler_End+0x2df7>
    9cd6:	00 00                	add    %al,(%eax)
    9cd8:	48                   	dec    %eax
    9cd9:	00 00                	add    %al,(%eax)
    9cdb:	00 41 0e             	add    %al,0xe(%ecx)
    9cde:	08 85 02 42 0d 05    	or     %al,0x50d4202(%ebp)
    9ce4:	02 44 c5 0c          	add    0xc(%ebp,%eax,8),%al
    9ce8:	04 04                	add    $0x4,%al
    9cea:	00 00                	add    %al,(%eax)
    9cec:	1c 00                	sbb    $0x0,%al
    9cee:	00 00                	add    %al,(%eax)
    9cf0:	ac                   	lods   %ds:(%esi),%al
    9cf1:	03 00                	add    (%eax),%eax
    9cf3:	00 28                	add    %ch,(%eax)
    9cf5:	1b 00                	sbb    (%eax),%eax
    9cf7:	00 3d 00 00 00 41    	add    %bh,0x41000000
    9cfd:	0e                   	push   %cs
    9cfe:	08 85 02 42 0d 05    	or     %al,0x50d4202(%ebp)
    9d04:	79 c5                	jns    9ccb <ICH7_8259_Slave_Handler_End+0x2dd2>
    9d06:	0c 04                	or     $0x4,%al
    9d08:	04 00                	add    $0x0,%al
    9d0a:	00 00                	add    %al,(%eax)
    9d0c:	20 00                	and    %al,(%eax)
    9d0e:	00 00                	add    %al,(%eax)
    9d10:	cc                   	int3   
    9d11:	03 00                	add    (%eax),%eax
    9d13:	00 65 1b             	add    %ah,0x1b(%ebp)
    9d16:	00 00                	add    %al,(%eax)
    9d18:	bc 00 00 00 41       	mov    $0x41000000,%esp
    9d1d:	0e                   	push   %cs
    9d1e:	08 85 02 42 0d 05    	or     %al,0x50d4202(%ebp)
    9d24:	44                   	inc    %esp
    9d25:	83 03 02             	addl   $0x2,(%ebx)
    9d28:	b3 c3                	mov    $0xc3,%bl
    9d2a:	41                   	inc    %ecx
    9d2b:	0c 04                	or     $0x4,%al
    9d2d:	04 c5                	add    $0xc5,%al
    9d2f:	00 1c 00             	add    %bl,(%eax,%eax,1)
    9d32:	00 00                	add    %al,(%eax)
    9d34:	f0 03 00             	lock add (%eax),%eax
    9d37:	00 21                	add    %ah,(%ecx)
    9d39:	1c 00                	sbb    $0x0,%al
    9d3b:	00 3f                	add    %bh,(%edi)
    9d3d:	00 00                	add    %al,(%eax)
    9d3f:	00 41 0e             	add    %al,0xe(%ecx)
    9d42:	08 85 02 42 0d 05    	or     %al,0x50d4202(%ebp)
    9d48:	7b c5                	jnp    9d0f <ICH7_8259_Slave_Handler_End+0x2e16>
    9d4a:	0c 04                	or     $0x4,%al
    9d4c:	04 00                	add    $0x0,%al
    9d4e:	00 00                	add    %al,(%eax)
    9d50:	20 00                	and    %al,(%eax)
    9d52:	00 00                	add    %al,(%eax)
    9d54:	10 04 00             	adc    %al,(%eax,%eax,1)
    9d57:	00 60 1c             	add    %ah,0x1c(%eax)
    9d5a:	00 00                	add    %al,(%eax)
    9d5c:	04 01                	add    $0x1,%al
    9d5e:	00 00                	add    %al,(%eax)
    9d60:	41                   	inc    %ecx
    9d61:	0e                   	push   %cs
    9d62:	08 85 02 42 0d 05    	or     %al,0x50d4202(%ebp)
    9d68:	44                   	inc    %esp
    9d69:	83 03 02             	addl   $0x2,(%ebx)
    9d6c:	fb                   	sti    
    9d6d:	c3                   	ret    
    9d6e:	41                   	inc    %ecx
    9d6f:	0c 04                	or     $0x4,%al
    9d71:	04 c5                	add    $0xc5,%al
    9d73:	00 1c 00             	add    %bl,(%eax,%eax,1)
    9d76:	00 00                	add    %al,(%eax)
    9d78:	34 04                	xor    $0x4,%al
    9d7a:	00 00                	add    %al,(%eax)
    9d7c:	64                   	fs
    9d7d:	1d 00 00 5e 00       	sbb    $0x5e0000,%eax
    9d82:	00 00                	add    %al,(%eax)
    9d84:	41                   	inc    %ecx
    9d85:	0e                   	push   %cs
    9d86:	08 85 02 42 0d 05    	or     %al,0x50d4202(%ebp)
    9d8c:	02 5a c5             	add    -0x3b(%edx),%bl
    9d8f:	0c 04                	or     $0x4,%al
    9d91:	04 00                	add    $0x0,%al
    9d93:	00 1c 00             	add    %bl,(%eax,%eax,1)
    9d96:	00 00                	add    %al,(%eax)
    9d98:	54                   	push   %esp
    9d99:	04 00                	add    $0x0,%al
    9d9b:	00 c2                	add    %al,%dl
    9d9d:	1d 00 00 13 00       	sbb    $0x130000,%eax
    9da2:	00 00                	add    %al,(%eax)
    9da4:	41                   	inc    %ecx
    9da5:	0e                   	push   %cs
    9da6:	08 85 02 42 0d 05    	or     %al,0x50d4202(%ebp)
    9dac:	4f                   	dec    %edi
    9dad:	c5 0c 04             	lds    (%esp,%eax,1),%ecx
    9db0:	04 00                	add    $0x0,%al
    9db2:	00 00                	add    %al,(%eax)
    9db4:	1c 00                	sbb    $0x0,%al
    9db6:	00 00                	add    %al,(%eax)
    9db8:	74 04                	je     9dbe <ICH7_8259_Slave_Handler_End+0x2ec5>
    9dba:	00 00                	add    %al,(%eax)
    9dbc:	d5 1d                	aad    $0x1d
    9dbe:	00 00                	add    %al,(%eax)
    9dc0:	42                   	inc    %edx
    9dc1:	00 00                	add    %al,(%eax)
    9dc3:	00 41 0e             	add    %al,0xe(%ecx)
    9dc6:	08 85 02 42 0d 05    	or     %al,0x50d4202(%ebp)
    9dcc:	7e c5                	jle    9d93 <ICH7_8259_Slave_Handler_End+0x2e9a>
    9dce:	0c 04                	or     $0x4,%al
    9dd0:	04 00                	add    $0x0,%al
    9dd2:	00 00                	add    %al,(%eax)
    9dd4:	1c 00                	sbb    $0x0,%al
    9dd6:	00 00                	add    %al,(%eax)
    9dd8:	94                   	xchg   %eax,%esp
    9dd9:	04 00                	add    $0x0,%al
    9ddb:	00 17                	add    %dl,(%edi)
    9ddd:	1e                   	push   %ds
    9dde:	00 00                	add    %al,(%eax)
    9de0:	36 00 00             	add    %al,%ss:(%eax)
    9de3:	00 41 0e             	add    %al,0xe(%ecx)
    9de6:	08 85 02 42 0d 05    	or     %al,0x50d4202(%ebp)
    9dec:	72 0c                	jb     9dfa <ICH7_8259_Slave_Handler_End+0x2f01>
    9dee:	04 04                	add    $0x4,%al
    9df0:	c5 00                	lds    (%eax),%eax
    9df2:	00 00                	add    %al,(%eax)
    9df4:	24 00                	and    $0x0,%al
    9df6:	00 00                	add    %al,(%eax)
    9df8:	b4 04                	mov    $0x4,%ah
    9dfa:	00 00                	add    %al,(%eax)
    9dfc:	4d                   	dec    %ebp
    9dfd:	1e                   	push   %ds
    9dfe:	00 00                	add    %al,(%eax)
    9e00:	0b 02                	or     (%edx),%eax
    9e02:	00 00                	add    %al,(%eax)
    9e04:	41                   	inc    %ecx
    9e05:	0e                   	push   %cs
    9e06:	08 85 02 42 0d 05    	or     %al,0x50d4202(%ebp)
    9e0c:	45                   	inc    %ebp
    9e0d:	83 04 86 03          	addl   $0x3,(%esi,%eax,4)
    9e11:	03 00                	add    (%eax),%eax
    9e13:	02 c3                	add    %bl,%al
    9e15:	41                   	inc    %ecx
    9e16:	c6 41 0c 04          	movb   $0x4,0xc(%ecx)
    9e1a:	04 c5                	add    $0xc5,%al
    9e1c:	20 00                	and    %al,(%eax)
    9e1e:	00 00                	add    %al,(%eax)
    9e20:	dc 04 00             	faddl  (%eax,%eax,1)
    9e23:	00 58 20             	add    %bl,0x20(%eax)
    9e26:	00 00                	add    %al,(%eax)
    9e28:	f7 00 00 00 41 0e    	testl  $0xe410000,(%eax)
    9e2e:	08 85 02 42 0d 05    	or     %al,0x50d4202(%ebp)
    9e34:	44                   	inc    %esp
    9e35:	83 03 02             	addl   $0x2,(%ebx)
    9e38:	ee                   	out    %al,(%dx)
    9e39:	c3                   	ret    
    9e3a:	41                   	inc    %ecx
    9e3b:	0c 04                	or     $0x4,%al
    9e3d:	04 c5                	add    $0xc5,%al
    9e3f:	00 1c 00             	add    %bl,(%eax,%eax,1)
    9e42:	00 00                	add    %al,(%eax)
    9e44:	00 05 00 00 4f 21    	add    %al,0x214f0000
    9e4a:	00 00                	add    %al,(%eax)
    9e4c:	6a 00                	push   $0x0
    9e4e:	00 00                	add    %al,(%eax)
    9e50:	41                   	inc    %ecx
    9e51:	0e                   	push   %cs
    9e52:	08 85 02 42 0d 05    	or     %al,0x50d4202(%ebp)
    9e58:	02 66 c5             	add    -0x3b(%esi),%ah
    9e5b:	0c 04                	or     $0x4,%al
    9e5d:	04 00                	add    $0x0,%al
    9e5f:	00 1c 00             	add    %bl,(%eax,%eax,1)
    9e62:	00 00                	add    %al,(%eax)
    9e64:	20 05 00 00 b9 21    	and    %al,0x21b90000
    9e6a:	00 00                	add    %al,(%eax)
    9e6c:	38 00                	cmp    %al,(%eax)
    9e6e:	00 00                	add    %al,(%eax)
    9e70:	41                   	inc    %ecx
    9e71:	0e                   	push   %cs
    9e72:	08 85 02 42 0d 05    	or     %al,0x50d4202(%ebp)
    9e78:	74 c5                	je     9e3f <ICH7_8259_Slave_Handler_End+0x2f46>
    9e7a:	0c 04                	or     $0x4,%al
    9e7c:	04 00                	add    $0x0,%al
    9e7e:	00 00                	add    %al,(%eax)
    9e80:	1c 00                	sbb    $0x0,%al
    9e82:	00 00                	add    %al,(%eax)
    9e84:	40                   	inc    %eax
    9e85:	05 00 00 f1 21       	add    $0x21f10000,%eax
    9e8a:	00 00                	add    %al,(%eax)
    9e8c:	6a 00                	push   $0x0
    9e8e:	00 00                	add    %al,(%eax)
    9e90:	41                   	inc    %ecx
    9e91:	0e                   	push   %cs
    9e92:	08 85 02 42 0d 05    	or     %al,0x50d4202(%ebp)
    9e98:	02 66 c5             	add    -0x3b(%esi),%ah
    9e9b:	0c 04                	or     $0x4,%al
    9e9d:	04 00                	add    $0x0,%al
    9e9f:	00 1c 00             	add    %bl,(%eax,%eax,1)
    9ea2:	00 00                	add    %al,(%eax)
    9ea4:	60                   	pusha  
    9ea5:	05 00 00 5b 22       	add    $0x225b0000,%eax
    9eaa:	00 00                	add    %al,(%eax)
    9eac:	33 00                	xor    (%eax),%eax
    9eae:	00 00                	add    %al,(%eax)
    9eb0:	41                   	inc    %ecx
    9eb1:	0e                   	push   %cs
    9eb2:	08 85 02 42 0d 05    	or     %al,0x50d4202(%ebp)
    9eb8:	6f                   	outsl  %ds:(%esi),(%dx)
    9eb9:	c5 0c 04             	lds    (%esp,%eax,1),%ecx
    9ebc:	04 00                	add    $0x0,%al
    9ebe:	00 00                	add    %al,(%eax)
    9ec0:	1c 00                	sbb    $0x0,%al
    9ec2:	00 00                	add    %al,(%eax)
    9ec4:	80 05 00 00 8e 22 00 	addb   $0x0,0x228e0000
    9ecb:	00 9c 00 00 00 41 0e 	add    %bl,0xe410000(%eax,%eax,1)
    9ed2:	08 85 02 42 0d 05    	or     %al,0x50d4202(%ebp)
    9ed8:	02 98 c5 0c 04 04    	add    0x4040cc5(%eax),%bl
    9ede:	00 00                	add    %al,(%eax)
    9ee0:	1c 00                	sbb    $0x0,%al
    9ee2:	00 00                	add    %al,(%eax)
    9ee4:	a0 05 00 00 2a       	mov    0x2a000005,%al
    9ee9:	23 00                	and    (%eax),%eax
    9eeb:	00 0b                	add    %cl,(%ebx)
    9eed:	00 00                	add    %al,(%eax)
    9eef:	00 41 0e             	add    %al,0xe(%ecx)
    9ef2:	08 85 02 42 0d 05    	or     %al,0x50d4202(%ebp)
    9ef8:	47                   	inc    %edi
    9ef9:	0c 04                	or     $0x4,%al
    9efb:	04 c5                	add    $0xc5,%al
    9efd:	00 00                	add    %al,(%eax)
    9eff:	00 1c 00             	add    %bl,(%eax,%eax,1)
    9f02:	00 00                	add    %al,(%eax)
    9f04:	c0 05 00 00 35 23 00 	rolb   $0x0,0x23350000
    9f0b:	00 1c 00             	add    %bl,(%eax,%eax,1)
    9f0e:	00 00                	add    %al,(%eax)
    9f10:	41                   	inc    %ecx
    9f11:	0e                   	push   %cs
    9f12:	08 85 02 42 0d 05    	or     %al,0x50d4202(%ebp)
    9f18:	58                   	pop    %eax
    9f19:	c5 0c 04             	lds    (%esp,%eax,1),%ecx
    9f1c:	04 00                	add    $0x0,%al
    9f1e:	00 00                	add    %al,(%eax)
    9f20:	1c 00                	sbb    $0x0,%al
    9f22:	00 00                	add    %al,(%eax)
    9f24:	e0 05                	loopne 9f2b <ICH7_8259_Slave_Handler_End+0x3032>
    9f26:	00 00                	add    %al,(%eax)
    9f28:	51                   	push   %ecx
    9f29:	23 00                	and    (%eax),%eax
    9f2b:	00 1c 00             	add    %bl,(%eax,%eax,1)
    9f2e:	00 00                	add    %al,(%eax)
    9f30:	41                   	inc    %ecx
    9f31:	0e                   	push   %cs
    9f32:	08 85 02 42 0d 05    	or     %al,0x50d4202(%ebp)
    9f38:	58                   	pop    %eax
    9f39:	c5 0c 04             	lds    (%esp,%eax,1),%ecx
    9f3c:	04 00                	add    $0x0,%al
    9f3e:	00 00                	add    %al,(%eax)
    9f40:	1c 00                	sbb    $0x0,%al
    9f42:	00 00                	add    %al,(%eax)
    9f44:	00 06                	add    %al,(%esi)
    9f46:	00 00                	add    %al,(%eax)
    9f48:	6d                   	insl   (%dx),%es:(%edi)
    9f49:	23 00                	and    (%eax),%eax
    9f4b:	00 1c 00             	add    %bl,(%eax,%eax,1)
    9f4e:	00 00                	add    %al,(%eax)
    9f50:	41                   	inc    %ecx
    9f51:	0e                   	push   %cs
    9f52:	08 85 02 42 0d 05    	or     %al,0x50d4202(%ebp)
    9f58:	58                   	pop    %eax
    9f59:	c5 0c 04             	lds    (%esp,%eax,1),%ecx
    9f5c:	04 00                	add    $0x0,%al
    9f5e:	00 00                	add    %al,(%eax)
    9f60:	1c 00                	sbb    $0x0,%al
    9f62:	00 00                	add    %al,(%eax)
    9f64:	20 06                	and    %al,(%esi)
    9f66:	00 00                	add    %al,(%eax)
    9f68:	89 23                	mov    %esp,(%ebx)
    9f6a:	00 00                	add    %al,(%eax)
    9f6c:	ec                   	in     (%dx),%al
    9f6d:	00 00                	add    %al,(%eax)
    9f6f:	00 41 0e             	add    %al,0xe(%ecx)
    9f72:	08 85 02 42 0d 05    	or     %al,0x50d4202(%ebp)
    9f78:	02 e8                	add    %al,%ch
    9f7a:	c5 0c 04             	lds    (%esp,%eax,1),%ecx
    9f7d:	04 00                	add    $0x0,%al
    9f7f:	00 1c 00             	add    %bl,(%eax,%eax,1)
    9f82:	00 00                	add    %al,(%eax)
    9f84:	40                   	inc    %eax
    9f85:	06                   	push   %es
    9f86:	00 00                	add    %al,(%eax)
    9f88:	75 24                	jne    9fae <ICH7_8259_Slave_Handler_End+0x30b5>
    9f8a:	00 00                	add    %al,(%eax)
    9f8c:	54                   	push   %esp
    9f8d:	00 00                	add    %al,(%eax)
    9f8f:	00 41 0e             	add    %al,0xe(%ecx)
    9f92:	08 85 02 42 0d 05    	or     %al,0x50d4202(%ebp)
    9f98:	02 4e 0c             	add    0xc(%esi),%cl
    9f9b:	04 04                	add    $0x4,%al
    9f9d:	c5 00                	lds    (%eax),%eax
    9f9f:	00 28                	add    %ch,(%eax)
    9fa1:	00 00                	add    %al,(%eax)
    9fa3:	00 60 06             	add    %ah,0x6(%eax)
    9fa6:	00 00                	add    %al,(%eax)
    9fa8:	c9                   	leave  
    9fa9:	24 00                	and    $0x0,%al
    9fab:	00 72 00             	add    %dh,0x0(%edx)
    9fae:	00 00                	add    %al,(%eax)
    9fb0:	41                   	inc    %ecx
    9fb1:	0e                   	push   %cs
    9fb2:	08 85 02 42 0d 05    	or     %al,0x50d4202(%ebp)
    9fb8:	46                   	inc    %esi
    9fb9:	83 05 86 04 87 03 02 	addl   $0x2,0x3870486
    9fc0:	65                   	gs
    9fc1:	c3                   	ret    
    9fc2:	41                   	inc    %ecx
    9fc3:	c6 41 c7 41          	movb   $0x41,-0x39(%ecx)
    9fc7:	0c 04                	or     $0x4,%al
    9fc9:	04 c5                	add    $0xc5,%al
    9fcb:	00 28                	add    %ch,(%eax)
    9fcd:	00 00                	add    %al,(%eax)
    9fcf:	00 8c 06 00 00 3b 25 	add    %cl,0x253b0000(%esi,%eax,1)
    9fd6:	00 00                	add    %al,(%eax)
    9fd8:	72 00                	jb     9fda <ICH7_8259_Slave_Handler_End+0x30e1>
    9fda:	00 00                	add    %al,(%eax)
    9fdc:	41                   	inc    %ecx
    9fdd:	0e                   	push   %cs
    9fde:	08 85 02 42 0d 05    	or     %al,0x50d4202(%ebp)
    9fe4:	46                   	inc    %esi
    9fe5:	83 05 86 04 87 03 02 	addl   $0x2,0x3870486
    9fec:	65                   	gs
    9fed:	c3                   	ret    
    9fee:	41                   	inc    %ecx
    9fef:	c6 41 c7 41          	movb   $0x41,-0x39(%ecx)
    9ff3:	0c 04                	or     $0x4,%al
    9ff5:	04 c5                	add    $0xc5,%al
    9ff7:	00 28                	add    %ch,(%eax)
    9ff9:	00 00                	add    %al,(%eax)
    9ffb:	00 b8 06 00 00 ad    	add    %bh,-0x52fffffa(%eax)
    a001:	25 00 00 72 00       	and    $0x720000,%eax
    a006:	00 00                	add    %al,(%eax)
    a008:	41                   	inc    %ecx
    a009:	0e                   	push   %cs
    a00a:	08 85 02 42 0d 05    	or     %al,0x50d4202(%ebp)
    a010:	46                   	inc    %esi
    a011:	83 05 86 04 87 03 02 	addl   $0x2,0x3870486
    a018:	65                   	gs
    a019:	c3                   	ret    
    a01a:	41                   	inc    %ecx
    a01b:	c6 41 c7 41          	movb   $0x41,-0x39(%ecx)
    a01f:	0c 04                	or     $0x4,%al
    a021:	04 c5                	add    $0xc5,%al
    a023:	00 28                	add    %ch,(%eax)
    a025:	00 00                	add    %al,(%eax)
    a027:	00 e4                	add    %ah,%ah
    a029:	06                   	push   %es
    a02a:	00 00                	add    %al,(%eax)
    a02c:	1f                   	pop    %ds
    a02d:	26 00 00             	add    %al,%es:(%eax)
    a030:	4a                   	dec    %edx
    a031:	01 00                	add    %eax,(%eax)
    a033:	00 41 0e             	add    %al,0xe(%ecx)
    a036:	08 85 02 42 0d 05    	or     %al,0x50d4202(%ebp)
    a03c:	46                   	inc    %esi
    a03d:	83 05 86 04 87 03 03 	addl   $0x3,0x3870486
    a044:	3d 01 c3 41 c6       	cmp    $0xc641c301,%eax
    a049:	41                   	inc    %ecx
    a04a:	c7 41 0c 04 04 c5 28 	movl   $0x28c50404,0xc(%ecx)
    a051:	00 00                	add    %al,(%eax)
    a053:	00 10                	add    %dl,(%eax)
    a055:	07                   	pop    %es
    a056:	00 00                	add    %al,(%eax)
    a058:	69 27 00 00 86 00    	imul   $0x860000,(%edi),%esp
    a05e:	00 00                	add    %al,(%eax)
    a060:	41                   	inc    %ecx
    a061:	0e                   	push   %cs
    a062:	08 85 02 42 0d 05    	or     %al,0x50d4202(%ebp)
    a068:	46                   	inc    %esi
    a069:	83 05 86 04 87 03 02 	addl   $0x2,0x3870486
    a070:	79 c3                	jns    a035 <ICH7_8259_Slave_Handler_End+0x313c>
    a072:	41                   	inc    %ecx
    a073:	c6 41 c7 41          	movb   $0x41,-0x39(%ecx)
    a077:	0c 04                	or     $0x4,%al
    a079:	04 c5                	add    $0xc5,%al
    a07b:	00 28                	add    %ch,(%eax)
    a07d:	00 00                	add    %al,(%eax)
    a07f:	00 3c 07             	add    %bh,(%edi,%eax,1)
    a082:	00 00                	add    %al,(%eax)
    a084:	ef                   	out    %eax,(%dx)
    a085:	27                   	daa    
    a086:	00 00                	add    %al,(%eax)
    a088:	89 00                	mov    %eax,(%eax)
    a08a:	00 00                	add    %al,(%eax)
    a08c:	41                   	inc    %ecx
    a08d:	0e                   	push   %cs
    a08e:	08 85 02 42 0d 05    	or     %al,0x50d4202(%ebp)
    a094:	46                   	inc    %esi
    a095:	83 05 86 04 87 03 02 	addl   $0x2,0x3870486
    a09c:	7c c3                	jl     a061 <ICH7_8259_Slave_Handler_End+0x3168>
    a09e:	41                   	inc    %ecx
    a09f:	c6 41 c7 41          	movb   $0x41,-0x39(%ecx)
    a0a3:	0c 04                	or     $0x4,%al
    a0a5:	04 c5                	add    $0xc5,%al
    a0a7:	00 28                	add    %ch,(%eax)
    a0a9:	00 00                	add    %al,(%eax)
    a0ab:	00 68 07             	add    %ch,0x7(%eax)
    a0ae:	00 00                	add    %al,(%eax)
    a0b0:	78 28                	js     a0da <ICH7_8259_Slave_Handler_End+0x31e1>
    a0b2:	00 00                	add    %al,(%eax)
    a0b4:	89 00                	mov    %eax,(%eax)
    a0b6:	00 00                	add    %al,(%eax)
    a0b8:	41                   	inc    %ecx
    a0b9:	0e                   	push   %cs
    a0ba:	08 85 02 42 0d 05    	or     %al,0x50d4202(%ebp)
    a0c0:	46                   	inc    %esi
    a0c1:	83 05 86 04 87 03 02 	addl   $0x2,0x3870486
    a0c8:	7c c3                	jl     a08d <ICH7_8259_Slave_Handler_End+0x3194>
    a0ca:	41                   	inc    %ecx
    a0cb:	c6 41 c7 41          	movb   $0x41,-0x39(%ecx)
    a0cf:	0c 04                	or     $0x4,%al
    a0d1:	04 c5                	add    $0xc5,%al
    a0d3:	00 28                	add    %ch,(%eax)
    a0d5:	00 00                	add    %al,(%eax)
    a0d7:	00 94 07 00 00 01 29 	add    %dl,0x29010000(%edi,%eax,1)
    a0de:	00 00                	add    %al,(%eax)
    a0e0:	89 00                	mov    %eax,(%eax)
    a0e2:	00 00                	add    %al,(%eax)
    a0e4:	41                   	inc    %ecx
    a0e5:	0e                   	push   %cs
    a0e6:	08 85 02 42 0d 05    	or     %al,0x50d4202(%ebp)
    a0ec:	46                   	inc    %esi
    a0ed:	83 05 86 04 87 03 02 	addl   $0x2,0x3870486
    a0f4:	7c c3                	jl     a0b9 <ICH7_8259_Slave_Handler_End+0x31c0>
    a0f6:	41                   	inc    %ecx
    a0f7:	c6 41 c7 41          	movb   $0x41,-0x39(%ecx)
    a0fb:	0c 04                	or     $0x4,%al
    a0fd:	04 c5                	add    $0xc5,%al
    a0ff:	00 14 00             	add    %dl,(%eax,%eax,1)
    a102:	00 00                	add    %al,(%eax)
    a104:	c0 07 00             	rolb   $0x0,(%edi)
    a107:	00 8a 29 00 00 14    	add    %cl,0x14000029(%edx)
    a10d:	00 00                	add    %al,(%eax)
    a10f:	00 41 0e             	add    %al,0xe(%ecx)
    a112:	08 85 02 42 0d 05    	or     %al,0x50d4202(%ebp)
    a118:	14 00                	adc    $0x0,%al
    a11a:	00 00                	add    %al,(%eax)
    a11c:	d8 07                	fadds  (%edi)
    a11e:	00 00                	add    %al,(%eax)
    a120:	9e                   	sahf   
    a121:	29 00                	sub    %eax,(%eax)
    a123:	00 14 00             	add    %dl,(%eax,%eax,1)
    a126:	00 00                	add    %al,(%eax)
    a128:	41                   	inc    %ecx
    a129:	0e                   	push   %cs
    a12a:	08 85 02 42 0d 05    	or     %al,0x50d4202(%ebp)
    a130:	14 00                	adc    $0x0,%al
    a132:	00 00                	add    %al,(%eax)
    a134:	f0 07                	lock pop %es
    a136:	00 00                	add    %al,(%eax)
    a138:	b2 29                	mov    $0x29,%dl
    a13a:	00 00                	add    %al,(%eax)
    a13c:	14 00                	adc    $0x0,%al
    a13e:	00 00                	add    %al,(%eax)
    a140:	41                   	inc    %ecx
    a141:	0e                   	push   %cs
    a142:	08 85 02 42 0d 05    	or     %al,0x50d4202(%ebp)
    a148:	14 00                	adc    $0x0,%al
    a14a:	00 00                	add    %al,(%eax)
    a14c:	08 08                	or     %cl,(%eax)
    a14e:	00 00                	add    %al,(%eax)
    a150:	c6                   	(bad)  
    a151:	29 00                	sub    %eax,(%eax)
    a153:	00 14 00             	add    %dl,(%eax,%eax,1)
    a156:	00 00                	add    %al,(%eax)
    a158:	41                   	inc    %ecx
    a159:	0e                   	push   %cs
    a15a:	08 85 02 42 0d 05    	or     %al,0x50d4202(%ebp)
    a160:	14 00                	adc    $0x0,%al
    a162:	00 00                	add    %al,(%eax)
    a164:	20 08                	and    %cl,(%eax)
    a166:	00 00                	add    %al,(%eax)
    a168:	da 29                	fisubrl (%ecx)
    a16a:	00 00                	add    %al,(%eax)
    a16c:	14 00                	adc    $0x0,%al
    a16e:	00 00                	add    %al,(%eax)
    a170:	41                   	inc    %ecx
    a171:	0e                   	push   %cs
    a172:	08 85 02 42 0d 05    	or     %al,0x50d4202(%ebp)
    a178:	14 00                	adc    $0x0,%al
    a17a:	00 00                	add    %al,(%eax)
    a17c:	38 08                	cmp    %cl,(%eax)
    a17e:	00 00                	add    %al,(%eax)
    a180:	ee                   	out    %al,(%dx)
    a181:	29 00                	sub    %eax,(%eax)
    a183:	00 14 00             	add    %dl,(%eax,%eax,1)
    a186:	00 00                	add    %al,(%eax)
    a188:	41                   	inc    %ecx
    a189:	0e                   	push   %cs
    a18a:	08 85 02 42 0d 05    	or     %al,0x50d4202(%ebp)
    a190:	14 00                	adc    $0x0,%al
    a192:	00 00                	add    %al,(%eax)
    a194:	50                   	push   %eax
    a195:	08 00                	or     %al,(%eax)
    a197:	00 02                	add    %al,(%edx)
    a199:	2a 00                	sub    (%eax),%al
    a19b:	00 14 00             	add    %dl,(%eax,%eax,1)
    a19e:	00 00                	add    %al,(%eax)
    a1a0:	41                   	inc    %ecx
    a1a1:	0e                   	push   %cs
    a1a2:	08 85 02 42 0d 05    	or     %al,0x50d4202(%ebp)
    a1a8:	14 00                	adc    $0x0,%al
    a1aa:	00 00                	add    %al,(%eax)
    a1ac:	68 08 00 00 16       	push   $0x16000008
    a1b1:	2a 00                	sub    (%eax),%al
    a1b3:	00 14 00             	add    %dl,(%eax,%eax,1)
    a1b6:	00 00                	add    %al,(%eax)
    a1b8:	41                   	inc    %ecx
    a1b9:	0e                   	push   %cs
    a1ba:	08 85 02 42 0d 05    	or     %al,0x50d4202(%ebp)
    a1c0:	1c 00                	sbb    $0x0,%al
    a1c2:	00 00                	add    %al,(%eax)
    a1c4:	80 08 00             	orb    $0x0,(%eax)
    a1c7:	00 2a                	add    %ch,(%edx)
    a1c9:	2a 00                	sub    (%eax),%al
    a1cb:	00 2c 00             	add    %ch,(%eax,%eax,1)
    a1ce:	00 00                	add    %al,(%eax)
    a1d0:	41                   	inc    %ecx
    a1d1:	0e                   	push   %cs
    a1d2:	08 85 02 42 0d 05    	or     %al,0x50d4202(%ebp)
    a1d8:	68 c5 0c 04 04       	push   $0x4040cc5
    a1dd:	00 00                	add    %al,(%eax)
    a1df:	00 14 00             	add    %dl,(%eax,%eax,1)
    a1e2:	00 00                	add    %al,(%eax)
    a1e4:	a0 08 00 00 56       	mov    0x56000008,%al
    a1e9:	2a 00                	sub    (%eax),%al
    a1eb:	00 14 00             	add    %dl,(%eax,%eax,1)
    a1ee:	00 00                	add    %al,(%eax)
    a1f0:	41                   	inc    %ecx
    a1f1:	0e                   	push   %cs
    a1f2:	08 85 02 42 0d 05    	or     %al,0x50d4202(%ebp)
    a1f8:	14 00                	adc    $0x0,%al
    a1fa:	00 00                	add    %al,(%eax)
    a1fc:	b8 08 00 00 6a       	mov    $0x6a000008,%eax
    a201:	2a 00                	sub    (%eax),%al
    a203:	00 14 00             	add    %dl,(%eax,%eax,1)
    a206:	00 00                	add    %al,(%eax)
    a208:	41                   	inc    %ecx
    a209:	0e                   	push   %cs
    a20a:	08 85 02 42 0d 05    	or     %al,0x50d4202(%ebp)
    a210:	14 00                	adc    $0x0,%al
    a212:	00 00                	add    %al,(%eax)
    a214:	d0 08                	rorb   (%eax)
    a216:	00 00                	add    %al,(%eax)
    a218:	7e 2a                	jle    a244 <ICH7_8259_Slave_Handler_End+0x334b>
    a21a:	00 00                	add    %al,(%eax)
    a21c:	14 00                	adc    $0x0,%al
    a21e:	00 00                	add    %al,(%eax)
    a220:	41                   	inc    %ecx
    a221:	0e                   	push   %cs
    a222:	08 85 02 42 0d 05    	or     %al,0x50d4202(%ebp)
    a228:	14 00                	adc    $0x0,%al
    a22a:	00 00                	add    %al,(%eax)
    a22c:	e8 08 00 00 92       	call   9200a239 <_end+0x91ffe5b1>
    a231:	2a 00                	sub    (%eax),%al
    a233:	00 14 00             	add    %dl,(%eax,%eax,1)
    a236:	00 00                	add    %al,(%eax)
    a238:	41                   	inc    %ecx
    a239:	0e                   	push   %cs
    a23a:	08 85 02 42 0d 05    	or     %al,0x50d4202(%ebp)
    a240:	14 00                	adc    $0x0,%al
    a242:	00 00                	add    %al,(%eax)
    a244:	00 09                	add    %cl,(%ecx)
    a246:	00 00                	add    %al,(%eax)
    a248:	a6                   	cmpsb  %es:(%edi),%ds:(%esi)
    a249:	2a 00                	sub    (%eax),%al
    a24b:	00 14 00             	add    %dl,(%eax,%eax,1)
    a24e:	00 00                	add    %al,(%eax)
    a250:	41                   	inc    %ecx
    a251:	0e                   	push   %cs
    a252:	08 85 02 42 0d 05    	or     %al,0x50d4202(%ebp)
    a258:	14 00                	adc    $0x0,%al
    a25a:	00 00                	add    %al,(%eax)
    a25c:	18 09                	sbb    %cl,(%ecx)
    a25e:	00 00                	add    %al,(%eax)
    a260:	ba 2a 00 00 14       	mov    $0x1400002a,%edx
    a265:	00 00                	add    %al,(%eax)
    a267:	00 41 0e             	add    %al,0xe(%ecx)
    a26a:	08 85 02 42 0d 05    	or     %al,0x50d4202(%ebp)
    a270:	14 00                	adc    $0x0,%al
    a272:	00 00                	add    %al,(%eax)
    a274:	30 09                	xor    %cl,(%ecx)
    a276:	00 00                	add    %al,(%eax)
    a278:	ce                   	into   
    a279:	2a 00                	sub    (%eax),%al
    a27b:	00 14 00             	add    %dl,(%eax,%eax,1)
    a27e:	00 00                	add    %al,(%eax)
    a280:	41                   	inc    %ecx
    a281:	0e                   	push   %cs
    a282:	08 85 02 42 0d 05    	or     %al,0x50d4202(%ebp)
    a288:	14 00                	adc    $0x0,%al
    a28a:	00 00                	add    %al,(%eax)
    a28c:	48                   	dec    %eax
    a28d:	09 00                	or     %eax,(%eax)
    a28f:	00 e2                	add    %ah,%dl
    a291:	2a 00                	sub    (%eax),%al
    a293:	00 14 00             	add    %dl,(%eax,%eax,1)
    a296:	00 00                	add    %al,(%eax)
    a298:	41                   	inc    %ecx
    a299:	0e                   	push   %cs
    a29a:	08 85 02 42 0d 05    	or     %al,0x50d4202(%ebp)
    a2a0:	14 00                	adc    $0x0,%al
    a2a2:	00 00                	add    %al,(%eax)
    a2a4:	60                   	pusha  
    a2a5:	09 00                	or     %eax,(%eax)
    a2a7:	00 f6                	add    %dh,%dh
    a2a9:	2a 00                	sub    (%eax),%al
    a2ab:	00 14 00             	add    %dl,(%eax,%eax,1)
    a2ae:	00 00                	add    %al,(%eax)
    a2b0:	41                   	inc    %ecx
    a2b1:	0e                   	push   %cs
    a2b2:	08 85 02 42 0d 05    	or     %al,0x50d4202(%ebp)
    a2b8:	14 00                	adc    $0x0,%al
    a2ba:	00 00                	add    %al,(%eax)
    a2bc:	78 09                	js     a2c7 <ICH7_8259_Slave_Handler_End+0x33ce>
    a2be:	00 00                	add    %al,(%eax)
    a2c0:	0a 2b                	or     (%ebx),%ch
    a2c2:	00 00                	add    %al,(%eax)
    a2c4:	14 00                	adc    $0x0,%al
    a2c6:	00 00                	add    %al,(%eax)
    a2c8:	41                   	inc    %ecx
    a2c9:	0e                   	push   %cs
    a2ca:	08 85 02 42 0d 05    	or     %al,0x50d4202(%ebp)
    a2d0:	14 00                	adc    $0x0,%al
    a2d2:	00 00                	add    %al,(%eax)
    a2d4:	90                   	nop
    a2d5:	09 00                	or     %eax,(%eax)
    a2d7:	00 1e                	add    %bl,(%esi)
    a2d9:	2b 00                	sub    (%eax),%eax
    a2db:	00 14 00             	add    %dl,(%eax,%eax,1)
    a2de:	00 00                	add    %al,(%eax)
    a2e0:	41                   	inc    %ecx
    a2e1:	0e                   	push   %cs
    a2e2:	08 85 02 42 0d 05    	or     %al,0x50d4202(%ebp)
    a2e8:	14 00                	adc    $0x0,%al
    a2ea:	00 00                	add    %al,(%eax)
    a2ec:	a8 09                	test   $0x9,%al
    a2ee:	00 00                	add    %al,(%eax)
    a2f0:	32 2b                	xor    (%ebx),%ch
    a2f2:	00 00                	add    %al,(%eax)
    a2f4:	14 00                	adc    $0x0,%al
    a2f6:	00 00                	add    %al,(%eax)
    a2f8:	41                   	inc    %ecx
    a2f9:	0e                   	push   %cs
    a2fa:	08 85 02 42 0d 05    	or     %al,0x50d4202(%ebp)
    a300:	14 00                	adc    $0x0,%al
    a302:	00 00                	add    %al,(%eax)
    a304:	c0 09 00             	rorb   $0x0,(%ecx)
    a307:	00 46 2b             	add    %al,0x2b(%esi)
    a30a:	00 00                	add    %al,(%eax)
    a30c:	14 00                	adc    $0x0,%al
    a30e:	00 00                	add    %al,(%eax)
    a310:	41                   	inc    %ecx
    a311:	0e                   	push   %cs
    a312:	08 85 02 42 0d 05    	or     %al,0x50d4202(%ebp)
    a318:	14 00                	adc    $0x0,%al
    a31a:	00 00                	add    %al,(%eax)
    a31c:	d8 09                	fmuls  (%ecx)
    a31e:	00 00                	add    %al,(%eax)
    a320:	5a                   	pop    %edx
    a321:	2b 00                	sub    (%eax),%eax
    a323:	00 14 00             	add    %dl,(%eax,%eax,1)
    a326:	00 00                	add    %al,(%eax)
    a328:	41                   	inc    %ecx
    a329:	0e                   	push   %cs
    a32a:	08 85 02 42 0d 05    	or     %al,0x50d4202(%ebp)
    a330:	14 00                	adc    $0x0,%al
    a332:	00 00                	add    %al,(%eax)
    a334:	f0 09 00             	lock or %eax,(%eax)
    a337:	00 6e 2b             	add    %ch,0x2b(%esi)
    a33a:	00 00                	add    %al,(%eax)
    a33c:	14 00                	adc    $0x0,%al
    a33e:	00 00                	add    %al,(%eax)
    a340:	41                   	inc    %ecx
    a341:	0e                   	push   %cs
    a342:	08 85 02 42 0d 05    	or     %al,0x50d4202(%ebp)
    a348:	14 00                	adc    $0x0,%al
    a34a:	00 00                	add    %al,(%eax)
    a34c:	08 0a                	or     %cl,(%edx)
    a34e:	00 00                	add    %al,(%eax)
    a350:	82                   	(bad)  
    a351:	2b 00                	sub    (%eax),%eax
    a353:	00 14 00             	add    %dl,(%eax,%eax,1)
    a356:	00 00                	add    %al,(%eax)
    a358:	41                   	inc    %ecx
    a359:	0e                   	push   %cs
    a35a:	08 85 02 42 0d 05    	or     %al,0x50d4202(%ebp)
    a360:	14 00                	adc    $0x0,%al
    a362:	00 00                	add    %al,(%eax)
    a364:	20 0a                	and    %cl,(%edx)
    a366:	00 00                	add    %al,(%eax)
    a368:	96                   	xchg   %eax,%esi
    a369:	2b 00                	sub    (%eax),%eax
    a36b:	00 14 00             	add    %dl,(%eax,%eax,1)
    a36e:	00 00                	add    %al,(%eax)
    a370:	41                   	inc    %ecx
    a371:	0e                   	push   %cs
    a372:	08 85 02 42 0d 05    	or     %al,0x50d4202(%ebp)
    a378:	14 00                	adc    $0x0,%al
    a37a:	00 00                	add    %al,(%eax)
    a37c:	38 0a                	cmp    %cl,(%edx)
    a37e:	00 00                	add    %al,(%eax)
    a380:	aa                   	stos   %al,%es:(%edi)
    a381:	2b 00                	sub    (%eax),%eax
    a383:	00 14 00             	add    %dl,(%eax,%eax,1)
    a386:	00 00                	add    %al,(%eax)
    a388:	41                   	inc    %ecx
    a389:	0e                   	push   %cs
    a38a:	08 85 02 42 0d 05    	or     %al,0x50d4202(%ebp)
    a390:	14 00                	adc    $0x0,%al
    a392:	00 00                	add    %al,(%eax)
    a394:	50                   	push   %eax
    a395:	0a 00                	or     (%eax),%al
    a397:	00 be 2b 00 00 14    	add    %bh,0x1400002b(%esi)
    a39d:	00 00                	add    %al,(%eax)
    a39f:	00 41 0e             	add    %al,0xe(%ecx)
    a3a2:	08 85 02 42 0d 05    	or     %al,0x50d4202(%ebp)
    a3a8:	14 00                	adc    $0x0,%al
    a3aa:	00 00                	add    %al,(%eax)
    a3ac:	68 0a 00 00 d2       	push   $0xd200000a
    a3b1:	2b 00                	sub    (%eax),%eax
    a3b3:	00 14 00             	add    %dl,(%eax,%eax,1)
    a3b6:	00 00                	add    %al,(%eax)
    a3b8:	41                   	inc    %ecx
    a3b9:	0e                   	push   %cs
    a3ba:	08 85 02 42 0d 05    	or     %al,0x50d4202(%ebp)
    a3c0:	14 00                	adc    $0x0,%al
    a3c2:	00 00                	add    %al,(%eax)
    a3c4:	80 0a 00             	orb    $0x0,(%edx)
    a3c7:	00 e6                	add    %ah,%dh
    a3c9:	2b 00                	sub    (%eax),%eax
    a3cb:	00 14 00             	add    %dl,(%eax,%eax,1)
    a3ce:	00 00                	add    %al,(%eax)
    a3d0:	41                   	inc    %ecx
    a3d1:	0e                   	push   %cs
    a3d2:	08 85 02 42 0d 05    	or     %al,0x50d4202(%ebp)
    a3d8:	14 00                	adc    $0x0,%al
    a3da:	00 00                	add    %al,(%eax)
    a3dc:	98                   	cwtl   
    a3dd:	0a 00                	or     (%eax),%al
    a3df:	00 fa                	add    %bh,%dl
    a3e1:	2b 00                	sub    (%eax),%eax
    a3e3:	00 14 00             	add    %dl,(%eax,%eax,1)
    a3e6:	00 00                	add    %al,(%eax)
    a3e8:	41                   	inc    %ecx
    a3e9:	0e                   	push   %cs
    a3ea:	08 85 02 42 0d 05    	or     %al,0x50d4202(%ebp)
    a3f0:	14 00                	adc    $0x0,%al
    a3f2:	00 00                	add    %al,(%eax)
    a3f4:	b0 0a                	mov    $0xa,%al
    a3f6:	00 00                	add    %al,(%eax)
    a3f8:	0e                   	push   %cs
    a3f9:	2c 00                	sub    $0x0,%al
    a3fb:	00 14 00             	add    %dl,(%eax,%eax,1)
    a3fe:	00 00                	add    %al,(%eax)
    a400:	41                   	inc    %ecx
    a401:	0e                   	push   %cs
    a402:	08 85 02 42 0d 05    	or     %al,0x50d4202(%ebp)
    a408:	14 00                	adc    $0x0,%al
    a40a:	00 00                	add    %al,(%eax)
    a40c:	c8 0a 00 00          	enter  $0xa,$0x0
    a410:	22 2c 00             	and    (%eax,%eax,1),%ch
    a413:	00 14 00             	add    %dl,(%eax,%eax,1)
    a416:	00 00                	add    %al,(%eax)
    a418:	41                   	inc    %ecx
    a419:	0e                   	push   %cs
    a41a:	08 85 02 42 0d 05    	or     %al,0x50d4202(%ebp)
    a420:	14 00                	adc    $0x0,%al
    a422:	00 00                	add    %al,(%eax)
    a424:	e0 0a                	loopne a430 <ICH7_8259_Slave_Handler_End+0x3537>
    a426:	00 00                	add    %al,(%eax)
    a428:	36                   	ss
    a429:	2c 00                	sub    $0x0,%al
    a42b:	00 14 00             	add    %dl,(%eax,%eax,1)
    a42e:	00 00                	add    %al,(%eax)
    a430:	41                   	inc    %ecx
    a431:	0e                   	push   %cs
    a432:	08 85 02 42 0d 05    	or     %al,0x50d4202(%ebp)
    a438:	14 00                	adc    $0x0,%al
    a43a:	00 00                	add    %al,(%eax)
    a43c:	f8                   	clc    
    a43d:	0a 00                	or     (%eax),%al
    a43f:	00 4a 2c             	add    %cl,0x2c(%edx)
    a442:	00 00                	add    %al,(%eax)
    a444:	14 00                	adc    $0x0,%al
    a446:	00 00                	add    %al,(%eax)
    a448:	41                   	inc    %ecx
    a449:	0e                   	push   %cs
    a44a:	08 85 02 42 0d 05    	or     %al,0x50d4202(%ebp)
    a450:	14 00                	adc    $0x0,%al
    a452:	00 00                	add    %al,(%eax)
    a454:	10 0b                	adc    %cl,(%ebx)
    a456:	00 00                	add    %al,(%eax)
    a458:	5e                   	pop    %esi
    a459:	2c 00                	sub    $0x0,%al
    a45b:	00 14 00             	add    %dl,(%eax,%eax,1)
    a45e:	00 00                	add    %al,(%eax)
    a460:	41                   	inc    %ecx
    a461:	0e                   	push   %cs
    a462:	08 85 02 42 0d 05    	or     %al,0x50d4202(%ebp)
    a468:	14 00                	adc    $0x0,%al
    a46a:	00 00                	add    %al,(%eax)
    a46c:	28 0b                	sub    %cl,(%ebx)
    a46e:	00 00                	add    %al,(%eax)
    a470:	72 2c                	jb     a49e <ICH7_8259_Slave_Handler_End+0x35a5>
    a472:	00 00                	add    %al,(%eax)
    a474:	14 00                	adc    $0x0,%al
    a476:	00 00                	add    %al,(%eax)
    a478:	41                   	inc    %ecx
    a479:	0e                   	push   %cs
    a47a:	08 85 02 42 0d 05    	or     %al,0x50d4202(%ebp)
    a480:	14 00                	adc    $0x0,%al
    a482:	00 00                	add    %al,(%eax)
    a484:	40                   	inc    %eax
    a485:	0b 00                	or     (%eax),%eax
    a487:	00 86 2c 00 00 14    	add    %al,0x1400002c(%esi)
    a48d:	00 00                	add    %al,(%eax)
    a48f:	00 41 0e             	add    %al,0xe(%ecx)
    a492:	08 85 02 42 0d 05    	or     %al,0x50d4202(%ebp)
    a498:	14 00                	adc    $0x0,%al
    a49a:	00 00                	add    %al,(%eax)
    a49c:	58                   	pop    %eax
    a49d:	0b 00                	or     (%eax),%eax
    a49f:	00 9a 2c 00 00 14    	add    %bl,0x1400002c(%edx)
    a4a5:	00 00                	add    %al,(%eax)
    a4a7:	00 41 0e             	add    %al,0xe(%ecx)
    a4aa:	08 85 02 42 0d 05    	or     %al,0x50d4202(%ebp)
    a4b0:	14 00                	adc    $0x0,%al
    a4b2:	00 00                	add    %al,(%eax)
    a4b4:	70 0b                	jo     a4c1 <ICH7_8259_Slave_Handler_End+0x35c8>
    a4b6:	00 00                	add    %al,(%eax)
    a4b8:	ae                   	scas   %es:(%edi),%al
    a4b9:	2c 00                	sub    $0x0,%al
    a4bb:	00 14 00             	add    %dl,(%eax,%eax,1)
    a4be:	00 00                	add    %al,(%eax)
    a4c0:	41                   	inc    %ecx
    a4c1:	0e                   	push   %cs
    a4c2:	08 85 02 42 0d 05    	or     %al,0x50d4202(%ebp)
    a4c8:	14 00                	adc    $0x0,%al
    a4ca:	00 00                	add    %al,(%eax)
    a4cc:	88 0b                	mov    %cl,(%ebx)
    a4ce:	00 00                	add    %al,(%eax)
    a4d0:	c2 2c 00             	ret    $0x2c
    a4d3:	00 14 00             	add    %dl,(%eax,%eax,1)
    a4d6:	00 00                	add    %al,(%eax)
    a4d8:	41                   	inc    %ecx
    a4d9:	0e                   	push   %cs
    a4da:	08 85 02 42 0d 05    	or     %al,0x50d4202(%ebp)
    a4e0:	14 00                	adc    $0x0,%al
    a4e2:	00 00                	add    %al,(%eax)
    a4e4:	a0 0b 00 00 d6       	mov    0xd600000b,%al
    a4e9:	2c 00                	sub    $0x0,%al
    a4eb:	00 14 00             	add    %dl,(%eax,%eax,1)
    a4ee:	00 00                	add    %al,(%eax)
    a4f0:	41                   	inc    %ecx
    a4f1:	0e                   	push   %cs
    a4f2:	08 85 02 42 0d 05    	or     %al,0x50d4202(%ebp)
    a4f8:	14 00                	adc    $0x0,%al
    a4fa:	00 00                	add    %al,(%eax)
    a4fc:	b8 0b 00 00 ea       	mov    $0xea00000b,%eax
    a501:	2c 00                	sub    $0x0,%al
    a503:	00 14 00             	add    %dl,(%eax,%eax,1)
    a506:	00 00                	add    %al,(%eax)
    a508:	41                   	inc    %ecx
    a509:	0e                   	push   %cs
    a50a:	08 85 02 42 0d 05    	or     %al,0x50d4202(%ebp)
    a510:	14 00                	adc    $0x0,%al
    a512:	00 00                	add    %al,(%eax)
    a514:	d0 0b                	rorb   (%ebx)
    a516:	00 00                	add    %al,(%eax)
    a518:	fe                   	(bad)  
    a519:	2c 00                	sub    $0x0,%al
    a51b:	00 14 00             	add    %dl,(%eax,%eax,1)
    a51e:	00 00                	add    %al,(%eax)
    a520:	41                   	inc    %ecx
    a521:	0e                   	push   %cs
    a522:	08 85 02 42 0d 05    	or     %al,0x50d4202(%ebp)
    a528:	14 00                	adc    $0x0,%al
    a52a:	00 00                	add    %al,(%eax)
    a52c:	e8 0b 00 00 12       	call   1200a53c <_end+0x11ffe8b4>
    a531:	2d 00 00 14 00       	sub    $0x140000,%eax
    a536:	00 00                	add    %al,(%eax)
    a538:	41                   	inc    %ecx
    a539:	0e                   	push   %cs
    a53a:	08 85 02 42 0d 05    	or     %al,0x50d4202(%ebp)
    a540:	14 00                	adc    $0x0,%al
    a542:	00 00                	add    %al,(%eax)
    a544:	00 0c 00             	add    %cl,(%eax,%eax,1)
    a547:	00 26                	add    %ah,(%esi)
    a549:	2d 00 00 14 00       	sub    $0x140000,%eax
    a54e:	00 00                	add    %al,(%eax)
    a550:	41                   	inc    %ecx
    a551:	0e                   	push   %cs
    a552:	08 85 02 42 0d 05    	or     %al,0x50d4202(%ebp)
    a558:	14 00                	adc    $0x0,%al
    a55a:	00 00                	add    %al,(%eax)
    a55c:	18 0c 00             	sbb    %cl,(%eax,%eax,1)
    a55f:	00 3a                	add    %bh,(%edx)
    a561:	2d 00 00 14 00       	sub    $0x140000,%eax
    a566:	00 00                	add    %al,(%eax)
    a568:	41                   	inc    %ecx
    a569:	0e                   	push   %cs
    a56a:	08 85 02 42 0d 05    	or     %al,0x50d4202(%ebp)
    a570:	14 00                	adc    $0x0,%al
    a572:	00 00                	add    %al,(%eax)
    a574:	30 0c 00             	xor    %cl,(%eax,%eax,1)
    a577:	00 4e 2d             	add    %cl,0x2d(%esi)
    a57a:	00 00                	add    %al,(%eax)
    a57c:	14 00                	adc    $0x0,%al
    a57e:	00 00                	add    %al,(%eax)
    a580:	41                   	inc    %ecx
    a581:	0e                   	push   %cs
    a582:	08 85 02 42 0d 05    	or     %al,0x50d4202(%ebp)
    a588:	14 00                	adc    $0x0,%al
    a58a:	00 00                	add    %al,(%eax)
    a58c:	48                   	dec    %eax
    a58d:	0c 00                	or     $0x0,%al
    a58f:	00 62 2d             	add    %ah,0x2d(%edx)
    a592:	00 00                	add    %al,(%eax)
    a594:	14 00                	adc    $0x0,%al
    a596:	00 00                	add    %al,(%eax)
    a598:	41                   	inc    %ecx
    a599:	0e                   	push   %cs
    a59a:	08 85 02 42 0d 05    	or     %al,0x50d4202(%ebp)
    a5a0:	14 00                	adc    $0x0,%al
    a5a2:	00 00                	add    %al,(%eax)
    a5a4:	60                   	pusha  
    a5a5:	0c 00                	or     $0x0,%al
    a5a7:	00 76 2d             	add    %dh,0x2d(%esi)
    a5aa:	00 00                	add    %al,(%eax)
    a5ac:	14 00                	adc    $0x0,%al
    a5ae:	00 00                	add    %al,(%eax)
    a5b0:	41                   	inc    %ecx
    a5b1:	0e                   	push   %cs
    a5b2:	08 85 02 42 0d 05    	or     %al,0x50d4202(%ebp)
    a5b8:	14 00                	adc    $0x0,%al
    a5ba:	00 00                	add    %al,(%eax)
    a5bc:	78 0c                	js     a5ca <ICH7_8259_Slave_Handler_End+0x36d1>
    a5be:	00 00                	add    %al,(%eax)
    a5c0:	8a 2d 00 00 14 00    	mov    0x140000,%ch
    a5c6:	00 00                	add    %al,(%eax)
    a5c8:	41                   	inc    %ecx
    a5c9:	0e                   	push   %cs
    a5ca:	08 85 02 42 0d 05    	or     %al,0x50d4202(%ebp)
    a5d0:	14 00                	adc    $0x0,%al
    a5d2:	00 00                	add    %al,(%eax)
    a5d4:	90                   	nop
    a5d5:	0c 00                	or     $0x0,%al
    a5d7:	00 9e 2d 00 00 14    	add    %bl,0x1400002d(%esi)
    a5dd:	00 00                	add    %al,(%eax)
    a5df:	00 41 0e             	add    %al,0xe(%ecx)
    a5e2:	08 85 02 42 0d 05    	or     %al,0x50d4202(%ebp)
    a5e8:	14 00                	adc    $0x0,%al
    a5ea:	00 00                	add    %al,(%eax)
    a5ec:	a8 0c                	test   $0xc,%al
    a5ee:	00 00                	add    %al,(%eax)
    a5f0:	b2 2d                	mov    $0x2d,%dl
    a5f2:	00 00                	add    %al,(%eax)
    a5f4:	14 00                	adc    $0x0,%al
    a5f6:	00 00                	add    %al,(%eax)
    a5f8:	41                   	inc    %ecx
    a5f9:	0e                   	push   %cs
    a5fa:	08 85 02 42 0d 05    	or     %al,0x50d4202(%ebp)
    a600:	14 00                	adc    $0x0,%al
    a602:	00 00                	add    %al,(%eax)
    a604:	c0 0c 00 00          	rorb   $0x0,(%eax,%eax,1)
    a608:	c6                   	(bad)  
    a609:	2d 00 00 14 00       	sub    $0x140000,%eax
    a60e:	00 00                	add    %al,(%eax)
    a610:	41                   	inc    %ecx
    a611:	0e                   	push   %cs
    a612:	08 85 02 42 0d 05    	or     %al,0x50d4202(%ebp)
    a618:	14 00                	adc    $0x0,%al
    a61a:	00 00                	add    %al,(%eax)
    a61c:	d8 0c 00             	fmuls  (%eax,%eax,1)
    a61f:	00 da                	add    %bl,%dl
    a621:	2d 00 00 14 00       	sub    $0x140000,%eax
    a626:	00 00                	add    %al,(%eax)
    a628:	41                   	inc    %ecx
    a629:	0e                   	push   %cs
    a62a:	08 85 02 42 0d 05    	or     %al,0x50d4202(%ebp)
    a630:	14 00                	adc    $0x0,%al
    a632:	00 00                	add    %al,(%eax)
    a634:	f0 0c 00             	lock or $0x0,%al
    a637:	00 ee                	add    %ch,%dh
    a639:	2d 00 00 14 00       	sub    $0x140000,%eax
    a63e:	00 00                	add    %al,(%eax)
    a640:	41                   	inc    %ecx
    a641:	0e                   	push   %cs
    a642:	08 85 02 42 0d 05    	or     %al,0x50d4202(%ebp)
    a648:	14 00                	adc    $0x0,%al
    a64a:	00 00                	add    %al,(%eax)
    a64c:	08 0d 00 00 02 2e    	or     %cl,0x2e020000
    a652:	00 00                	add    %al,(%eax)
    a654:	14 00                	adc    $0x0,%al
    a656:	00 00                	add    %al,(%eax)
    a658:	41                   	inc    %ecx
    a659:	0e                   	push   %cs
    a65a:	08 85 02 42 0d 05    	or     %al,0x50d4202(%ebp)
    a660:	14 00                	adc    $0x0,%al
    a662:	00 00                	add    %al,(%eax)
    a664:	20 0d 00 00 16 2e    	and    %cl,0x2e160000
    a66a:	00 00                	add    %al,(%eax)
    a66c:	14 00                	adc    $0x0,%al
    a66e:	00 00                	add    %al,(%eax)
    a670:	41                   	inc    %ecx
    a671:	0e                   	push   %cs
    a672:	08 85 02 42 0d 05    	or     %al,0x50d4202(%ebp)
    a678:	14 00                	adc    $0x0,%al
    a67a:	00 00                	add    %al,(%eax)
    a67c:	38 0d 00 00 2a 2e    	cmp    %cl,0x2e2a0000
    a682:	00 00                	add    %al,(%eax)
    a684:	14 00                	adc    $0x0,%al
    a686:	00 00                	add    %al,(%eax)
    a688:	41                   	inc    %ecx
    a689:	0e                   	push   %cs
    a68a:	08 85 02 42 0d 05    	or     %al,0x50d4202(%ebp)
    a690:	14 00                	adc    $0x0,%al
    a692:	00 00                	add    %al,(%eax)
    a694:	50                   	push   %eax
    a695:	0d 00 00 3e 2e       	or     $0x2e3e0000,%eax
    a69a:	00 00                	add    %al,(%eax)
    a69c:	14 00                	adc    $0x0,%al
    a69e:	00 00                	add    %al,(%eax)
    a6a0:	41                   	inc    %ecx
    a6a1:	0e                   	push   %cs
    a6a2:	08 85 02 42 0d 05    	or     %al,0x50d4202(%ebp)
    a6a8:	14 00                	adc    $0x0,%al
    a6aa:	00 00                	add    %al,(%eax)
    a6ac:	68 0d 00 00 52       	push   $0x5200000d
    a6b1:	2e 00 00             	add    %al,%cs:(%eax)
    a6b4:	14 00                	adc    $0x0,%al
    a6b6:	00 00                	add    %al,(%eax)
    a6b8:	41                   	inc    %ecx
    a6b9:	0e                   	push   %cs
    a6ba:	08 85 02 42 0d 05    	or     %al,0x50d4202(%ebp)
    a6c0:	14 00                	adc    $0x0,%al
    a6c2:	00 00                	add    %al,(%eax)
    a6c4:	80 0d 00 00 66 2e 00 	orb    $0x0,0x2e660000
    a6cb:	00 14 00             	add    %dl,(%eax,%eax,1)
    a6ce:	00 00                	add    %al,(%eax)
    a6d0:	41                   	inc    %ecx
    a6d1:	0e                   	push   %cs
    a6d2:	08 85 02 42 0d 05    	or     %al,0x50d4202(%ebp)
    a6d8:	14 00                	adc    $0x0,%al
    a6da:	00 00                	add    %al,(%eax)
    a6dc:	98                   	cwtl   
    a6dd:	0d 00 00 7a 2e       	or     $0x2e7a0000,%eax
    a6e2:	00 00                	add    %al,(%eax)
    a6e4:	14 00                	adc    $0x0,%al
    a6e6:	00 00                	add    %al,(%eax)
    a6e8:	41                   	inc    %ecx
    a6e9:	0e                   	push   %cs
    a6ea:	08 85 02 42 0d 05    	or     %al,0x50d4202(%ebp)
    a6f0:	14 00                	adc    $0x0,%al
    a6f2:	00 00                	add    %al,(%eax)
    a6f4:	b0 0d                	mov    $0xd,%al
    a6f6:	00 00                	add    %al,(%eax)
    a6f8:	8e 2e                	mov    (%esi),%gs
    a6fa:	00 00                	add    %al,(%eax)
    a6fc:	14 00                	adc    $0x0,%al
    a6fe:	00 00                	add    %al,(%eax)
    a700:	41                   	inc    %ecx
    a701:	0e                   	push   %cs
    a702:	08 85 02 42 0d 05    	or     %al,0x50d4202(%ebp)
    a708:	14 00                	adc    $0x0,%al
    a70a:	00 00                	add    %al,(%eax)
    a70c:	c8 0d 00 00          	enter  $0xd,$0x0
    a710:	a2 2e 00 00 14       	mov    %al,0x1400002e
    a715:	00 00                	add    %al,(%eax)
    a717:	00 41 0e             	add    %al,0xe(%ecx)
    a71a:	08 85 02 42 0d 05    	or     %al,0x50d4202(%ebp)
    a720:	14 00                	adc    $0x0,%al
    a722:	00 00                	add    %al,(%eax)
    a724:	e0 0d                	loopne a733 <ICH7_8259_Slave_Handler_End+0x383a>
    a726:	00 00                	add    %al,(%eax)
    a728:	b6 2e                	mov    $0x2e,%dh
    a72a:	00 00                	add    %al,(%eax)
    a72c:	14 00                	adc    $0x0,%al
    a72e:	00 00                	add    %al,(%eax)
    a730:	41                   	inc    %ecx
    a731:	0e                   	push   %cs
    a732:	08 85 02 42 0d 05    	or     %al,0x50d4202(%ebp)
    a738:	14 00                	adc    $0x0,%al
    a73a:	00 00                	add    %al,(%eax)
    a73c:	f8                   	clc    
    a73d:	0d 00 00 ca 2e       	or     $0x2eca0000,%eax
    a742:	00 00                	add    %al,(%eax)
    a744:	14 00                	adc    $0x0,%al
    a746:	00 00                	add    %al,(%eax)
    a748:	41                   	inc    %ecx
    a749:	0e                   	push   %cs
    a74a:	08 85 02 42 0d 05    	or     %al,0x50d4202(%ebp)
    a750:	14 00                	adc    $0x0,%al
    a752:	00 00                	add    %al,(%eax)
    a754:	10 0e                	adc    %cl,(%esi)
    a756:	00 00                	add    %al,(%eax)
    a758:	de 2e                	fisubr (%esi)
    a75a:	00 00                	add    %al,(%eax)
    a75c:	14 00                	adc    $0x0,%al
    a75e:	00 00                	add    %al,(%eax)
    a760:	41                   	inc    %ecx
    a761:	0e                   	push   %cs
    a762:	08 85 02 42 0d 05    	or     %al,0x50d4202(%ebp)
    a768:	14 00                	adc    $0x0,%al
    a76a:	00 00                	add    %al,(%eax)
    a76c:	28 0e                	sub    %cl,(%esi)
    a76e:	00 00                	add    %al,(%eax)
    a770:	f2 2e 00 00          	repnz add %al,%cs:(%eax)
    a774:	14 00                	adc    $0x0,%al
    a776:	00 00                	add    %al,(%eax)
    a778:	41                   	inc    %ecx
    a779:	0e                   	push   %cs
    a77a:	08 85 02 42 0d 05    	or     %al,0x50d4202(%ebp)
    a780:	14 00                	adc    $0x0,%al
    a782:	00 00                	add    %al,(%eax)
    a784:	40                   	inc    %eax
    a785:	0e                   	push   %cs
    a786:	00 00                	add    %al,(%eax)
    a788:	06                   	push   %es
    a789:	2f                   	das    
    a78a:	00 00                	add    %al,(%eax)
    a78c:	14 00                	adc    $0x0,%al
    a78e:	00 00                	add    %al,(%eax)
    a790:	41                   	inc    %ecx
    a791:	0e                   	push   %cs
    a792:	08 85 02 42 0d 05    	or     %al,0x50d4202(%ebp)
    a798:	14 00                	adc    $0x0,%al
    a79a:	00 00                	add    %al,(%eax)
    a79c:	58                   	pop    %eax
    a79d:	0e                   	push   %cs
    a79e:	00 00                	add    %al,(%eax)
    a7a0:	1a 2f                	sbb    (%edi),%ch
    a7a2:	00 00                	add    %al,(%eax)
    a7a4:	14 00                	adc    $0x0,%al
    a7a6:	00 00                	add    %al,(%eax)
    a7a8:	41                   	inc    %ecx
    a7a9:	0e                   	push   %cs
    a7aa:	08 85 02 42 0d 05    	or     %al,0x50d4202(%ebp)
    a7b0:	14 00                	adc    $0x0,%al
    a7b2:	00 00                	add    %al,(%eax)
    a7b4:	70 0e                	jo     a7c4 <ICH7_8259_Slave_Handler_End+0x38cb>
    a7b6:	00 00                	add    %al,(%eax)
    a7b8:	2e                   	cs
    a7b9:	2f                   	das    
    a7ba:	00 00                	add    %al,(%eax)
    a7bc:	14 00                	adc    $0x0,%al
    a7be:	00 00                	add    %al,(%eax)
    a7c0:	41                   	inc    %ecx
    a7c1:	0e                   	push   %cs
    a7c2:	08 85 02 42 0d 05    	or     %al,0x50d4202(%ebp)
    a7c8:	14 00                	adc    $0x0,%al
    a7ca:	00 00                	add    %al,(%eax)
    a7cc:	88 0e                	mov    %cl,(%esi)
    a7ce:	00 00                	add    %al,(%eax)
    a7d0:	42                   	inc    %edx
    a7d1:	2f                   	das    
    a7d2:	00 00                	add    %al,(%eax)
    a7d4:	14 00                	adc    $0x0,%al
    a7d6:	00 00                	add    %al,(%eax)
    a7d8:	41                   	inc    %ecx
    a7d9:	0e                   	push   %cs
    a7da:	08 85 02 42 0d 05    	or     %al,0x50d4202(%ebp)
    a7e0:	14 00                	adc    $0x0,%al
    a7e2:	00 00                	add    %al,(%eax)
    a7e4:	a0 0e 00 00 56       	mov    0x5600000e,%al
    a7e9:	2f                   	das    
    a7ea:	00 00                	add    %al,(%eax)
    a7ec:	14 00                	adc    $0x0,%al
    a7ee:	00 00                	add    %al,(%eax)
    a7f0:	41                   	inc    %ecx
    a7f1:	0e                   	push   %cs
    a7f2:	08 85 02 42 0d 05    	or     %al,0x50d4202(%ebp)
    a7f8:	14 00                	adc    $0x0,%al
    a7fa:	00 00                	add    %al,(%eax)
    a7fc:	b8 0e 00 00 6a       	mov    $0x6a00000e,%eax
    a801:	2f                   	das    
    a802:	00 00                	add    %al,(%eax)
    a804:	14 00                	adc    $0x0,%al
    a806:	00 00                	add    %al,(%eax)
    a808:	41                   	inc    %ecx
    a809:	0e                   	push   %cs
    a80a:	08 85 02 42 0d 05    	or     %al,0x50d4202(%ebp)
    a810:	14 00                	adc    $0x0,%al
    a812:	00 00                	add    %al,(%eax)
    a814:	d0 0e                	rorb   (%esi)
    a816:	00 00                	add    %al,(%eax)
    a818:	7e 2f                	jle    a849 <ICH7_8259_Slave_Handler_End+0x3950>
    a81a:	00 00                	add    %al,(%eax)
    a81c:	14 00                	adc    $0x0,%al
    a81e:	00 00                	add    %al,(%eax)
    a820:	41                   	inc    %ecx
    a821:	0e                   	push   %cs
    a822:	08 85 02 42 0d 05    	or     %al,0x50d4202(%ebp)
    a828:	14 00                	adc    $0x0,%al
    a82a:	00 00                	add    %al,(%eax)
    a82c:	e8 0e 00 00 92       	call   9200a83f <_end+0x91ffebb7>
    a831:	2f                   	das    
    a832:	00 00                	add    %al,(%eax)
    a834:	14 00                	adc    $0x0,%al
    a836:	00 00                	add    %al,(%eax)
    a838:	41                   	inc    %ecx
    a839:	0e                   	push   %cs
    a83a:	08 85 02 42 0d 05    	or     %al,0x50d4202(%ebp)
    a840:	14 00                	adc    $0x0,%al
    a842:	00 00                	add    %al,(%eax)
    a844:	00 0f                	add    %cl,(%edi)
    a846:	00 00                	add    %al,(%eax)
    a848:	a6                   	cmpsb  %es:(%edi),%ds:(%esi)
    a849:	2f                   	das    
    a84a:	00 00                	add    %al,(%eax)
    a84c:	14 00                	adc    $0x0,%al
    a84e:	00 00                	add    %al,(%eax)
    a850:	41                   	inc    %ecx
    a851:	0e                   	push   %cs
    a852:	08 85 02 42 0d 05    	or     %al,0x50d4202(%ebp)
    a858:	14 00                	adc    $0x0,%al
    a85a:	00 00                	add    %al,(%eax)
    a85c:	18 0f                	sbb    %cl,(%edi)
    a85e:	00 00                	add    %al,(%eax)
    a860:	ba 2f 00 00 14       	mov    $0x1400002f,%edx
    a865:	00 00                	add    %al,(%eax)
    a867:	00 41 0e             	add    %al,0xe(%ecx)
    a86a:	08 85 02 42 0d 05    	or     %al,0x50d4202(%ebp)
    a870:	14 00                	adc    $0x0,%al
    a872:	00 00                	add    %al,(%eax)
    a874:	30 0f                	xor    %cl,(%edi)
    a876:	00 00                	add    %al,(%eax)
    a878:	ce                   	into   
    a879:	2f                   	das    
    a87a:	00 00                	add    %al,(%eax)
    a87c:	14 00                	adc    $0x0,%al
    a87e:	00 00                	add    %al,(%eax)
    a880:	41                   	inc    %ecx
    a881:	0e                   	push   %cs
    a882:	08 85 02 42 0d 05    	or     %al,0x50d4202(%ebp)
    a888:	14 00                	adc    $0x0,%al
    a88a:	00 00                	add    %al,(%eax)
    a88c:	48                   	dec    %eax
    a88d:	0f 00 00             	sldt   (%eax)
    a890:	e2 2f                	loop   a8c1 <ICH7_8259_Slave_Handler_End+0x39c8>
    a892:	00 00                	add    %al,(%eax)
    a894:	14 00                	adc    $0x0,%al
    a896:	00 00                	add    %al,(%eax)
    a898:	41                   	inc    %ecx
    a899:	0e                   	push   %cs
    a89a:	08 85 02 42 0d 05    	or     %al,0x50d4202(%ebp)
    a8a0:	14 00                	adc    $0x0,%al
    a8a2:	00 00                	add    %al,(%eax)
    a8a4:	60                   	pusha  
    a8a5:	0f 00 00             	sldt   (%eax)
    a8a8:	f6 2f                	imulb  (%edi)
    a8aa:	00 00                	add    %al,(%eax)
    a8ac:	14 00                	adc    $0x0,%al
    a8ae:	00 00                	add    %al,(%eax)
    a8b0:	41                   	inc    %ecx
    a8b1:	0e                   	push   %cs
    a8b2:	08 85 02 42 0d 05    	or     %al,0x50d4202(%ebp)
    a8b8:	14 00                	adc    $0x0,%al
    a8ba:	00 00                	add    %al,(%eax)
    a8bc:	78 0f                	js     a8cd <ICH7_8259_Slave_Handler_End+0x39d4>
    a8be:	00 00                	add    %al,(%eax)
    a8c0:	0a 30                	or     (%eax),%dh
    a8c2:	00 00                	add    %al,(%eax)
    a8c4:	14 00                	adc    $0x0,%al
    a8c6:	00 00                	add    %al,(%eax)
    a8c8:	41                   	inc    %ecx
    a8c9:	0e                   	push   %cs
    a8ca:	08 85 02 42 0d 05    	or     %al,0x50d4202(%ebp)
    a8d0:	14 00                	adc    $0x0,%al
    a8d2:	00 00                	add    %al,(%eax)
    a8d4:	90                   	nop
    a8d5:	0f 00 00             	sldt   (%eax)
    a8d8:	1e                   	push   %ds
    a8d9:	30 00                	xor    %al,(%eax)
    a8db:	00 14 00             	add    %dl,(%eax,%eax,1)
    a8de:	00 00                	add    %al,(%eax)
    a8e0:	41                   	inc    %ecx
    a8e1:	0e                   	push   %cs
    a8e2:	08 85 02 42 0d 05    	or     %al,0x50d4202(%ebp)
    a8e8:	14 00                	adc    $0x0,%al
    a8ea:	00 00                	add    %al,(%eax)
    a8ec:	a8 0f                	test   $0xf,%al
    a8ee:	00 00                	add    %al,(%eax)
    a8f0:	32 30                	xor    (%eax),%dh
    a8f2:	00 00                	add    %al,(%eax)
    a8f4:	14 00                	adc    $0x0,%al
    a8f6:	00 00                	add    %al,(%eax)
    a8f8:	41                   	inc    %ecx
    a8f9:	0e                   	push   %cs
    a8fa:	08 85 02 42 0d 05    	or     %al,0x50d4202(%ebp)
    a900:	14 00                	adc    $0x0,%al
    a902:	00 00                	add    %al,(%eax)
    a904:	c0 0f 00             	rorb   $0x0,(%edi)
    a907:	00 46 30             	add    %al,0x30(%esi)
    a90a:	00 00                	add    %al,(%eax)
    a90c:	14 00                	adc    $0x0,%al
    a90e:	00 00                	add    %al,(%eax)
    a910:	41                   	inc    %ecx
    a911:	0e                   	push   %cs
    a912:	08 85 02 42 0d 05    	or     %al,0x50d4202(%ebp)
    a918:	14 00                	adc    $0x0,%al
    a91a:	00 00                	add    %al,(%eax)
    a91c:	d8 0f                	fmuls  (%edi)
    a91e:	00 00                	add    %al,(%eax)
    a920:	5a                   	pop    %edx
    a921:	30 00                	xor    %al,(%eax)
    a923:	00 14 00             	add    %dl,(%eax,%eax,1)
    a926:	00 00                	add    %al,(%eax)
    a928:	41                   	inc    %ecx
    a929:	0e                   	push   %cs
    a92a:	08 85 02 42 0d 05    	or     %al,0x50d4202(%ebp)
    a930:	14 00                	adc    $0x0,%al
    a932:	00 00                	add    %al,(%eax)
    a934:	f0 0f 00 00          	lock sldt (%eax)
    a938:	6e                   	outsb  %ds:(%esi),(%dx)
    a939:	30 00                	xor    %al,(%eax)
    a93b:	00 14 00             	add    %dl,(%eax,%eax,1)
    a93e:	00 00                	add    %al,(%eax)
    a940:	41                   	inc    %ecx
    a941:	0e                   	push   %cs
    a942:	08 85 02 42 0d 05    	or     %al,0x50d4202(%ebp)
    a948:	14 00                	adc    $0x0,%al
    a94a:	00 00                	add    %al,(%eax)
    a94c:	08 10                	or     %dl,(%eax)
    a94e:	00 00                	add    %al,(%eax)
    a950:	82                   	(bad)  
    a951:	30 00                	xor    %al,(%eax)
    a953:	00 14 00             	add    %dl,(%eax,%eax,1)
    a956:	00 00                	add    %al,(%eax)
    a958:	41                   	inc    %ecx
    a959:	0e                   	push   %cs
    a95a:	08 85 02 42 0d 05    	or     %al,0x50d4202(%ebp)
    a960:	14 00                	adc    $0x0,%al
    a962:	00 00                	add    %al,(%eax)
    a964:	20 10                	and    %dl,(%eax)
    a966:	00 00                	add    %al,(%eax)
    a968:	96                   	xchg   %eax,%esi
    a969:	30 00                	xor    %al,(%eax)
    a96b:	00 14 00             	add    %dl,(%eax,%eax,1)
    a96e:	00 00                	add    %al,(%eax)
    a970:	41                   	inc    %ecx
    a971:	0e                   	push   %cs
    a972:	08 85 02 42 0d 05    	or     %al,0x50d4202(%ebp)
    a978:	14 00                	adc    $0x0,%al
    a97a:	00 00                	add    %al,(%eax)
    a97c:	38 10                	cmp    %dl,(%eax)
    a97e:	00 00                	add    %al,(%eax)
    a980:	aa                   	stos   %al,%es:(%edi)
    a981:	30 00                	xor    %al,(%eax)
    a983:	00 14 00             	add    %dl,(%eax,%eax,1)
    a986:	00 00                	add    %al,(%eax)
    a988:	41                   	inc    %ecx
    a989:	0e                   	push   %cs
    a98a:	08 85 02 42 0d 05    	or     %al,0x50d4202(%ebp)
    a990:	14 00                	adc    $0x0,%al
    a992:	00 00                	add    %al,(%eax)
    a994:	50                   	push   %eax
    a995:	10 00                	adc    %al,(%eax)
    a997:	00 be 30 00 00 14    	add    %bh,0x14000030(%esi)
    a99d:	00 00                	add    %al,(%eax)
    a99f:	00 41 0e             	add    %al,0xe(%ecx)
    a9a2:	08 85 02 42 0d 05    	or     %al,0x50d4202(%ebp)
    a9a8:	14 00                	adc    $0x0,%al
    a9aa:	00 00                	add    %al,(%eax)
    a9ac:	68 10 00 00 d2       	push   $0xd2000010
    a9b1:	30 00                	xor    %al,(%eax)
    a9b3:	00 14 00             	add    %dl,(%eax,%eax,1)
    a9b6:	00 00                	add    %al,(%eax)
    a9b8:	41                   	inc    %ecx
    a9b9:	0e                   	push   %cs
    a9ba:	08 85 02 42 0d 05    	or     %al,0x50d4202(%ebp)
    a9c0:	14 00                	adc    $0x0,%al
    a9c2:	00 00                	add    %al,(%eax)
    a9c4:	80 10 00             	adcb   $0x0,(%eax)
    a9c7:	00 e6                	add    %ah,%dh
    a9c9:	30 00                	xor    %al,(%eax)
    a9cb:	00 14 00             	add    %dl,(%eax,%eax,1)
    a9ce:	00 00                	add    %al,(%eax)
    a9d0:	41                   	inc    %ecx
    a9d1:	0e                   	push   %cs
    a9d2:	08 85 02 42 0d 05    	or     %al,0x50d4202(%ebp)
    a9d8:	14 00                	adc    $0x0,%al
    a9da:	00 00                	add    %al,(%eax)
    a9dc:	98                   	cwtl   
    a9dd:	10 00                	adc    %al,(%eax)
    a9df:	00 fa                	add    %bh,%dl
    a9e1:	30 00                	xor    %al,(%eax)
    a9e3:	00 14 00             	add    %dl,(%eax,%eax,1)
    a9e6:	00 00                	add    %al,(%eax)
    a9e8:	41                   	inc    %ecx
    a9e9:	0e                   	push   %cs
    a9ea:	08 85 02 42 0d 05    	or     %al,0x50d4202(%ebp)
    a9f0:	14 00                	adc    $0x0,%al
    a9f2:	00 00                	add    %al,(%eax)
    a9f4:	b0 10                	mov    $0x10,%al
    a9f6:	00 00                	add    %al,(%eax)
    a9f8:	0e                   	push   %cs
    a9f9:	31 00                	xor    %eax,(%eax)
    a9fb:	00 14 00             	add    %dl,(%eax,%eax,1)
    a9fe:	00 00                	add    %al,(%eax)
    aa00:	41                   	inc    %ecx
    aa01:	0e                   	push   %cs
    aa02:	08 85 02 42 0d 05    	or     %al,0x50d4202(%ebp)
    aa08:	14 00                	adc    $0x0,%al
    aa0a:	00 00                	add    %al,(%eax)
    aa0c:	c8 10 00 00          	enter  $0x10,$0x0
    aa10:	22 31                	and    (%ecx),%dh
    aa12:	00 00                	add    %al,(%eax)
    aa14:	14 00                	adc    $0x0,%al
    aa16:	00 00                	add    %al,(%eax)
    aa18:	41                   	inc    %ecx
    aa19:	0e                   	push   %cs
    aa1a:	08 85 02 42 0d 05    	or     %al,0x50d4202(%ebp)
    aa20:	14 00                	adc    $0x0,%al
    aa22:	00 00                	add    %al,(%eax)
    aa24:	e0 10                	loopne aa36 <ICH7_8259_Slave_Handler_End+0x3b3d>
    aa26:	00 00                	add    %al,(%eax)
    aa28:	36 31 00             	xor    %eax,%ss:(%eax)
    aa2b:	00 14 00             	add    %dl,(%eax,%eax,1)
    aa2e:	00 00                	add    %al,(%eax)
    aa30:	41                   	inc    %ecx
    aa31:	0e                   	push   %cs
    aa32:	08 85 02 42 0d 05    	or     %al,0x50d4202(%ebp)
    aa38:	14 00                	adc    $0x0,%al
    aa3a:	00 00                	add    %al,(%eax)
    aa3c:	f8                   	clc    
    aa3d:	10 00                	adc    %al,(%eax)
    aa3f:	00 4a 31             	add    %cl,0x31(%edx)
    aa42:	00 00                	add    %al,(%eax)
    aa44:	14 00                	adc    $0x0,%al
    aa46:	00 00                	add    %al,(%eax)
    aa48:	41                   	inc    %ecx
    aa49:	0e                   	push   %cs
    aa4a:	08 85 02 42 0d 05    	or     %al,0x50d4202(%ebp)
    aa50:	14 00                	adc    $0x0,%al
    aa52:	00 00                	add    %al,(%eax)
    aa54:	10 11                	adc    %dl,(%ecx)
    aa56:	00 00                	add    %al,(%eax)
    aa58:	5e                   	pop    %esi
    aa59:	31 00                	xor    %eax,(%eax)
    aa5b:	00 14 00             	add    %dl,(%eax,%eax,1)
    aa5e:	00 00                	add    %al,(%eax)
    aa60:	41                   	inc    %ecx
    aa61:	0e                   	push   %cs
    aa62:	08 85 02 42 0d 05    	or     %al,0x50d4202(%ebp)
    aa68:	14 00                	adc    $0x0,%al
    aa6a:	00 00                	add    %al,(%eax)
    aa6c:	28 11                	sub    %dl,(%ecx)
    aa6e:	00 00                	add    %al,(%eax)
    aa70:	72 31                	jb     aaa3 <ICH7_8259_Slave_Handler_End+0x3baa>
    aa72:	00 00                	add    %al,(%eax)
    aa74:	14 00                	adc    $0x0,%al
    aa76:	00 00                	add    %al,(%eax)
    aa78:	41                   	inc    %ecx
    aa79:	0e                   	push   %cs
    aa7a:	08 85 02 42 0d 05    	or     %al,0x50d4202(%ebp)
    aa80:	14 00                	adc    $0x0,%al
    aa82:	00 00                	add    %al,(%eax)
    aa84:	40                   	inc    %eax
    aa85:	11 00                	adc    %eax,(%eax)
    aa87:	00 86 31 00 00 14    	add    %al,0x14000031(%esi)
    aa8d:	00 00                	add    %al,(%eax)
    aa8f:	00 41 0e             	add    %al,0xe(%ecx)
    aa92:	08 85 02 42 0d 05    	or     %al,0x50d4202(%ebp)
    aa98:	14 00                	adc    $0x0,%al
    aa9a:	00 00                	add    %al,(%eax)
    aa9c:	58                   	pop    %eax
    aa9d:	11 00                	adc    %eax,(%eax)
    aa9f:	00 9a 31 00 00 14    	add    %bl,0x14000031(%edx)
    aaa5:	00 00                	add    %al,(%eax)
    aaa7:	00 41 0e             	add    %al,0xe(%ecx)
    aaaa:	08 85 02 42 0d 05    	or     %al,0x50d4202(%ebp)
    aab0:	14 00                	adc    $0x0,%al
    aab2:	00 00                	add    %al,(%eax)
    aab4:	70 11                	jo     aac7 <ICH7_8259_Slave_Handler_End+0x3bce>
    aab6:	00 00                	add    %al,(%eax)
    aab8:	ae                   	scas   %es:(%edi),%al
    aab9:	31 00                	xor    %eax,(%eax)
    aabb:	00 14 00             	add    %dl,(%eax,%eax,1)
    aabe:	00 00                	add    %al,(%eax)
    aac0:	41                   	inc    %ecx
    aac1:	0e                   	push   %cs
    aac2:	08 85 02 42 0d 05    	or     %al,0x50d4202(%ebp)
    aac8:	14 00                	adc    $0x0,%al
    aaca:	00 00                	add    %al,(%eax)
    aacc:	88 11                	mov    %dl,(%ecx)
    aace:	00 00                	add    %al,(%eax)
    aad0:	c2 31 00             	ret    $0x31
    aad3:	00 14 00             	add    %dl,(%eax,%eax,1)
    aad6:	00 00                	add    %al,(%eax)
    aad8:	41                   	inc    %ecx
    aad9:	0e                   	push   %cs
    aada:	08 85 02 42 0d 05    	or     %al,0x50d4202(%ebp)
    aae0:	14 00                	adc    $0x0,%al
    aae2:	00 00                	add    %al,(%eax)
    aae4:	a0 11 00 00 d6       	mov    0xd6000011,%al
    aae9:	31 00                	xor    %eax,(%eax)
    aaeb:	00 14 00             	add    %dl,(%eax,%eax,1)
    aaee:	00 00                	add    %al,(%eax)
    aaf0:	41                   	inc    %ecx
    aaf1:	0e                   	push   %cs
    aaf2:	08 85 02 42 0d 05    	or     %al,0x50d4202(%ebp)
    aaf8:	14 00                	adc    $0x0,%al
    aafa:	00 00                	add    %al,(%eax)
    aafc:	b8 11 00 00 ea       	mov    $0xea000011,%eax
    ab01:	31 00                	xor    %eax,(%eax)
    ab03:	00 14 00             	add    %dl,(%eax,%eax,1)
    ab06:	00 00                	add    %al,(%eax)
    ab08:	41                   	inc    %ecx
    ab09:	0e                   	push   %cs
    ab0a:	08 85 02 42 0d 05    	or     %al,0x50d4202(%ebp)
    ab10:	14 00                	adc    $0x0,%al
    ab12:	00 00                	add    %al,(%eax)
    ab14:	d0 11                	rclb   (%ecx)
    ab16:	00 00                	add    %al,(%eax)
    ab18:	fe                   	(bad)  
    ab19:	31 00                	xor    %eax,(%eax)
    ab1b:	00 14 00             	add    %dl,(%eax,%eax,1)
    ab1e:	00 00                	add    %al,(%eax)
    ab20:	41                   	inc    %ecx
    ab21:	0e                   	push   %cs
    ab22:	08 85 02 42 0d 05    	or     %al,0x50d4202(%ebp)
    ab28:	14 00                	adc    $0x0,%al
    ab2a:	00 00                	add    %al,(%eax)
    ab2c:	e8 11 00 00 12       	call   1200ab42 <_end+0x11ffeeba>
    ab31:	32 00                	xor    (%eax),%al
    ab33:	00 14 00             	add    %dl,(%eax,%eax,1)
    ab36:	00 00                	add    %al,(%eax)
    ab38:	41                   	inc    %ecx
    ab39:	0e                   	push   %cs
    ab3a:	08 85 02 42 0d 05    	or     %al,0x50d4202(%ebp)
    ab40:	14 00                	adc    $0x0,%al
    ab42:	00 00                	add    %al,(%eax)
    ab44:	00 12                	add    %dl,(%edx)
    ab46:	00 00                	add    %al,(%eax)
    ab48:	26 32 00             	xor    %es:(%eax),%al
    ab4b:	00 14 00             	add    %dl,(%eax,%eax,1)
    ab4e:	00 00                	add    %al,(%eax)
    ab50:	41                   	inc    %ecx
    ab51:	0e                   	push   %cs
    ab52:	08 85 02 42 0d 05    	or     %al,0x50d4202(%ebp)
    ab58:	14 00                	adc    $0x0,%al
    ab5a:	00 00                	add    %al,(%eax)
    ab5c:	18 12                	sbb    %dl,(%edx)
    ab5e:	00 00                	add    %al,(%eax)
    ab60:	3a 32                	cmp    (%edx),%dh
    ab62:	00 00                	add    %al,(%eax)
    ab64:	14 00                	adc    $0x0,%al
    ab66:	00 00                	add    %al,(%eax)
    ab68:	41                   	inc    %ecx
    ab69:	0e                   	push   %cs
    ab6a:	08 85 02 42 0d 05    	or     %al,0x50d4202(%ebp)
    ab70:	14 00                	adc    $0x0,%al
    ab72:	00 00                	add    %al,(%eax)
    ab74:	30 12                	xor    %dl,(%edx)
    ab76:	00 00                	add    %al,(%eax)
    ab78:	4e                   	dec    %esi
    ab79:	32 00                	xor    (%eax),%al
    ab7b:	00 14 00             	add    %dl,(%eax,%eax,1)
    ab7e:	00 00                	add    %al,(%eax)
    ab80:	41                   	inc    %ecx
    ab81:	0e                   	push   %cs
    ab82:	08 85 02 42 0d 05    	or     %al,0x50d4202(%ebp)
    ab88:	14 00                	adc    $0x0,%al
    ab8a:	00 00                	add    %al,(%eax)
    ab8c:	48                   	dec    %eax
    ab8d:	12 00                	adc    (%eax),%al
    ab8f:	00 62 32             	add    %ah,0x32(%edx)
    ab92:	00 00                	add    %al,(%eax)
    ab94:	14 00                	adc    $0x0,%al
    ab96:	00 00                	add    %al,(%eax)
    ab98:	41                   	inc    %ecx
    ab99:	0e                   	push   %cs
    ab9a:	08 85 02 42 0d 05    	or     %al,0x50d4202(%ebp)
    aba0:	14 00                	adc    $0x0,%al
    aba2:	00 00                	add    %al,(%eax)
    aba4:	60                   	pusha  
    aba5:	12 00                	adc    (%eax),%al
    aba7:	00 76 32             	add    %dh,0x32(%esi)
    abaa:	00 00                	add    %al,(%eax)
    abac:	14 00                	adc    $0x0,%al
    abae:	00 00                	add    %al,(%eax)
    abb0:	41                   	inc    %ecx
    abb1:	0e                   	push   %cs
    abb2:	08 85 02 42 0d 05    	or     %al,0x50d4202(%ebp)
    abb8:	14 00                	adc    $0x0,%al
    abba:	00 00                	add    %al,(%eax)
    abbc:	78 12                	js     abd0 <ICH7_8259_Slave_Handler_End+0x3cd7>
    abbe:	00 00                	add    %al,(%eax)
    abc0:	8a 32                	mov    (%edx),%dh
    abc2:	00 00                	add    %al,(%eax)
    abc4:	14 00                	adc    $0x0,%al
    abc6:	00 00                	add    %al,(%eax)
    abc8:	41                   	inc    %ecx
    abc9:	0e                   	push   %cs
    abca:	08 85 02 42 0d 05    	or     %al,0x50d4202(%ebp)
    abd0:	14 00                	adc    $0x0,%al
    abd2:	00 00                	add    %al,(%eax)
    abd4:	90                   	nop
    abd5:	12 00                	adc    (%eax),%al
    abd7:	00 9e 32 00 00 14    	add    %bl,0x14000032(%esi)
    abdd:	00 00                	add    %al,(%eax)
    abdf:	00 41 0e             	add    %al,0xe(%ecx)
    abe2:	08 85 02 42 0d 05    	or     %al,0x50d4202(%ebp)
    abe8:	14 00                	adc    $0x0,%al
    abea:	00 00                	add    %al,(%eax)
    abec:	a8 12                	test   $0x12,%al
    abee:	00 00                	add    %al,(%eax)
    abf0:	b2 32                	mov    $0x32,%dl
    abf2:	00 00                	add    %al,(%eax)
    abf4:	14 00                	adc    $0x0,%al
    abf6:	00 00                	add    %al,(%eax)
    abf8:	41                   	inc    %ecx
    abf9:	0e                   	push   %cs
    abfa:	08 85 02 42 0d 05    	or     %al,0x50d4202(%ebp)
    ac00:	14 00                	adc    $0x0,%al
    ac02:	00 00                	add    %al,(%eax)
    ac04:	c0 12 00             	rclb   $0x0,(%edx)
    ac07:	00 c6                	add    %al,%dh
    ac09:	32 00                	xor    (%eax),%al
    ac0b:	00 14 00             	add    %dl,(%eax,%eax,1)
    ac0e:	00 00                	add    %al,(%eax)
    ac10:	41                   	inc    %ecx
    ac11:	0e                   	push   %cs
    ac12:	08 85 02 42 0d 05    	or     %al,0x50d4202(%ebp)
    ac18:	14 00                	adc    $0x0,%al
    ac1a:	00 00                	add    %al,(%eax)
    ac1c:	d8 12                	fcoms  (%edx)
    ac1e:	00 00                	add    %al,(%eax)
    ac20:	da 32                	fidivl (%edx)
    ac22:	00 00                	add    %al,(%eax)
    ac24:	14 00                	adc    $0x0,%al
    ac26:	00 00                	add    %al,(%eax)
    ac28:	41                   	inc    %ecx
    ac29:	0e                   	push   %cs
    ac2a:	08 85 02 42 0d 05    	or     %al,0x50d4202(%ebp)
    ac30:	14 00                	adc    $0x0,%al
    ac32:	00 00                	add    %al,(%eax)
    ac34:	f0 12 00             	lock adc (%eax),%al
    ac37:	00 ee                	add    %ch,%dh
    ac39:	32 00                	xor    (%eax),%al
    ac3b:	00 14 00             	add    %dl,(%eax,%eax,1)
    ac3e:	00 00                	add    %al,(%eax)
    ac40:	41                   	inc    %ecx
    ac41:	0e                   	push   %cs
    ac42:	08 85 02 42 0d 05    	or     %al,0x50d4202(%ebp)
    ac48:	14 00                	adc    $0x0,%al
    ac4a:	00 00                	add    %al,(%eax)
    ac4c:	08 13                	or     %dl,(%ebx)
    ac4e:	00 00                	add    %al,(%eax)
    ac50:	02 33                	add    (%ebx),%dh
    ac52:	00 00                	add    %al,(%eax)
    ac54:	14 00                	adc    $0x0,%al
    ac56:	00 00                	add    %al,(%eax)
    ac58:	41                   	inc    %ecx
    ac59:	0e                   	push   %cs
    ac5a:	08 85 02 42 0d 05    	or     %al,0x50d4202(%ebp)
    ac60:	14 00                	adc    $0x0,%al
    ac62:	00 00                	add    %al,(%eax)
    ac64:	20 13                	and    %dl,(%ebx)
    ac66:	00 00                	add    %al,(%eax)
    ac68:	16                   	push   %ss
    ac69:	33 00                	xor    (%eax),%eax
    ac6b:	00 14 00             	add    %dl,(%eax,%eax,1)
    ac6e:	00 00                	add    %al,(%eax)
    ac70:	41                   	inc    %ecx
    ac71:	0e                   	push   %cs
    ac72:	08 85 02 42 0d 05    	or     %al,0x50d4202(%ebp)
    ac78:	14 00                	adc    $0x0,%al
    ac7a:	00 00                	add    %al,(%eax)
    ac7c:	38 13                	cmp    %dl,(%ebx)
    ac7e:	00 00                	add    %al,(%eax)
    ac80:	2a 33                	sub    (%ebx),%dh
    ac82:	00 00                	add    %al,(%eax)
    ac84:	14 00                	adc    $0x0,%al
    ac86:	00 00                	add    %al,(%eax)
    ac88:	41                   	inc    %ecx
    ac89:	0e                   	push   %cs
    ac8a:	08 85 02 42 0d 05    	or     %al,0x50d4202(%ebp)
    ac90:	14 00                	adc    $0x0,%al
    ac92:	00 00                	add    %al,(%eax)
    ac94:	50                   	push   %eax
    ac95:	13 00                	adc    (%eax),%eax
    ac97:	00 3e                	add    %bh,(%esi)
    ac99:	33 00                	xor    (%eax),%eax
    ac9b:	00 14 00             	add    %dl,(%eax,%eax,1)
    ac9e:	00 00                	add    %al,(%eax)
    aca0:	41                   	inc    %ecx
    aca1:	0e                   	push   %cs
    aca2:	08 85 02 42 0d 05    	or     %al,0x50d4202(%ebp)
    aca8:	14 00                	adc    $0x0,%al
    acaa:	00 00                	add    %al,(%eax)
    acac:	68 13 00 00 52       	push   $0x52000013
    acb1:	33 00                	xor    (%eax),%eax
    acb3:	00 14 00             	add    %dl,(%eax,%eax,1)
    acb6:	00 00                	add    %al,(%eax)
    acb8:	41                   	inc    %ecx
    acb9:	0e                   	push   %cs
    acba:	08 85 02 42 0d 05    	or     %al,0x50d4202(%ebp)
    acc0:	14 00                	adc    $0x0,%al
    acc2:	00 00                	add    %al,(%eax)
    acc4:	80 13 00             	adcb   $0x0,(%ebx)
    acc7:	00 66 33             	add    %ah,0x33(%esi)
    acca:	00 00                	add    %al,(%eax)
    accc:	14 00                	adc    $0x0,%al
    acce:	00 00                	add    %al,(%eax)
    acd0:	41                   	inc    %ecx
    acd1:	0e                   	push   %cs
    acd2:	08 85 02 42 0d 05    	or     %al,0x50d4202(%ebp)
    acd8:	14 00                	adc    $0x0,%al
    acda:	00 00                	add    %al,(%eax)
    acdc:	98                   	cwtl   
    acdd:	13 00                	adc    (%eax),%eax
    acdf:	00 7a 33             	add    %bh,0x33(%edx)
    ace2:	00 00                	add    %al,(%eax)
    ace4:	14 00                	adc    $0x0,%al
    ace6:	00 00                	add    %al,(%eax)
    ace8:	41                   	inc    %ecx
    ace9:	0e                   	push   %cs
    acea:	08 85 02 42 0d 05    	or     %al,0x50d4202(%ebp)
    acf0:	14 00                	adc    $0x0,%al
    acf2:	00 00                	add    %al,(%eax)
    acf4:	b0 13                	mov    $0x13,%al
    acf6:	00 00                	add    %al,(%eax)
    acf8:	8e 33                	mov    (%ebx),%?
    acfa:	00 00                	add    %al,(%eax)
    acfc:	14 00                	adc    $0x0,%al
    acfe:	00 00                	add    %al,(%eax)
    ad00:	41                   	inc    %ecx
    ad01:	0e                   	push   %cs
    ad02:	08 85 02 42 0d 05    	or     %al,0x50d4202(%ebp)
    ad08:	14 00                	adc    $0x0,%al
    ad0a:	00 00                	add    %al,(%eax)
    ad0c:	c8 13 00 00          	enter  $0x13,$0x0
    ad10:	a2 33 00 00 14       	mov    %al,0x14000033
    ad15:	00 00                	add    %al,(%eax)
    ad17:	00 41 0e             	add    %al,0xe(%ecx)
    ad1a:	08 85 02 42 0d 05    	or     %al,0x50d4202(%ebp)
    ad20:	14 00                	adc    $0x0,%al
    ad22:	00 00                	add    %al,(%eax)
    ad24:	e0 13                	loopne ad39 <ICH7_8259_Slave_Handler_End+0x3e40>
    ad26:	00 00                	add    %al,(%eax)
    ad28:	b6 33                	mov    $0x33,%dh
    ad2a:	00 00                	add    %al,(%eax)
    ad2c:	14 00                	adc    $0x0,%al
    ad2e:	00 00                	add    %al,(%eax)
    ad30:	41                   	inc    %ecx
    ad31:	0e                   	push   %cs
    ad32:	08 85 02 42 0d 05    	or     %al,0x50d4202(%ebp)
    ad38:	14 00                	adc    $0x0,%al
    ad3a:	00 00                	add    %al,(%eax)
    ad3c:	f8                   	clc    
    ad3d:	13 00                	adc    (%eax),%eax
    ad3f:	00 ca                	add    %cl,%dl
    ad41:	33 00                	xor    (%eax),%eax
    ad43:	00 14 00             	add    %dl,(%eax,%eax,1)
    ad46:	00 00                	add    %al,(%eax)
    ad48:	41                   	inc    %ecx
    ad49:	0e                   	push   %cs
    ad4a:	08 85 02 42 0d 05    	or     %al,0x50d4202(%ebp)
    ad50:	14 00                	adc    $0x0,%al
    ad52:	00 00                	add    %al,(%eax)
    ad54:	10 14 00             	adc    %dl,(%eax,%eax,1)
    ad57:	00 de                	add    %bl,%dh
    ad59:	33 00                	xor    (%eax),%eax
    ad5b:	00 14 00             	add    %dl,(%eax,%eax,1)
    ad5e:	00 00                	add    %al,(%eax)
    ad60:	41                   	inc    %ecx
    ad61:	0e                   	push   %cs
    ad62:	08 85 02 42 0d 05    	or     %al,0x50d4202(%ebp)
    ad68:	14 00                	adc    $0x0,%al
    ad6a:	00 00                	add    %al,(%eax)
    ad6c:	28 14 00             	sub    %dl,(%eax,%eax,1)
    ad6f:	00 f2                	add    %dh,%dl
    ad71:	33 00                	xor    (%eax),%eax
    ad73:	00 14 00             	add    %dl,(%eax,%eax,1)
    ad76:	00 00                	add    %al,(%eax)
    ad78:	41                   	inc    %ecx
    ad79:	0e                   	push   %cs
    ad7a:	08 85 02 42 0d 05    	or     %al,0x50d4202(%ebp)
    ad80:	14 00                	adc    $0x0,%al
    ad82:	00 00                	add    %al,(%eax)
    ad84:	40                   	inc    %eax
    ad85:	14 00                	adc    $0x0,%al
    ad87:	00 06                	add    %al,(%esi)
    ad89:	34 00                	xor    $0x0,%al
    ad8b:	00 14 00             	add    %dl,(%eax,%eax,1)
    ad8e:	00 00                	add    %al,(%eax)
    ad90:	41                   	inc    %ecx
    ad91:	0e                   	push   %cs
    ad92:	08 85 02 42 0d 05    	or     %al,0x50d4202(%ebp)
    ad98:	14 00                	adc    $0x0,%al
    ad9a:	00 00                	add    %al,(%eax)
    ad9c:	58                   	pop    %eax
    ad9d:	14 00                	adc    $0x0,%al
    ad9f:	00 1a                	add    %bl,(%edx)
    ada1:	34 00                	xor    $0x0,%al
    ada3:	00 14 00             	add    %dl,(%eax,%eax,1)
    ada6:	00 00                	add    %al,(%eax)
    ada8:	41                   	inc    %ecx
    ada9:	0e                   	push   %cs
    adaa:	08 85 02 42 0d 05    	or     %al,0x50d4202(%ebp)
    adb0:	14 00                	adc    $0x0,%al
    adb2:	00 00                	add    %al,(%eax)
    adb4:	70 14                	jo     adca <ICH7_8259_Slave_Handler_End+0x3ed1>
    adb6:	00 00                	add    %al,(%eax)
    adb8:	2e                   	cs
    adb9:	34 00                	xor    $0x0,%al
    adbb:	00 14 00             	add    %dl,(%eax,%eax,1)
    adbe:	00 00                	add    %al,(%eax)
    adc0:	41                   	inc    %ecx
    adc1:	0e                   	push   %cs
    adc2:	08 85 02 42 0d 05    	or     %al,0x50d4202(%ebp)
    adc8:	14 00                	adc    $0x0,%al
    adca:	00 00                	add    %al,(%eax)
    adcc:	88 14 00             	mov    %dl,(%eax,%eax,1)
    adcf:	00 42 34             	add    %al,0x34(%edx)
    add2:	00 00                	add    %al,(%eax)
    add4:	14 00                	adc    $0x0,%al
    add6:	00 00                	add    %al,(%eax)
    add8:	41                   	inc    %ecx
    add9:	0e                   	push   %cs
    adda:	08 85 02 42 0d 05    	or     %al,0x50d4202(%ebp)
    ade0:	14 00                	adc    $0x0,%al
    ade2:	00 00                	add    %al,(%eax)
    ade4:	a0 14 00 00 56       	mov    0x56000014,%al
    ade9:	34 00                	xor    $0x0,%al
    adeb:	00 14 00             	add    %dl,(%eax,%eax,1)
    adee:	00 00                	add    %al,(%eax)
    adf0:	41                   	inc    %ecx
    adf1:	0e                   	push   %cs
    adf2:	08 85 02 42 0d 05    	or     %al,0x50d4202(%ebp)
    adf8:	14 00                	adc    $0x0,%al
    adfa:	00 00                	add    %al,(%eax)
    adfc:	b8 14 00 00 6a       	mov    $0x6a000014,%eax
    ae01:	34 00                	xor    $0x0,%al
    ae03:	00 14 00             	add    %dl,(%eax,%eax,1)
    ae06:	00 00                	add    %al,(%eax)
    ae08:	41                   	inc    %ecx
    ae09:	0e                   	push   %cs
    ae0a:	08 85 02 42 0d 05    	or     %al,0x50d4202(%ebp)
    ae10:	14 00                	adc    $0x0,%al
    ae12:	00 00                	add    %al,(%eax)
    ae14:	d0 14 00             	rclb   (%eax,%eax,1)
    ae17:	00 7e 34             	add    %bh,0x34(%esi)
    ae1a:	00 00                	add    %al,(%eax)
    ae1c:	14 00                	adc    $0x0,%al
    ae1e:	00 00                	add    %al,(%eax)
    ae20:	41                   	inc    %ecx
    ae21:	0e                   	push   %cs
    ae22:	08 85 02 42 0d 05    	or     %al,0x50d4202(%ebp)
    ae28:	14 00                	adc    $0x0,%al
    ae2a:	00 00                	add    %al,(%eax)
    ae2c:	e8 14 00 00 92       	call   9200ae45 <_end+0x91fff1bd>
    ae31:	34 00                	xor    $0x0,%al
    ae33:	00 14 00             	add    %dl,(%eax,%eax,1)
    ae36:	00 00                	add    %al,(%eax)
    ae38:	41                   	inc    %ecx
    ae39:	0e                   	push   %cs
    ae3a:	08 85 02 42 0d 05    	or     %al,0x50d4202(%ebp)
    ae40:	14 00                	adc    $0x0,%al
    ae42:	00 00                	add    %al,(%eax)
    ae44:	00 15 00 00 a6 34    	add    %dl,0x34a60000
    ae4a:	00 00                	add    %al,(%eax)
    ae4c:	14 00                	adc    $0x0,%al
    ae4e:	00 00                	add    %al,(%eax)
    ae50:	41                   	inc    %ecx
    ae51:	0e                   	push   %cs
    ae52:	08 85 02 42 0d 05    	or     %al,0x50d4202(%ebp)
    ae58:	14 00                	adc    $0x0,%al
    ae5a:	00 00                	add    %al,(%eax)
    ae5c:	18 15 00 00 ba 34    	sbb    %dl,0x34ba0000
    ae62:	00 00                	add    %al,(%eax)
    ae64:	14 00                	adc    $0x0,%al
    ae66:	00 00                	add    %al,(%eax)
    ae68:	41                   	inc    %ecx
    ae69:	0e                   	push   %cs
    ae6a:	08 85 02 42 0d 05    	or     %al,0x50d4202(%ebp)
    ae70:	14 00                	adc    $0x0,%al
    ae72:	00 00                	add    %al,(%eax)
    ae74:	30 15 00 00 ce 34    	xor    %dl,0x34ce0000
    ae7a:	00 00                	add    %al,(%eax)
    ae7c:	14 00                	adc    $0x0,%al
    ae7e:	00 00                	add    %al,(%eax)
    ae80:	41                   	inc    %ecx
    ae81:	0e                   	push   %cs
    ae82:	08 85 02 42 0d 05    	or     %al,0x50d4202(%ebp)
    ae88:	14 00                	adc    $0x0,%al
    ae8a:	00 00                	add    %al,(%eax)
    ae8c:	48                   	dec    %eax
    ae8d:	15 00 00 e2 34       	adc    $0x34e20000,%eax
    ae92:	00 00                	add    %al,(%eax)
    ae94:	14 00                	adc    $0x0,%al
    ae96:	00 00                	add    %al,(%eax)
    ae98:	41                   	inc    %ecx
    ae99:	0e                   	push   %cs
    ae9a:	08 85 02 42 0d 05    	or     %al,0x50d4202(%ebp)
    aea0:	14 00                	adc    $0x0,%al
    aea2:	00 00                	add    %al,(%eax)
    aea4:	60                   	pusha  
    aea5:	15 00 00 f6 34       	adc    $0x34f60000,%eax
    aeaa:	00 00                	add    %al,(%eax)
    aeac:	14 00                	adc    $0x0,%al
    aeae:	00 00                	add    %al,(%eax)
    aeb0:	41                   	inc    %ecx
    aeb1:	0e                   	push   %cs
    aeb2:	08 85 02 42 0d 05    	or     %al,0x50d4202(%ebp)
    aeb8:	14 00                	adc    $0x0,%al
    aeba:	00 00                	add    %al,(%eax)
    aebc:	78 15                	js     aed3 <ICH7_8259_Slave_Handler_End+0x3fda>
    aebe:	00 00                	add    %al,(%eax)
    aec0:	0a 35 00 00 14 00    	or     0x140000,%dh
    aec6:	00 00                	add    %al,(%eax)
    aec8:	41                   	inc    %ecx
    aec9:	0e                   	push   %cs
    aeca:	08 85 02 42 0d 05    	or     %al,0x50d4202(%ebp)
    aed0:	14 00                	adc    $0x0,%al
    aed2:	00 00                	add    %al,(%eax)
    aed4:	90                   	nop
    aed5:	15 00 00 1e 35       	adc    $0x351e0000,%eax
    aeda:	00 00                	add    %al,(%eax)
    aedc:	14 00                	adc    $0x0,%al
    aede:	00 00                	add    %al,(%eax)
    aee0:	41                   	inc    %ecx
    aee1:	0e                   	push   %cs
    aee2:	08 85 02 42 0d 05    	or     %al,0x50d4202(%ebp)
    aee8:	14 00                	adc    $0x0,%al
    aeea:	00 00                	add    %al,(%eax)
    aeec:	a8 15                	test   $0x15,%al
    aeee:	00 00                	add    %al,(%eax)
    aef0:	32 35 00 00 14 00    	xor    0x140000,%dh
    aef6:	00 00                	add    %al,(%eax)
    aef8:	41                   	inc    %ecx
    aef9:	0e                   	push   %cs
    aefa:	08 85 02 42 0d 05    	or     %al,0x50d4202(%ebp)
    af00:	14 00                	adc    $0x0,%al
    af02:	00 00                	add    %al,(%eax)
    af04:	c0 15 00 00 46 35 00 	rclb   $0x0,0x35460000
    af0b:	00 14 00             	add    %dl,(%eax,%eax,1)
    af0e:	00 00                	add    %al,(%eax)
    af10:	41                   	inc    %ecx
    af11:	0e                   	push   %cs
    af12:	08 85 02 42 0d 05    	or     %al,0x50d4202(%ebp)
    af18:	14 00                	adc    $0x0,%al
    af1a:	00 00                	add    %al,(%eax)
    af1c:	d8 15 00 00 5a 35    	fcoms  0x355a0000
    af22:	00 00                	add    %al,(%eax)
    af24:	14 00                	adc    $0x0,%al
    af26:	00 00                	add    %al,(%eax)
    af28:	41                   	inc    %ecx
    af29:	0e                   	push   %cs
    af2a:	08 85 02 42 0d 05    	or     %al,0x50d4202(%ebp)
    af30:	14 00                	adc    $0x0,%al
    af32:	00 00                	add    %al,(%eax)
    af34:	f0 15 00 00 6e 35    	lock adc $0x356e0000,%eax
    af3a:	00 00                	add    %al,(%eax)
    af3c:	14 00                	adc    $0x0,%al
    af3e:	00 00                	add    %al,(%eax)
    af40:	41                   	inc    %ecx
    af41:	0e                   	push   %cs
    af42:	08 85 02 42 0d 05    	or     %al,0x50d4202(%ebp)
    af48:	14 00                	adc    $0x0,%al
    af4a:	00 00                	add    %al,(%eax)
    af4c:	08 16                	or     %dl,(%esi)
    af4e:	00 00                	add    %al,(%eax)
    af50:	82                   	(bad)  
    af51:	35 00 00 14 00       	xor    $0x140000,%eax
    af56:	00 00                	add    %al,(%eax)
    af58:	41                   	inc    %ecx
    af59:	0e                   	push   %cs
    af5a:	08 85 02 42 0d 05    	or     %al,0x50d4202(%ebp)
    af60:	14 00                	adc    $0x0,%al
    af62:	00 00                	add    %al,(%eax)
    af64:	20 16                	and    %dl,(%esi)
    af66:	00 00                	add    %al,(%eax)
    af68:	96                   	xchg   %eax,%esi
    af69:	35 00 00 14 00       	xor    $0x140000,%eax
    af6e:	00 00                	add    %al,(%eax)
    af70:	41                   	inc    %ecx
    af71:	0e                   	push   %cs
    af72:	08 85 02 42 0d 05    	or     %al,0x50d4202(%ebp)
    af78:	14 00                	adc    $0x0,%al
    af7a:	00 00                	add    %al,(%eax)
    af7c:	38 16                	cmp    %dl,(%esi)
    af7e:	00 00                	add    %al,(%eax)
    af80:	aa                   	stos   %al,%es:(%edi)
    af81:	35 00 00 14 00       	xor    $0x140000,%eax
    af86:	00 00                	add    %al,(%eax)
    af88:	41                   	inc    %ecx
    af89:	0e                   	push   %cs
    af8a:	08 85 02 42 0d 05    	or     %al,0x50d4202(%ebp)
    af90:	14 00                	adc    $0x0,%al
    af92:	00 00                	add    %al,(%eax)
    af94:	50                   	push   %eax
    af95:	16                   	push   %ss
    af96:	00 00                	add    %al,(%eax)
    af98:	be 35 00 00 14       	mov    $0x14000035,%esi
    af9d:	00 00                	add    %al,(%eax)
    af9f:	00 41 0e             	add    %al,0xe(%ecx)
    afa2:	08 85 02 42 0d 05    	or     %al,0x50d4202(%ebp)
    afa8:	14 00                	adc    $0x0,%al
    afaa:	00 00                	add    %al,(%eax)
    afac:	68 16 00 00 d2       	push   $0xd2000016
    afb1:	35 00 00 14 00       	xor    $0x140000,%eax
    afb6:	00 00                	add    %al,(%eax)
    afb8:	41                   	inc    %ecx
    afb9:	0e                   	push   %cs
    afba:	08 85 02 42 0d 05    	or     %al,0x50d4202(%ebp)
    afc0:	14 00                	adc    $0x0,%al
    afc2:	00 00                	add    %al,(%eax)
    afc4:	80 16 00             	adcb   $0x0,(%esi)
    afc7:	00 e6                	add    %ah,%dh
    afc9:	35 00 00 14 00       	xor    $0x140000,%eax
    afce:	00 00                	add    %al,(%eax)
    afd0:	41                   	inc    %ecx
    afd1:	0e                   	push   %cs
    afd2:	08 85 02 42 0d 05    	or     %al,0x50d4202(%ebp)
    afd8:	14 00                	adc    $0x0,%al
    afda:	00 00                	add    %al,(%eax)
    afdc:	98                   	cwtl   
    afdd:	16                   	push   %ss
    afde:	00 00                	add    %al,(%eax)
    afe0:	fa                   	cli    
    afe1:	35 00 00 14 00       	xor    $0x140000,%eax
    afe6:	00 00                	add    %al,(%eax)
    afe8:	41                   	inc    %ecx
    afe9:	0e                   	push   %cs
    afea:	08 85 02 42 0d 05    	or     %al,0x50d4202(%ebp)
    aff0:	14 00                	adc    $0x0,%al
    aff2:	00 00                	add    %al,(%eax)
    aff4:	b0 16                	mov    $0x16,%al
    aff6:	00 00                	add    %al,(%eax)
    aff8:	0e                   	push   %cs
    aff9:	36 00 00             	add    %al,%ss:(%eax)
    affc:	14 00                	adc    $0x0,%al
    affe:	00 00                	add    %al,(%eax)
    b000:	41                   	inc    %ecx
    b001:	0e                   	push   %cs
    b002:	08 85 02 42 0d 05    	or     %al,0x50d4202(%ebp)
    b008:	14 00                	adc    $0x0,%al
    b00a:	00 00                	add    %al,(%eax)
    b00c:	c8 16 00 00          	enter  $0x16,$0x0
    b010:	22 36                	and    (%esi),%dh
    b012:	00 00                	add    %al,(%eax)
    b014:	14 00                	adc    $0x0,%al
    b016:	00 00                	add    %al,(%eax)
    b018:	41                   	inc    %ecx
    b019:	0e                   	push   %cs
    b01a:	08 85 02 42 0d 05    	or     %al,0x50d4202(%ebp)
    b020:	14 00                	adc    $0x0,%al
    b022:	00 00                	add    %al,(%eax)
    b024:	e0 16                	loopne b03c <ICH7_8259_Slave_Handler_End+0x4143>
    b026:	00 00                	add    %al,(%eax)
    b028:	36 36 00 00          	ss add %al,%ss:(%eax)
    b02c:	14 00                	adc    $0x0,%al
    b02e:	00 00                	add    %al,(%eax)
    b030:	41                   	inc    %ecx
    b031:	0e                   	push   %cs
    b032:	08 85 02 42 0d 05    	or     %al,0x50d4202(%ebp)
    b038:	14 00                	adc    $0x0,%al
    b03a:	00 00                	add    %al,(%eax)
    b03c:	f8                   	clc    
    b03d:	16                   	push   %ss
    b03e:	00 00                	add    %al,(%eax)
    b040:	4a                   	dec    %edx
    b041:	36 00 00             	add    %al,%ss:(%eax)
    b044:	14 00                	adc    $0x0,%al
    b046:	00 00                	add    %al,(%eax)
    b048:	41                   	inc    %ecx
    b049:	0e                   	push   %cs
    b04a:	08 85 02 42 0d 05    	or     %al,0x50d4202(%ebp)
    b050:	14 00                	adc    $0x0,%al
    b052:	00 00                	add    %al,(%eax)
    b054:	10 17                	adc    %dl,(%edi)
    b056:	00 00                	add    %al,(%eax)
    b058:	5e                   	pop    %esi
    b059:	36 00 00             	add    %al,%ss:(%eax)
    b05c:	14 00                	adc    $0x0,%al
    b05e:	00 00                	add    %al,(%eax)
    b060:	41                   	inc    %ecx
    b061:	0e                   	push   %cs
    b062:	08 85 02 42 0d 05    	or     %al,0x50d4202(%ebp)
    b068:	14 00                	adc    $0x0,%al
    b06a:	00 00                	add    %al,(%eax)
    b06c:	28 17                	sub    %dl,(%edi)
    b06e:	00 00                	add    %al,(%eax)
    b070:	72 36                	jb     b0a8 <ICH7_8259_Slave_Handler_End+0x41af>
    b072:	00 00                	add    %al,(%eax)
    b074:	14 00                	adc    $0x0,%al
    b076:	00 00                	add    %al,(%eax)
    b078:	41                   	inc    %ecx
    b079:	0e                   	push   %cs
    b07a:	08 85 02 42 0d 05    	or     %al,0x50d4202(%ebp)
    b080:	14 00                	adc    $0x0,%al
    b082:	00 00                	add    %al,(%eax)
    b084:	40                   	inc    %eax
    b085:	17                   	pop    %ss
    b086:	00 00                	add    %al,(%eax)
    b088:	86 36                	xchg   %dh,(%esi)
    b08a:	00 00                	add    %al,(%eax)
    b08c:	14 00                	adc    $0x0,%al
    b08e:	00 00                	add    %al,(%eax)
    b090:	41                   	inc    %ecx
    b091:	0e                   	push   %cs
    b092:	08 85 02 42 0d 05    	or     %al,0x50d4202(%ebp)
    b098:	14 00                	adc    $0x0,%al
    b09a:	00 00                	add    %al,(%eax)
    b09c:	58                   	pop    %eax
    b09d:	17                   	pop    %ss
    b09e:	00 00                	add    %al,(%eax)
    b0a0:	9a 36 00 00 14 00 00 	lcall  $0x0,$0x14000036
    b0a7:	00 41 0e             	add    %al,0xe(%ecx)
    b0aa:	08 85 02 42 0d 05    	or     %al,0x50d4202(%ebp)
    b0b0:	14 00                	adc    $0x0,%al
    b0b2:	00 00                	add    %al,(%eax)
    b0b4:	70 17                	jo     b0cd <ICH7_8259_Slave_Handler_End+0x41d4>
    b0b6:	00 00                	add    %al,(%eax)
    b0b8:	ae                   	scas   %es:(%edi),%al
    b0b9:	36 00 00             	add    %al,%ss:(%eax)
    b0bc:	14 00                	adc    $0x0,%al
    b0be:	00 00                	add    %al,(%eax)
    b0c0:	41                   	inc    %ecx
    b0c1:	0e                   	push   %cs
    b0c2:	08 85 02 42 0d 05    	or     %al,0x50d4202(%ebp)
    b0c8:	14 00                	adc    $0x0,%al
    b0ca:	00 00                	add    %al,(%eax)
    b0cc:	88 17                	mov    %dl,(%edi)
    b0ce:	00 00                	add    %al,(%eax)
    b0d0:	c2 36 00             	ret    $0x36
    b0d3:	00 14 00             	add    %dl,(%eax,%eax,1)
    b0d6:	00 00                	add    %al,(%eax)
    b0d8:	41                   	inc    %ecx
    b0d9:	0e                   	push   %cs
    b0da:	08 85 02 42 0d 05    	or     %al,0x50d4202(%ebp)
    b0e0:	14 00                	adc    $0x0,%al
    b0e2:	00 00                	add    %al,(%eax)
    b0e4:	a0 17 00 00 d6       	mov    0xd6000017,%al
    b0e9:	36 00 00             	add    %al,%ss:(%eax)
    b0ec:	14 00                	adc    $0x0,%al
    b0ee:	00 00                	add    %al,(%eax)
    b0f0:	41                   	inc    %ecx
    b0f1:	0e                   	push   %cs
    b0f2:	08 85 02 42 0d 05    	or     %al,0x50d4202(%ebp)
    b0f8:	14 00                	adc    $0x0,%al
    b0fa:	00 00                	add    %al,(%eax)
    b0fc:	b8 17 00 00 ea       	mov    $0xea000017,%eax
    b101:	36 00 00             	add    %al,%ss:(%eax)
    b104:	14 00                	adc    $0x0,%al
    b106:	00 00                	add    %al,(%eax)
    b108:	41                   	inc    %ecx
    b109:	0e                   	push   %cs
    b10a:	08 85 02 42 0d 05    	or     %al,0x50d4202(%ebp)
    b110:	14 00                	adc    $0x0,%al
    b112:	00 00                	add    %al,(%eax)
    b114:	d0 17                	rclb   (%edi)
    b116:	00 00                	add    %al,(%eax)
    b118:	fe                   	(bad)  
    b119:	36 00 00             	add    %al,%ss:(%eax)
    b11c:	14 00                	adc    $0x0,%al
    b11e:	00 00                	add    %al,(%eax)
    b120:	41                   	inc    %ecx
    b121:	0e                   	push   %cs
    b122:	08 85 02 42 0d 05    	or     %al,0x50d4202(%ebp)
    b128:	14 00                	adc    $0x0,%al
    b12a:	00 00                	add    %al,(%eax)
    b12c:	e8 17 00 00 12       	call   1200b148 <_end+0x11fff4c0>
    b131:	37                   	aaa    
    b132:	00 00                	add    %al,(%eax)
    b134:	14 00                	adc    $0x0,%al
    b136:	00 00                	add    %al,(%eax)
    b138:	41                   	inc    %ecx
    b139:	0e                   	push   %cs
    b13a:	08 85 02 42 0d 05    	or     %al,0x50d4202(%ebp)
    b140:	14 00                	adc    $0x0,%al
    b142:	00 00                	add    %al,(%eax)
    b144:	00 18                	add    %bl,(%eax)
    b146:	00 00                	add    %al,(%eax)
    b148:	26                   	es
    b149:	37                   	aaa    
    b14a:	00 00                	add    %al,(%eax)
    b14c:	14 00                	adc    $0x0,%al
    b14e:	00 00                	add    %al,(%eax)
    b150:	41                   	inc    %ecx
    b151:	0e                   	push   %cs
    b152:	08 85 02 42 0d 05    	or     %al,0x50d4202(%ebp)
    b158:	14 00                	adc    $0x0,%al
    b15a:	00 00                	add    %al,(%eax)
    b15c:	18 18                	sbb    %bl,(%eax)
    b15e:	00 00                	add    %al,(%eax)
    b160:	3a 37                	cmp    (%edi),%dh
    b162:	00 00                	add    %al,(%eax)
    b164:	14 00                	adc    $0x0,%al
    b166:	00 00                	add    %al,(%eax)
    b168:	41                   	inc    %ecx
    b169:	0e                   	push   %cs
    b16a:	08 85 02 42 0d 05    	or     %al,0x50d4202(%ebp)
    b170:	14 00                	adc    $0x0,%al
    b172:	00 00                	add    %al,(%eax)
    b174:	30 18                	xor    %bl,(%eax)
    b176:	00 00                	add    %al,(%eax)
    b178:	4e                   	dec    %esi
    b179:	37                   	aaa    
    b17a:	00 00                	add    %al,(%eax)
    b17c:	14 00                	adc    $0x0,%al
    b17e:	00 00                	add    %al,(%eax)
    b180:	41                   	inc    %ecx
    b181:	0e                   	push   %cs
    b182:	08 85 02 42 0d 05    	or     %al,0x50d4202(%ebp)
    b188:	14 00                	adc    $0x0,%al
    b18a:	00 00                	add    %al,(%eax)
    b18c:	48                   	dec    %eax
    b18d:	18 00                	sbb    %al,(%eax)
    b18f:	00 62 37             	add    %ah,0x37(%edx)
    b192:	00 00                	add    %al,(%eax)
    b194:	14 00                	adc    $0x0,%al
    b196:	00 00                	add    %al,(%eax)
    b198:	41                   	inc    %ecx
    b199:	0e                   	push   %cs
    b19a:	08 85 02 42 0d 05    	or     %al,0x50d4202(%ebp)
    b1a0:	14 00                	adc    $0x0,%al
    b1a2:	00 00                	add    %al,(%eax)
    b1a4:	60                   	pusha  
    b1a5:	18 00                	sbb    %al,(%eax)
    b1a7:	00 76 37             	add    %dh,0x37(%esi)
    b1aa:	00 00                	add    %al,(%eax)
    b1ac:	14 00                	adc    $0x0,%al
    b1ae:	00 00                	add    %al,(%eax)
    b1b0:	41                   	inc    %ecx
    b1b1:	0e                   	push   %cs
    b1b2:	08 85 02 42 0d 05    	or     %al,0x50d4202(%ebp)
    b1b8:	14 00                	adc    $0x0,%al
    b1ba:	00 00                	add    %al,(%eax)
    b1bc:	78 18                	js     b1d6 <ICH7_8259_Slave_Handler_End+0x42dd>
    b1be:	00 00                	add    %al,(%eax)
    b1c0:	8a 37                	mov    (%edi),%dh
    b1c2:	00 00                	add    %al,(%eax)
    b1c4:	14 00                	adc    $0x0,%al
    b1c6:	00 00                	add    %al,(%eax)
    b1c8:	41                   	inc    %ecx
    b1c9:	0e                   	push   %cs
    b1ca:	08 85 02 42 0d 05    	or     %al,0x50d4202(%ebp)
    b1d0:	14 00                	adc    $0x0,%al
    b1d2:	00 00                	add    %al,(%eax)
    b1d4:	90                   	nop
    b1d5:	18 00                	sbb    %al,(%eax)
    b1d7:	00 9e 37 00 00 14    	add    %bl,0x14000037(%esi)
    b1dd:	00 00                	add    %al,(%eax)
    b1df:	00 41 0e             	add    %al,0xe(%ecx)
    b1e2:	08 85 02 42 0d 05    	or     %al,0x50d4202(%ebp)
    b1e8:	14 00                	adc    $0x0,%al
    b1ea:	00 00                	add    %al,(%eax)
    b1ec:	a8 18                	test   $0x18,%al
    b1ee:	00 00                	add    %al,(%eax)
    b1f0:	b2 37                	mov    $0x37,%dl
    b1f2:	00 00                	add    %al,(%eax)
    b1f4:	14 00                	adc    $0x0,%al
    b1f6:	00 00                	add    %al,(%eax)
    b1f8:	41                   	inc    %ecx
    b1f9:	0e                   	push   %cs
    b1fa:	08 85 02 42 0d 05    	or     %al,0x50d4202(%ebp)
    b200:	14 00                	adc    $0x0,%al
    b202:	00 00                	add    %al,(%eax)
    b204:	c0 18 00             	rcrb   $0x0,(%eax)
    b207:	00 c6                	add    %al,%dh
    b209:	37                   	aaa    
    b20a:	00 00                	add    %al,(%eax)
    b20c:	14 00                	adc    $0x0,%al
    b20e:	00 00                	add    %al,(%eax)
    b210:	41                   	inc    %ecx
    b211:	0e                   	push   %cs
    b212:	08 85 02 42 0d 05    	or     %al,0x50d4202(%ebp)
    b218:	14 00                	adc    $0x0,%al
    b21a:	00 00                	add    %al,(%eax)
    b21c:	d8 18                	fcomps (%eax)
    b21e:	00 00                	add    %al,(%eax)
    b220:	da 37                	fidivl (%edi)
    b222:	00 00                	add    %al,(%eax)
    b224:	14 00                	adc    $0x0,%al
    b226:	00 00                	add    %al,(%eax)
    b228:	41                   	inc    %ecx
    b229:	0e                   	push   %cs
    b22a:	08 85 02 42 0d 05    	or     %al,0x50d4202(%ebp)
    b230:	14 00                	adc    $0x0,%al
    b232:	00 00                	add    %al,(%eax)
    b234:	f0 18 00             	lock sbb %al,(%eax)
    b237:	00 ee                	add    %ch,%dh
    b239:	37                   	aaa    
    b23a:	00 00                	add    %al,(%eax)
    b23c:	14 00                	adc    $0x0,%al
    b23e:	00 00                	add    %al,(%eax)
    b240:	41                   	inc    %ecx
    b241:	0e                   	push   %cs
    b242:	08 85 02 42 0d 05    	or     %al,0x50d4202(%ebp)
    b248:	14 00                	adc    $0x0,%al
    b24a:	00 00                	add    %al,(%eax)
    b24c:	08 19                	or     %bl,(%ecx)
    b24e:	00 00                	add    %al,(%eax)
    b250:	02 38                	add    (%eax),%bh
    b252:	00 00                	add    %al,(%eax)
    b254:	14 00                	adc    $0x0,%al
    b256:	00 00                	add    %al,(%eax)
    b258:	41                   	inc    %ecx
    b259:	0e                   	push   %cs
    b25a:	08 85 02 42 0d 05    	or     %al,0x50d4202(%ebp)
    b260:	14 00                	adc    $0x0,%al
    b262:	00 00                	add    %al,(%eax)
    b264:	20 19                	and    %bl,(%ecx)
    b266:	00 00                	add    %al,(%eax)
    b268:	16                   	push   %ss
    b269:	38 00                	cmp    %al,(%eax)
    b26b:	00 14 00             	add    %dl,(%eax,%eax,1)
    b26e:	00 00                	add    %al,(%eax)
    b270:	41                   	inc    %ecx
    b271:	0e                   	push   %cs
    b272:	08 85 02 42 0d 05    	or     %al,0x50d4202(%ebp)
    b278:	14 00                	adc    $0x0,%al
    b27a:	00 00                	add    %al,(%eax)
    b27c:	38 19                	cmp    %bl,(%ecx)
    b27e:	00 00                	add    %al,(%eax)
    b280:	2a 38                	sub    (%eax),%bh
    b282:	00 00                	add    %al,(%eax)
    b284:	14 00                	adc    $0x0,%al
    b286:	00 00                	add    %al,(%eax)
    b288:	41                   	inc    %ecx
    b289:	0e                   	push   %cs
    b28a:	08 85 02 42 0d 05    	or     %al,0x50d4202(%ebp)
    b290:	14 00                	adc    $0x0,%al
    b292:	00 00                	add    %al,(%eax)
    b294:	50                   	push   %eax
    b295:	19 00                	sbb    %eax,(%eax)
    b297:	00 3e                	add    %bh,(%esi)
    b299:	38 00                	cmp    %al,(%eax)
    b29b:	00 14 00             	add    %dl,(%eax,%eax,1)
    b29e:	00 00                	add    %al,(%eax)
    b2a0:	41                   	inc    %ecx
    b2a1:	0e                   	push   %cs
    b2a2:	08 85 02 42 0d 05    	or     %al,0x50d4202(%ebp)
    b2a8:	14 00                	adc    $0x0,%al
    b2aa:	00 00                	add    %al,(%eax)
    b2ac:	68 19 00 00 52       	push   $0x52000019
    b2b1:	38 00                	cmp    %al,(%eax)
    b2b3:	00 14 00             	add    %dl,(%eax,%eax,1)
    b2b6:	00 00                	add    %al,(%eax)
    b2b8:	41                   	inc    %ecx
    b2b9:	0e                   	push   %cs
    b2ba:	08 85 02 42 0d 05    	or     %al,0x50d4202(%ebp)
    b2c0:	14 00                	adc    $0x0,%al
    b2c2:	00 00                	add    %al,(%eax)
    b2c4:	80 19 00             	sbbb   $0x0,(%ecx)
    b2c7:	00 66 38             	add    %ah,0x38(%esi)
    b2ca:	00 00                	add    %al,(%eax)
    b2cc:	14 00                	adc    $0x0,%al
    b2ce:	00 00                	add    %al,(%eax)
    b2d0:	41                   	inc    %ecx
    b2d1:	0e                   	push   %cs
    b2d2:	08 85 02 42 0d 05    	or     %al,0x50d4202(%ebp)
    b2d8:	14 00                	adc    $0x0,%al
    b2da:	00 00                	add    %al,(%eax)
    b2dc:	98                   	cwtl   
    b2dd:	19 00                	sbb    %eax,(%eax)
    b2df:	00 7a 38             	add    %bh,0x38(%edx)
    b2e2:	00 00                	add    %al,(%eax)
    b2e4:	14 00                	adc    $0x0,%al
    b2e6:	00 00                	add    %al,(%eax)
    b2e8:	41                   	inc    %ecx
    b2e9:	0e                   	push   %cs
    b2ea:	08 85 02 42 0d 05    	or     %al,0x50d4202(%ebp)
    b2f0:	14 00                	adc    $0x0,%al
    b2f2:	00 00                	add    %al,(%eax)
    b2f4:	b0 19                	mov    $0x19,%al
    b2f6:	00 00                	add    %al,(%eax)
    b2f8:	8e 38                	mov    (%eax),%?
    b2fa:	00 00                	add    %al,(%eax)
    b2fc:	14 00                	adc    $0x0,%al
    b2fe:	00 00                	add    %al,(%eax)
    b300:	41                   	inc    %ecx
    b301:	0e                   	push   %cs
    b302:	08 85 02 42 0d 05    	or     %al,0x50d4202(%ebp)
    b308:	14 00                	adc    $0x0,%al
    b30a:	00 00                	add    %al,(%eax)
    b30c:	c8 19 00 00          	enter  $0x19,$0x0
    b310:	a2 38 00 00 14       	mov    %al,0x14000038
    b315:	00 00                	add    %al,(%eax)
    b317:	00 41 0e             	add    %al,0xe(%ecx)
    b31a:	08 85 02 42 0d 05    	or     %al,0x50d4202(%ebp)
    b320:	14 00                	adc    $0x0,%al
    b322:	00 00                	add    %al,(%eax)
    b324:	e0 19                	loopne b33f <ICH7_8259_Slave_Handler_End+0x4446>
    b326:	00 00                	add    %al,(%eax)
    b328:	b6 38                	mov    $0x38,%dh
    b32a:	00 00                	add    %al,(%eax)
    b32c:	14 00                	adc    $0x0,%al
    b32e:	00 00                	add    %al,(%eax)
    b330:	41                   	inc    %ecx
    b331:	0e                   	push   %cs
    b332:	08 85 02 42 0d 05    	or     %al,0x50d4202(%ebp)
    b338:	14 00                	adc    $0x0,%al
    b33a:	00 00                	add    %al,(%eax)
    b33c:	f8                   	clc    
    b33d:	19 00                	sbb    %eax,(%eax)
    b33f:	00 ca                	add    %cl,%dl
    b341:	38 00                	cmp    %al,(%eax)
    b343:	00 14 00             	add    %dl,(%eax,%eax,1)
    b346:	00 00                	add    %al,(%eax)
    b348:	41                   	inc    %ecx
    b349:	0e                   	push   %cs
    b34a:	08 85 02 42 0d 05    	or     %al,0x50d4202(%ebp)
    b350:	14 00                	adc    $0x0,%al
    b352:	00 00                	add    %al,(%eax)
    b354:	10 1a                	adc    %bl,(%edx)
    b356:	00 00                	add    %al,(%eax)
    b358:	de 38                	fidivr (%eax)
    b35a:	00 00                	add    %al,(%eax)
    b35c:	14 00                	adc    $0x0,%al
    b35e:	00 00                	add    %al,(%eax)
    b360:	41                   	inc    %ecx
    b361:	0e                   	push   %cs
    b362:	08 85 02 42 0d 05    	or     %al,0x50d4202(%ebp)
    b368:	14 00                	adc    $0x0,%al
    b36a:	00 00                	add    %al,(%eax)
    b36c:	28 1a                	sub    %bl,(%edx)
    b36e:	00 00                	add    %al,(%eax)
    b370:	f2 38 00             	repnz cmp %al,(%eax)
    b373:	00 14 00             	add    %dl,(%eax,%eax,1)
    b376:	00 00                	add    %al,(%eax)
    b378:	41                   	inc    %ecx
    b379:	0e                   	push   %cs
    b37a:	08 85 02 42 0d 05    	or     %al,0x50d4202(%ebp)
    b380:	14 00                	adc    $0x0,%al
    b382:	00 00                	add    %al,(%eax)
    b384:	40                   	inc    %eax
    b385:	1a 00                	sbb    (%eax),%al
    b387:	00 06                	add    %al,(%esi)
    b389:	39 00                	cmp    %eax,(%eax)
    b38b:	00 14 00             	add    %dl,(%eax,%eax,1)
    b38e:	00 00                	add    %al,(%eax)
    b390:	41                   	inc    %ecx
    b391:	0e                   	push   %cs
    b392:	08 85 02 42 0d 05    	or     %al,0x50d4202(%ebp)
    b398:	14 00                	adc    $0x0,%al
    b39a:	00 00                	add    %al,(%eax)
    b39c:	58                   	pop    %eax
    b39d:	1a 00                	sbb    (%eax),%al
    b39f:	00 1a                	add    %bl,(%edx)
    b3a1:	39 00                	cmp    %eax,(%eax)
    b3a3:	00 14 00             	add    %dl,(%eax,%eax,1)
    b3a6:	00 00                	add    %al,(%eax)
    b3a8:	41                   	inc    %ecx
    b3a9:	0e                   	push   %cs
    b3aa:	08 85 02 42 0d 05    	or     %al,0x50d4202(%ebp)
    b3b0:	14 00                	adc    $0x0,%al
    b3b2:	00 00                	add    %al,(%eax)
    b3b4:	70 1a                	jo     b3d0 <ICH7_8259_Slave_Handler_End+0x44d7>
    b3b6:	00 00                	add    %al,(%eax)
    b3b8:	2e 39 00             	cmp    %eax,%cs:(%eax)
    b3bb:	00 14 00             	add    %dl,(%eax,%eax,1)
    b3be:	00 00                	add    %al,(%eax)
    b3c0:	41                   	inc    %ecx
    b3c1:	0e                   	push   %cs
    b3c2:	08 85 02 42 0d 05    	or     %al,0x50d4202(%ebp)
    b3c8:	14 00                	adc    $0x0,%al
    b3ca:	00 00                	add    %al,(%eax)
    b3cc:	88 1a                	mov    %bl,(%edx)
    b3ce:	00 00                	add    %al,(%eax)
    b3d0:	42                   	inc    %edx
    b3d1:	39 00                	cmp    %eax,(%eax)
    b3d3:	00 14 00             	add    %dl,(%eax,%eax,1)
    b3d6:	00 00                	add    %al,(%eax)
    b3d8:	41                   	inc    %ecx
    b3d9:	0e                   	push   %cs
    b3da:	08 85 02 42 0d 05    	or     %al,0x50d4202(%ebp)
    b3e0:	14 00                	adc    $0x0,%al
    b3e2:	00 00                	add    %al,(%eax)
    b3e4:	a0 1a 00 00 56       	mov    0x5600001a,%al
    b3e9:	39 00                	cmp    %eax,(%eax)
    b3eb:	00 14 00             	add    %dl,(%eax,%eax,1)
    b3ee:	00 00                	add    %al,(%eax)
    b3f0:	41                   	inc    %ecx
    b3f1:	0e                   	push   %cs
    b3f2:	08 85 02 42 0d 05    	or     %al,0x50d4202(%ebp)
    b3f8:	14 00                	adc    $0x0,%al
    b3fa:	00 00                	add    %al,(%eax)
    b3fc:	b8 1a 00 00 6a       	mov    $0x6a00001a,%eax
    b401:	39 00                	cmp    %eax,(%eax)
    b403:	00 14 00             	add    %dl,(%eax,%eax,1)
    b406:	00 00                	add    %al,(%eax)
    b408:	41                   	inc    %ecx
    b409:	0e                   	push   %cs
    b40a:	08 85 02 42 0d 05    	or     %al,0x50d4202(%ebp)
    b410:	14 00                	adc    $0x0,%al
    b412:	00 00                	add    %al,(%eax)
    b414:	d0 1a                	rcrb   (%edx)
    b416:	00 00                	add    %al,(%eax)
    b418:	7e 39                	jle    b453 <ICH7_8259_Slave_Handler_End+0x455a>
    b41a:	00 00                	add    %al,(%eax)
    b41c:	14 00                	adc    $0x0,%al
    b41e:	00 00                	add    %al,(%eax)
    b420:	41                   	inc    %ecx
    b421:	0e                   	push   %cs
    b422:	08 85 02 42 0d 05    	or     %al,0x50d4202(%ebp)
    b428:	14 00                	adc    $0x0,%al
    b42a:	00 00                	add    %al,(%eax)
    b42c:	e8 1a 00 00 92       	call   9200b44b <_end+0x91fff7c3>
    b431:	39 00                	cmp    %eax,(%eax)
    b433:	00 14 00             	add    %dl,(%eax,%eax,1)
    b436:	00 00                	add    %al,(%eax)
    b438:	41                   	inc    %ecx
    b439:	0e                   	push   %cs
    b43a:	08 85 02 42 0d 05    	or     %al,0x50d4202(%ebp)
    b440:	14 00                	adc    $0x0,%al
    b442:	00 00                	add    %al,(%eax)
    b444:	00 1b                	add    %bl,(%ebx)
    b446:	00 00                	add    %al,(%eax)
    b448:	a6                   	cmpsb  %es:(%edi),%ds:(%esi)
    b449:	39 00                	cmp    %eax,(%eax)
    b44b:	00 14 00             	add    %dl,(%eax,%eax,1)
    b44e:	00 00                	add    %al,(%eax)
    b450:	41                   	inc    %ecx
    b451:	0e                   	push   %cs
    b452:	08 85 02 42 0d 05    	or     %al,0x50d4202(%ebp)
    b458:	14 00                	adc    $0x0,%al
    b45a:	00 00                	add    %al,(%eax)
    b45c:	18 1b                	sbb    %bl,(%ebx)
    b45e:	00 00                	add    %al,(%eax)
    b460:	ba 39 00 00 14       	mov    $0x14000039,%edx
    b465:	00 00                	add    %al,(%eax)
    b467:	00 41 0e             	add    %al,0xe(%ecx)
    b46a:	08 85 02 42 0d 05    	or     %al,0x50d4202(%ebp)
    b470:	14 00                	adc    $0x0,%al
    b472:	00 00                	add    %al,(%eax)
    b474:	30 1b                	xor    %bl,(%ebx)
    b476:	00 00                	add    %al,(%eax)
    b478:	ce                   	into   
    b479:	39 00                	cmp    %eax,(%eax)
    b47b:	00 14 00             	add    %dl,(%eax,%eax,1)
    b47e:	00 00                	add    %al,(%eax)
    b480:	41                   	inc    %ecx
    b481:	0e                   	push   %cs
    b482:	08 85 02 42 0d 05    	or     %al,0x50d4202(%ebp)
    b488:	14 00                	adc    $0x0,%al
    b48a:	00 00                	add    %al,(%eax)
    b48c:	48                   	dec    %eax
    b48d:	1b 00                	sbb    (%eax),%eax
    b48f:	00 e2                	add    %ah,%dl
    b491:	39 00                	cmp    %eax,(%eax)
    b493:	00 14 00             	add    %dl,(%eax,%eax,1)
    b496:	00 00                	add    %al,(%eax)
    b498:	41                   	inc    %ecx
    b499:	0e                   	push   %cs
    b49a:	08 85 02 42 0d 05    	or     %al,0x50d4202(%ebp)
    b4a0:	14 00                	adc    $0x0,%al
    b4a2:	00 00                	add    %al,(%eax)
    b4a4:	60                   	pusha  
    b4a5:	1b 00                	sbb    (%eax),%eax
    b4a7:	00 f6                	add    %dh,%dh
    b4a9:	39 00                	cmp    %eax,(%eax)
    b4ab:	00 14 00             	add    %dl,(%eax,%eax,1)
    b4ae:	00 00                	add    %al,(%eax)
    b4b0:	41                   	inc    %ecx
    b4b1:	0e                   	push   %cs
    b4b2:	08 85 02 42 0d 05    	or     %al,0x50d4202(%ebp)
    b4b8:	14 00                	adc    $0x0,%al
    b4ba:	00 00                	add    %al,(%eax)
    b4bc:	78 1b                	js     b4d9 <ICH7_8259_Slave_Handler_End+0x45e0>
    b4be:	00 00                	add    %al,(%eax)
    b4c0:	0a 3a                	or     (%edx),%bh
    b4c2:	00 00                	add    %al,(%eax)
    b4c4:	14 00                	adc    $0x0,%al
    b4c6:	00 00                	add    %al,(%eax)
    b4c8:	41                   	inc    %ecx
    b4c9:	0e                   	push   %cs
    b4ca:	08 85 02 42 0d 05    	or     %al,0x50d4202(%ebp)
    b4d0:	14 00                	adc    $0x0,%al
    b4d2:	00 00                	add    %al,(%eax)
    b4d4:	90                   	nop
    b4d5:	1b 00                	sbb    (%eax),%eax
    b4d7:	00 1e                	add    %bl,(%esi)
    b4d9:	3a 00                	cmp    (%eax),%al
    b4db:	00 14 00             	add    %dl,(%eax,%eax,1)
    b4de:	00 00                	add    %al,(%eax)
    b4e0:	41                   	inc    %ecx
    b4e1:	0e                   	push   %cs
    b4e2:	08 85 02 42 0d 05    	or     %al,0x50d4202(%ebp)
    b4e8:	14 00                	adc    $0x0,%al
    b4ea:	00 00                	add    %al,(%eax)
    b4ec:	a8 1b                	test   $0x1b,%al
    b4ee:	00 00                	add    %al,(%eax)
    b4f0:	32 3a                	xor    (%edx),%bh
    b4f2:	00 00                	add    %al,(%eax)
    b4f4:	14 00                	adc    $0x0,%al
    b4f6:	00 00                	add    %al,(%eax)
    b4f8:	41                   	inc    %ecx
    b4f9:	0e                   	push   %cs
    b4fa:	08 85 02 42 0d 05    	or     %al,0x50d4202(%ebp)
    b500:	14 00                	adc    $0x0,%al
    b502:	00 00                	add    %al,(%eax)
    b504:	c0 1b 00             	rcrb   $0x0,(%ebx)
    b507:	00 46 3a             	add    %al,0x3a(%esi)
    b50a:	00 00                	add    %al,(%eax)
    b50c:	14 00                	adc    $0x0,%al
    b50e:	00 00                	add    %al,(%eax)
    b510:	41                   	inc    %ecx
    b511:	0e                   	push   %cs
    b512:	08 85 02 42 0d 05    	or     %al,0x50d4202(%ebp)
    b518:	14 00                	adc    $0x0,%al
    b51a:	00 00                	add    %al,(%eax)
    b51c:	d8 1b                	fcomps (%ebx)
    b51e:	00 00                	add    %al,(%eax)
    b520:	5a                   	pop    %edx
    b521:	3a 00                	cmp    (%eax),%al
    b523:	00 14 00             	add    %dl,(%eax,%eax,1)
    b526:	00 00                	add    %al,(%eax)
    b528:	41                   	inc    %ecx
    b529:	0e                   	push   %cs
    b52a:	08 85 02 42 0d 05    	or     %al,0x50d4202(%ebp)
    b530:	14 00                	adc    $0x0,%al
    b532:	00 00                	add    %al,(%eax)
    b534:	f0 1b 00             	lock sbb (%eax),%eax
    b537:	00 6e 3a             	add    %ch,0x3a(%esi)
    b53a:	00 00                	add    %al,(%eax)
    b53c:	14 00                	adc    $0x0,%al
    b53e:	00 00                	add    %al,(%eax)
    b540:	41                   	inc    %ecx
    b541:	0e                   	push   %cs
    b542:	08 85 02 42 0d 05    	or     %al,0x50d4202(%ebp)
    b548:	14 00                	adc    $0x0,%al
    b54a:	00 00                	add    %al,(%eax)
    b54c:	08 1c 00             	or     %bl,(%eax,%eax,1)
    b54f:	00 82 3a 00 00 14    	add    %al,0x1400003a(%edx)
    b555:	00 00                	add    %al,(%eax)
    b557:	00 41 0e             	add    %al,0xe(%ecx)
    b55a:	08 85 02 42 0d 05    	or     %al,0x50d4202(%ebp)
    b560:	14 00                	adc    $0x0,%al
    b562:	00 00                	add    %al,(%eax)
    b564:	20 1c 00             	and    %bl,(%eax,%eax,1)
    b567:	00 96 3a 00 00 14    	add    %dl,0x1400003a(%esi)
    b56d:	00 00                	add    %al,(%eax)
    b56f:	00 41 0e             	add    %al,0xe(%ecx)
    b572:	08 85 02 42 0d 05    	or     %al,0x50d4202(%ebp)
    b578:	14 00                	adc    $0x0,%al
    b57a:	00 00                	add    %al,(%eax)
    b57c:	38 1c 00             	cmp    %bl,(%eax,%eax,1)
    b57f:	00 aa 3a 00 00 14    	add    %ch,0x1400003a(%edx)
    b585:	00 00                	add    %al,(%eax)
    b587:	00 41 0e             	add    %al,0xe(%ecx)
    b58a:	08 85 02 42 0d 05    	or     %al,0x50d4202(%ebp)
    b590:	14 00                	adc    $0x0,%al
    b592:	00 00                	add    %al,(%eax)
    b594:	50                   	push   %eax
    b595:	1c 00                	sbb    $0x0,%al
    b597:	00 be 3a 00 00 14    	add    %bh,0x1400003a(%esi)
    b59d:	00 00                	add    %al,(%eax)
    b59f:	00 41 0e             	add    %al,0xe(%ecx)
    b5a2:	08 85 02 42 0d 05    	or     %al,0x50d4202(%ebp)
    b5a8:	14 00                	adc    $0x0,%al
    b5aa:	00 00                	add    %al,(%eax)
    b5ac:	68 1c 00 00 d2       	push   $0xd200001c
    b5b1:	3a 00                	cmp    (%eax),%al
    b5b3:	00 14 00             	add    %dl,(%eax,%eax,1)
    b5b6:	00 00                	add    %al,(%eax)
    b5b8:	41                   	inc    %ecx
    b5b9:	0e                   	push   %cs
    b5ba:	08 85 02 42 0d 05    	or     %al,0x50d4202(%ebp)
    b5c0:	14 00                	adc    $0x0,%al
    b5c2:	00 00                	add    %al,(%eax)
    b5c4:	80 1c 00 00          	sbbb   $0x0,(%eax,%eax,1)
    b5c8:	e6 3a                	out    %al,$0x3a
    b5ca:	00 00                	add    %al,(%eax)
    b5cc:	14 00                	adc    $0x0,%al
    b5ce:	00 00                	add    %al,(%eax)
    b5d0:	41                   	inc    %ecx
    b5d1:	0e                   	push   %cs
    b5d2:	08 85 02 42 0d 05    	or     %al,0x50d4202(%ebp)
    b5d8:	14 00                	adc    $0x0,%al
    b5da:	00 00                	add    %al,(%eax)
    b5dc:	98                   	cwtl   
    b5dd:	1c 00                	sbb    $0x0,%al
    b5df:	00 fa                	add    %bh,%dl
    b5e1:	3a 00                	cmp    (%eax),%al
    b5e3:	00 14 00             	add    %dl,(%eax,%eax,1)
    b5e6:	00 00                	add    %al,(%eax)
    b5e8:	41                   	inc    %ecx
    b5e9:	0e                   	push   %cs
    b5ea:	08 85 02 42 0d 05    	or     %al,0x50d4202(%ebp)
    b5f0:	14 00                	adc    $0x0,%al
    b5f2:	00 00                	add    %al,(%eax)
    b5f4:	b0 1c                	mov    $0x1c,%al
    b5f6:	00 00                	add    %al,(%eax)
    b5f8:	0e                   	push   %cs
    b5f9:	3b 00                	cmp    (%eax),%eax
    b5fb:	00 14 00             	add    %dl,(%eax,%eax,1)
    b5fe:	00 00                	add    %al,(%eax)
    b600:	41                   	inc    %ecx
    b601:	0e                   	push   %cs
    b602:	08 85 02 42 0d 05    	or     %al,0x50d4202(%ebp)
    b608:	14 00                	adc    $0x0,%al
    b60a:	00 00                	add    %al,(%eax)
    b60c:	c8 1c 00 00          	enter  $0x1c,$0x0
    b610:	22 3b                	and    (%ebx),%bh
    b612:	00 00                	add    %al,(%eax)
    b614:	14 00                	adc    $0x0,%al
    b616:	00 00                	add    %al,(%eax)
    b618:	41                   	inc    %ecx
    b619:	0e                   	push   %cs
    b61a:	08 85 02 42 0d 05    	or     %al,0x50d4202(%ebp)
    b620:	14 00                	adc    $0x0,%al
    b622:	00 00                	add    %al,(%eax)
    b624:	e0 1c                	loopne b642 <ICH7_8259_Slave_Handler_End+0x4749>
    b626:	00 00                	add    %al,(%eax)
    b628:	36 3b 00             	cmp    %ss:(%eax),%eax
    b62b:	00 14 00             	add    %dl,(%eax,%eax,1)
    b62e:	00 00                	add    %al,(%eax)
    b630:	41                   	inc    %ecx
    b631:	0e                   	push   %cs
    b632:	08 85 02 42 0d 05    	or     %al,0x50d4202(%ebp)
    b638:	14 00                	adc    $0x0,%al
    b63a:	00 00                	add    %al,(%eax)
    b63c:	f8                   	clc    
    b63d:	1c 00                	sbb    $0x0,%al
    b63f:	00 4a 3b             	add    %cl,0x3b(%edx)
    b642:	00 00                	add    %al,(%eax)
    b644:	14 00                	adc    $0x0,%al
    b646:	00 00                	add    %al,(%eax)
    b648:	41                   	inc    %ecx
    b649:	0e                   	push   %cs
    b64a:	08 85 02 42 0d 05    	or     %al,0x50d4202(%ebp)
    b650:	14 00                	adc    $0x0,%al
    b652:	00 00                	add    %al,(%eax)
    b654:	10 1d 00 00 5e 3b    	adc    %bl,0x3b5e0000
    b65a:	00 00                	add    %al,(%eax)
    b65c:	14 00                	adc    $0x0,%al
    b65e:	00 00                	add    %al,(%eax)
    b660:	41                   	inc    %ecx
    b661:	0e                   	push   %cs
    b662:	08 85 02 42 0d 05    	or     %al,0x50d4202(%ebp)
    b668:	14 00                	adc    $0x0,%al
    b66a:	00 00                	add    %al,(%eax)
    b66c:	28 1d 00 00 72 3b    	sub    %bl,0x3b720000
    b672:	00 00                	add    %al,(%eax)
    b674:	14 00                	adc    $0x0,%al
    b676:	00 00                	add    %al,(%eax)
    b678:	41                   	inc    %ecx
    b679:	0e                   	push   %cs
    b67a:	08 85 02 42 0d 05    	or     %al,0x50d4202(%ebp)
    b680:	14 00                	adc    $0x0,%al
    b682:	00 00                	add    %al,(%eax)
    b684:	40                   	inc    %eax
    b685:	1d 00 00 86 3b       	sbb    $0x3b860000,%eax
    b68a:	00 00                	add    %al,(%eax)
    b68c:	14 00                	adc    $0x0,%al
    b68e:	00 00                	add    %al,(%eax)
    b690:	41                   	inc    %ecx
    b691:	0e                   	push   %cs
    b692:	08 85 02 42 0d 05    	or     %al,0x50d4202(%ebp)
    b698:	14 00                	adc    $0x0,%al
    b69a:	00 00                	add    %al,(%eax)
    b69c:	58                   	pop    %eax
    b69d:	1d 00 00 9a 3b       	sbb    $0x3b9a0000,%eax
    b6a2:	00 00                	add    %al,(%eax)
    b6a4:	14 00                	adc    $0x0,%al
    b6a6:	00 00                	add    %al,(%eax)
    b6a8:	41                   	inc    %ecx
    b6a9:	0e                   	push   %cs
    b6aa:	08 85 02 42 0d 05    	or     %al,0x50d4202(%ebp)
    b6b0:	14 00                	adc    $0x0,%al
    b6b2:	00 00                	add    %al,(%eax)
    b6b4:	70 1d                	jo     b6d3 <ICH7_8259_Slave_Handler_End+0x47da>
    b6b6:	00 00                	add    %al,(%eax)
    b6b8:	ae                   	scas   %es:(%edi),%al
    b6b9:	3b 00                	cmp    (%eax),%eax
    b6bb:	00 14 00             	add    %dl,(%eax,%eax,1)
    b6be:	00 00                	add    %al,(%eax)
    b6c0:	41                   	inc    %ecx
    b6c1:	0e                   	push   %cs
    b6c2:	08 85 02 42 0d 05    	or     %al,0x50d4202(%ebp)
    b6c8:	14 00                	adc    $0x0,%al
    b6ca:	00 00                	add    %al,(%eax)
    b6cc:	88 1d 00 00 c2 3b    	mov    %bl,0x3bc20000
    b6d2:	00 00                	add    %al,(%eax)
    b6d4:	14 00                	adc    $0x0,%al
    b6d6:	00 00                	add    %al,(%eax)
    b6d8:	41                   	inc    %ecx
    b6d9:	0e                   	push   %cs
    b6da:	08 85 02 42 0d 05    	or     %al,0x50d4202(%ebp)
    b6e0:	14 00                	adc    $0x0,%al
    b6e2:	00 00                	add    %al,(%eax)
    b6e4:	a0 1d 00 00 d6       	mov    0xd600001d,%al
    b6e9:	3b 00                	cmp    (%eax),%eax
    b6eb:	00 14 00             	add    %dl,(%eax,%eax,1)
    b6ee:	00 00                	add    %al,(%eax)
    b6f0:	41                   	inc    %ecx
    b6f1:	0e                   	push   %cs
    b6f2:	08 85 02 42 0d 05    	or     %al,0x50d4202(%ebp)
    b6f8:	14 00                	adc    $0x0,%al
    b6fa:	00 00                	add    %al,(%eax)
    b6fc:	b8 1d 00 00 ea       	mov    $0xea00001d,%eax
    b701:	3b 00                	cmp    (%eax),%eax
    b703:	00 14 00             	add    %dl,(%eax,%eax,1)
    b706:	00 00                	add    %al,(%eax)
    b708:	41                   	inc    %ecx
    b709:	0e                   	push   %cs
    b70a:	08 85 02 42 0d 05    	or     %al,0x50d4202(%ebp)
    b710:	14 00                	adc    $0x0,%al
    b712:	00 00                	add    %al,(%eax)
    b714:	d0 1d 00 00 fe 3b    	rcrb   0x3bfe0000
    b71a:	00 00                	add    %al,(%eax)
    b71c:	14 00                	adc    $0x0,%al
    b71e:	00 00                	add    %al,(%eax)
    b720:	41                   	inc    %ecx
    b721:	0e                   	push   %cs
    b722:	08 85 02 42 0d 05    	or     %al,0x50d4202(%ebp)
    b728:	14 00                	adc    $0x0,%al
    b72a:	00 00                	add    %al,(%eax)
    b72c:	e8 1d 00 00 12       	call   1200b74e <_end+0x11fffac6>
    b731:	3c 00                	cmp    $0x0,%al
    b733:	00 14 00             	add    %dl,(%eax,%eax,1)
    b736:	00 00                	add    %al,(%eax)
    b738:	41                   	inc    %ecx
    b739:	0e                   	push   %cs
    b73a:	08 85 02 42 0d 05    	or     %al,0x50d4202(%ebp)
    b740:	14 00                	adc    $0x0,%al
    b742:	00 00                	add    %al,(%eax)
    b744:	00 1e                	add    %bl,(%esi)
    b746:	00 00                	add    %al,(%eax)
    b748:	26                   	es
    b749:	3c 00                	cmp    $0x0,%al
    b74b:	00 14 00             	add    %dl,(%eax,%eax,1)
    b74e:	00 00                	add    %al,(%eax)
    b750:	41                   	inc    %ecx
    b751:	0e                   	push   %cs
    b752:	08 85 02 42 0d 05    	or     %al,0x50d4202(%ebp)
    b758:	14 00                	adc    $0x0,%al
    b75a:	00 00                	add    %al,(%eax)
    b75c:	18 1e                	sbb    %bl,(%esi)
    b75e:	00 00                	add    %al,(%eax)
    b760:	3a 3c 00             	cmp    (%eax,%eax,1),%bh
    b763:	00 14 00             	add    %dl,(%eax,%eax,1)
    b766:	00 00                	add    %al,(%eax)
    b768:	41                   	inc    %ecx
    b769:	0e                   	push   %cs
    b76a:	08 85 02 42 0d 05    	or     %al,0x50d4202(%ebp)
    b770:	14 00                	adc    $0x0,%al
    b772:	00 00                	add    %al,(%eax)
    b774:	30 1e                	xor    %bl,(%esi)
    b776:	00 00                	add    %al,(%eax)
    b778:	4e                   	dec    %esi
    b779:	3c 00                	cmp    $0x0,%al
    b77b:	00 14 00             	add    %dl,(%eax,%eax,1)
    b77e:	00 00                	add    %al,(%eax)
    b780:	41                   	inc    %ecx
    b781:	0e                   	push   %cs
    b782:	08 85 02 42 0d 05    	or     %al,0x50d4202(%ebp)
    b788:	14 00                	adc    $0x0,%al
    b78a:	00 00                	add    %al,(%eax)
    b78c:	48                   	dec    %eax
    b78d:	1e                   	push   %ds
    b78e:	00 00                	add    %al,(%eax)
    b790:	62 3c 00             	bound  %edi,(%eax,%eax,1)
    b793:	00 14 00             	add    %dl,(%eax,%eax,1)
    b796:	00 00                	add    %al,(%eax)
    b798:	41                   	inc    %ecx
    b799:	0e                   	push   %cs
    b79a:	08 85 02 42 0d 05    	or     %al,0x50d4202(%ebp)
    b7a0:	14 00                	adc    $0x0,%al
    b7a2:	00 00                	add    %al,(%eax)
    b7a4:	60                   	pusha  
    b7a5:	1e                   	push   %ds
    b7a6:	00 00                	add    %al,(%eax)
    b7a8:	76 3c                	jbe    b7e6 <ICH7_8259_Slave_Handler_End+0x48ed>
    b7aa:	00 00                	add    %al,(%eax)
    b7ac:	14 00                	adc    $0x0,%al
    b7ae:	00 00                	add    %al,(%eax)
    b7b0:	41                   	inc    %ecx
    b7b1:	0e                   	push   %cs
    b7b2:	08 85 02 42 0d 05    	or     %al,0x50d4202(%ebp)
    b7b8:	14 00                	adc    $0x0,%al
    b7ba:	00 00                	add    %al,(%eax)
    b7bc:	78 1e                	js     b7dc <ICH7_8259_Slave_Handler_End+0x48e3>
    b7be:	00 00                	add    %al,(%eax)
    b7c0:	8a 3c 00             	mov    (%eax,%eax,1),%bh
    b7c3:	00 14 00             	add    %dl,(%eax,%eax,1)
    b7c6:	00 00                	add    %al,(%eax)
    b7c8:	41                   	inc    %ecx
    b7c9:	0e                   	push   %cs
    b7ca:	08 85 02 42 0d 05    	or     %al,0x50d4202(%ebp)
    b7d0:	14 00                	adc    $0x0,%al
    b7d2:	00 00                	add    %al,(%eax)
    b7d4:	90                   	nop
    b7d5:	1e                   	push   %ds
    b7d6:	00 00                	add    %al,(%eax)
    b7d8:	9e                   	sahf   
    b7d9:	3c 00                	cmp    $0x0,%al
    b7db:	00 14 00             	add    %dl,(%eax,%eax,1)
    b7de:	00 00                	add    %al,(%eax)
    b7e0:	41                   	inc    %ecx
    b7e1:	0e                   	push   %cs
    b7e2:	08 85 02 42 0d 05    	or     %al,0x50d4202(%ebp)
    b7e8:	14 00                	adc    $0x0,%al
    b7ea:	00 00                	add    %al,(%eax)
    b7ec:	a8 1e                	test   $0x1e,%al
    b7ee:	00 00                	add    %al,(%eax)
    b7f0:	b2 3c                	mov    $0x3c,%dl
    b7f2:	00 00                	add    %al,(%eax)
    b7f4:	14 00                	adc    $0x0,%al
    b7f6:	00 00                	add    %al,(%eax)
    b7f8:	41                   	inc    %ecx
    b7f9:	0e                   	push   %cs
    b7fa:	08 85 02 42 0d 05    	or     %al,0x50d4202(%ebp)
    b800:	14 00                	adc    $0x0,%al
    b802:	00 00                	add    %al,(%eax)
    b804:	c0 1e 00             	rcrb   $0x0,(%esi)
    b807:	00 c6                	add    %al,%dh
    b809:	3c 00                	cmp    $0x0,%al
    b80b:	00 14 00             	add    %dl,(%eax,%eax,1)
    b80e:	00 00                	add    %al,(%eax)
    b810:	41                   	inc    %ecx
    b811:	0e                   	push   %cs
    b812:	08 85 02 42 0d 05    	or     %al,0x50d4202(%ebp)
    b818:	14 00                	adc    $0x0,%al
    b81a:	00 00                	add    %al,(%eax)
    b81c:	d8 1e                	fcomps (%esi)
    b81e:	00 00                	add    %al,(%eax)
    b820:	da 3c 00             	fidivrl (%eax,%eax,1)
    b823:	00 14 00             	add    %dl,(%eax,%eax,1)
    b826:	00 00                	add    %al,(%eax)
    b828:	41                   	inc    %ecx
    b829:	0e                   	push   %cs
    b82a:	08 85 02 42 0d 05    	or     %al,0x50d4202(%ebp)
    b830:	14 00                	adc    $0x0,%al
    b832:	00 00                	add    %al,(%eax)
    b834:	f0 1e                	lock push %ds
    b836:	00 00                	add    %al,(%eax)
    b838:	ee                   	out    %al,(%dx)
    b839:	3c 00                	cmp    $0x0,%al
    b83b:	00 14 00             	add    %dl,(%eax,%eax,1)
    b83e:	00 00                	add    %al,(%eax)
    b840:	41                   	inc    %ecx
    b841:	0e                   	push   %cs
    b842:	08 85 02 42 0d 05    	or     %al,0x50d4202(%ebp)
    b848:	14 00                	adc    $0x0,%al
    b84a:	00 00                	add    %al,(%eax)
    b84c:	08 1f                	or     %bl,(%edi)
    b84e:	00 00                	add    %al,(%eax)
    b850:	02 3d 00 00 14 00    	add    0x140000,%bh
    b856:	00 00                	add    %al,(%eax)
    b858:	41                   	inc    %ecx
    b859:	0e                   	push   %cs
    b85a:	08 85 02 42 0d 05    	or     %al,0x50d4202(%ebp)
    b860:	14 00                	adc    $0x0,%al
    b862:	00 00                	add    %al,(%eax)
    b864:	20 1f                	and    %bl,(%edi)
    b866:	00 00                	add    %al,(%eax)
    b868:	16                   	push   %ss
    b869:	3d 00 00 14 00       	cmp    $0x140000,%eax
    b86e:	00 00                	add    %al,(%eax)
    b870:	41                   	inc    %ecx
    b871:	0e                   	push   %cs
    b872:	08 85 02 42 0d 05    	or     %al,0x50d4202(%ebp)
    b878:	14 00                	adc    $0x0,%al
    b87a:	00 00                	add    %al,(%eax)
    b87c:	38 1f                	cmp    %bl,(%edi)
    b87e:	00 00                	add    %al,(%eax)
    b880:	2a 3d 00 00 14 00    	sub    0x140000,%bh
    b886:	00 00                	add    %al,(%eax)
    b888:	41                   	inc    %ecx
    b889:	0e                   	push   %cs
    b88a:	08 85 02 42 0d 05    	or     %al,0x50d4202(%ebp)
    b890:	14 00                	adc    $0x0,%al
    b892:	00 00                	add    %al,(%eax)
    b894:	50                   	push   %eax
    b895:	1f                   	pop    %ds
    b896:	00 00                	add    %al,(%eax)
    b898:	3e                   	ds
    b899:	3d 00 00 14 00       	cmp    $0x140000,%eax
    b89e:	00 00                	add    %al,(%eax)
    b8a0:	41                   	inc    %ecx
    b8a1:	0e                   	push   %cs
    b8a2:	08 85 02 42 0d 05    	or     %al,0x50d4202(%ebp)
    b8a8:	14 00                	adc    $0x0,%al
    b8aa:	00 00                	add    %al,(%eax)
    b8ac:	68 1f 00 00 52       	push   $0x5200001f
    b8b1:	3d 00 00 14 00       	cmp    $0x140000,%eax
    b8b6:	00 00                	add    %al,(%eax)
    b8b8:	41                   	inc    %ecx
    b8b9:	0e                   	push   %cs
    b8ba:	08 85 02 42 0d 05    	or     %al,0x50d4202(%ebp)
    b8c0:	14 00                	adc    $0x0,%al
    b8c2:	00 00                	add    %al,(%eax)
    b8c4:	80 1f 00             	sbbb   $0x0,(%edi)
    b8c7:	00 66 3d             	add    %ah,0x3d(%esi)
    b8ca:	00 00                	add    %al,(%eax)
    b8cc:	14 00                	adc    $0x0,%al
    b8ce:	00 00                	add    %al,(%eax)
    b8d0:	41                   	inc    %ecx
    b8d1:	0e                   	push   %cs
    b8d2:	08 85 02 42 0d 05    	or     %al,0x50d4202(%ebp)
    b8d8:	14 00                	adc    $0x0,%al
    b8da:	00 00                	add    %al,(%eax)
    b8dc:	98                   	cwtl   
    b8dd:	1f                   	pop    %ds
    b8de:	00 00                	add    %al,(%eax)
    b8e0:	7a 3d                	jp     b91f <ICH7_8259_Slave_Handler_End+0x4a26>
    b8e2:	00 00                	add    %al,(%eax)
    b8e4:	14 00                	adc    $0x0,%al
    b8e6:	00 00                	add    %al,(%eax)
    b8e8:	41                   	inc    %ecx
    b8e9:	0e                   	push   %cs
    b8ea:	08 85 02 42 0d 05    	or     %al,0x50d4202(%ebp)
    b8f0:	14 00                	adc    $0x0,%al
    b8f2:	00 00                	add    %al,(%eax)
    b8f4:	b0 1f                	mov    $0x1f,%al
    b8f6:	00 00                	add    %al,(%eax)
    b8f8:	8e 3d 00 00 14 00    	mov    0x140000,%?
    b8fe:	00 00                	add    %al,(%eax)
    b900:	41                   	inc    %ecx
    b901:	0e                   	push   %cs
    b902:	08 85 02 42 0d 05    	or     %al,0x50d4202(%ebp)
    b908:	1c 00                	sbb    $0x0,%al
    b90a:	00 00                	add    %al,(%eax)
    b90c:	c8 1f 00 00          	enter  $0x1f,$0x0
    b910:	a2 3d 00 00 29       	mov    %al,0x2900003d
    b915:	30 00                	xor    %al,(%eax)
    b917:	00 41 0e             	add    %al,0xe(%ecx)
    b91a:	08 85 02 42 0d 05    	or     %al,0x50d4202(%ebp)
    b920:	03 25 30 c5 0c 04    	add    0x40cc530,%esp
    b926:	04 00                	add    $0x0,%al
    b928:	1c 00                	sbb    $0x0,%al
    b92a:	00 00                	add    %al,(%eax)
    b92c:	e8 1f 00 00 cb       	call   cb00b950 <_end+0xcafffcc8>
    b931:	6d                   	insl   (%dx),%es:(%edi)
    b932:	00 00                	add    %al,(%eax)
    b934:	05 00 00 00 41       	add    $0x41000000,%eax
    b939:	0e                   	push   %cs
    b93a:	08 85 02 42 0d 05    	or     %al,0x50d4202(%ebp)
    b940:	41                   	inc    %ecx
    b941:	0c 04                	or     $0x4,%al
    b943:	04 c5                	add    $0xc5,%al
    b945:	00 00                	add    %al,(%eax)
    b947:	00 1c 00             	add    %bl,(%eax,%eax,1)
    b94a:	00 00                	add    %al,(%eax)
    b94c:	08 20                	or     %ah,(%eax)
    b94e:	00 00                	add    %al,(%eax)
    b950:	d0 6d 00             	shrb   0x0(%ebp)
    b953:	00 0d 01 00 00 41    	add    %cl,0x41000001
    b959:	0e                   	push   %cs
    b95a:	08 85 02 42 0d 05    	or     %al,0x50d4202(%ebp)
    b960:	03 09                	add    (%ecx),%ecx
    b962:	01 c5                	add    %eax,%ebp
    b964:	0c 04                	or     $0x4,%al
    b966:	04 00                	add    $0x0,%al
    b968:	1c 00                	sbb    $0x0,%al
    b96a:	00 00                	add    %al,(%eax)
    b96c:	28 20                	sub    %ah,(%eax)
    b96e:	00 00                	add    %al,(%eax)
    b970:	dd 6e 00             	(bad)  0x0(%esi)
    b973:	00 1c 00             	add    %bl,(%eax,%eax,1)
    b976:	00 00                	add    %al,(%eax)
    b978:	41                   	inc    %ecx
    b979:	0e                   	push   %cs
    b97a:	08 85 02 42 0d 05    	or     %al,0x50d4202(%ebp)
    b980:	58                   	pop    %eax
    b981:	c5 0c 04             	lds    (%esp,%eax,1),%ecx
    b984:	04 00                	add    $0x0,%al
    b986:	00 00                	add    %al,(%eax)
    b988:	1c 00                	sbb    $0x0,%al
    b98a:	00 00                	add    %al,(%eax)
    b98c:	48                   	dec    %eax
    b98d:	20 00                	and    %al,(%eax)
    b98f:	00 f9                	add    %bh,%cl
    b991:	6e                   	outsb  %ds:(%esi),(%dx)
    b992:	00 00                	add    %al,(%eax)
    b994:	1c 00                	sbb    $0x0,%al
    b996:	00 00                	add    %al,(%eax)
    b998:	41                   	inc    %ecx
    b999:	0e                   	push   %cs
    b99a:	08 85 02 42 0d 05    	or     %al,0x50d4202(%ebp)
    b9a0:	58                   	pop    %eax
    b9a1:	c5 0c 04             	lds    (%esp,%eax,1),%ecx
    b9a4:	04 00                	add    $0x0,%al
	...

Disassembly of section .bss:

0000b9c0 <ICH7_8259_DEV>:
    b9c0:	00 00                	add    %al,(%eax)
	...

0000b9c3 <Video_CurMsg>:
    b9c3:	00 00                	add    %al,(%eax)
	...

0000b9c6 <BootID>:
	...

0000b9e0 <CPU_CPUMsg>:
	...

0000ba00 <PCI_databuf>:
	...

0000bac8 <ICH7_USB_DEV_EHCI>:
	...

0000bae0 <databuf>:
	...

0000bbc0 <USB_databuf>:
	...

Disassembly of section .comment:

00000000 <.comment>:
   0:	47                   	inc    %edi
   1:	43                   	inc    %ebx
   2:	43                   	inc    %ebx
   3:	3a 20                	cmp    (%eax),%ah
   5:	28 47 4e             	sub    %al,0x4e(%edi)
   8:	55                   	push   %ebp
   9:	29 20                	sub    %esp,(%eax)
   b:	34 2e                	xor    $0x2e,%al
   d:	36 2e 31 00          	ss xor %eax,%cs:%ss:(%eax)
